	.text
	.file	"bzip2.opt.bc"
	.globl	BZ2_blockSort
	.p2align	4, 0x90
	.type	BZ2_blockSort,@function
BZ2_blockSort:                          # @BZ2_blockSort
	.cfi_startproc
# BB#0:                                 # %entry
	pushq	%rbp
.Lcfi0:
	.cfi_def_cfa_offset 16
.Lcfi1:
	.cfi_offset %rbp, -16
	movq	%rsp, %rbp
.Lcfi2:
	.cfi_def_cfa_register %rbp
	pushq	%r15
	pushq	%r14
	pushq	%r13
	pushq	%r12
	pushq	%rbx
	subq	$24, %rsp
.Lcfi3:
	.cfi_offset %rbx, -56
.Lcfi4:
	.cfi_offset %r12, -48
.Lcfi5:
	.cfi_offset %r13, -40
.Lcfi6:
	.cfi_offset %r14, -32
.Lcfi7:
	.cfi_offset %r15, -24
	movq	%rdi, %rbx
	movq	40(%rbx), %rcx
	movq	56(%rbx), %r14
	movl	108(%rbx), %r13d
	movl	656(%rbx), %r15d
	cmpl	$9999, %r13d            # imm = 0x270F
	jg	.LBB0_2
# BB#1:                                 # %if.then
	movq	24(%rbx), %rdi
	movq	32(%rbx), %rsi
	movq	%rcx, %rdx
	movl	%r13d, %ecx
	movl	%r15d, %r8d
	jmp	.LBB0_8
.LBB0_2:                                # %if.else
	movq	64(%rbx), %rsi
	movl	88(%rbx), %eax
	leal	34(%r13), %edi
	leal	35(%r13), %edx
	testb	$1, %dil
	cmovel	%edi, %edx
	movslq	%edx, %rdx
	addq	%rsi, %rdx
	testl	%eax, %eax
	movl	$1, %edi
	cmovlel	%edi, %eax
	cmpl	$100, %eax
	movl	$100, %edi
	cmovlel	%eax, %edi
	decl	%edi
	movslq	%edi, %rax
	imulq	$1431655766, %rax, %r12 # imm = 0x55555556
	movq	%r12, %rax
	shrq	$63, %rax
	shrq	$32, %r12
	addl	%eax, %r12d
	imull	%r13d, %r12d
	movl	%r12d, -44(%rbp)
	leaq	-44(%rbp), %rax
	movq	%rax, (%rsp)
	movq	%r14, %rdi
	movq	%rcx, -56(%rbp)         # 8-byte Spill
	movl	%r13d, %r8d
	movl	%r15d, %r9d
	callq	mainSort
	movl	%r15d, %r8d
	cmpl	$3, %r8d
	jl	.LBB0_4
# BB#3:                                 # %if.then13
	movq	stderr(%rip), %rdi
	subl	-44(%rbp), %r12d
	cvtsi2ssl	%r12d, %xmm0
	testl	%r13d, %r13d
	movl	$1, %eax
	cmovnel	%r13d, %eax
	cvtsi2ssl	%eax, %xmm1
	divss	%xmm1, %xmm0
	cvtss2sd	%xmm0, %xmm0
	movl	$.L.str, %esi
	movb	$1, %al
	movl	%r12d, %edx
	movl	%r13d, %ecx
	callq	fprintf
	movl	%r15d, %r8d
.LBB0_4:                                # %if.end21
	cmpl	$0, -44(%rbp)
	jns	.LBB0_9
# BB#5:                                 # %if.then24
	cmpl	$2, %r8d
	jl	.LBB0_7
# BB#6:                                 # %if.then27
	movq	stderr(%rip), %rdi
	movl	$.L.str.1, %esi
	xorl	%eax, %eax
	callq	fprintf
	movl	%r15d, %r8d
.LBB0_7:                                # %if.end29
	movq	24(%rbx), %rdi
	movq	32(%rbx), %rsi
	movq	-56(%rbp), %rdx         # 8-byte Reload
	movl	%r13d, %ecx
.LBB0_8:                                # %if.end33
	callq	fallbackSort
.LBB0_9:                                # %if.end33
	movl	$-1, 48(%rbx)
	xorl	%eax, %eax
	cmpl	108(%rbx), %eax
	jl	.LBB0_11
	jmp	.LBB0_13
	.p2align	4, 0x90
.LBB0_16:                               # %for.inc
                                        #   in Loop: Header=BB0_11 Depth=1
	incq	%rax
	cmpl	108(%rbx), %eax
	jge	.LBB0_13
.LBB0_11:                               # %for.body
                                        # =>This Inner Loop Header: Depth=1
	cmpl	$0, (%r14,%rax,4)
	jne	.LBB0_16
# BB#12:                                # %if.then41
	movl	%eax, 48(%rbx)
.LBB0_13:                               # %for.end
	cmpl	$-1, 48(%rbx)
	jne	.LBB0_15
# BB#14:                                # %if.then48
	movl	$1003, %edi             # imm = 0x3EB
	callq	BZ2_bz__AssertH__fail
.LBB0_15:                               # %if.end49
	addq	$24, %rsp
	popq	%rbx
	popq	%r12
	popq	%r13
	popq	%r14
	popq	%r15
	popq	%rbp
	retq
.Lfunc_end0:
	.size	BZ2_blockSort, .Lfunc_end0-BZ2_blockSort
	.cfi_endproc

	.p2align	4, 0x90
	.type	fallbackSort,@function
fallbackSort:                           # @fallbackSort
	.cfi_startproc
# BB#0:                                 # %entry
	pushq	%rbp
.Lcfi8:
	.cfi_def_cfa_offset 16
.Lcfi9:
	.cfi_offset %rbp, -16
	movq	%rsp, %rbp
.Lcfi10:
	.cfi_def_cfa_register %rbp
	pushq	%r15
	pushq	%r14
	pushq	%r13
	pushq	%r12
	pushq	%rbx
	subq	$2088, %rsp             # imm = 0x828
.Lcfi11:
	.cfi_offset %rbx, -56
.Lcfi12:
	.cfi_offset %r12, -48
.Lcfi13:
	.cfi_offset %r13, -40
.Lcfi14:
	.cfi_offset %r14, -32
.Lcfi15:
	.cfi_offset %r15, -24
	movl	%r8d, %r15d
	movl	%ecx, %r8d
	movq	%rdx, %r13
	movq	%rsi, %rbx
	movq	%rdi, %r14
	cmpl	$4, %r15d
	movl	%r8d, -44(%rbp)         # 4-byte Spill
	jl	.LBB1_2
# BB#1:                                 # %if.then
	movq	stderr(%rip), %rdi
	movl	$.L.str.48, %esi
	xorl	%eax, %eax
	callq	fprintf
	movl	-44(%rbp), %r8d         # 4-byte Reload
.LBB1_2:                                # %for.cond.preheader
	xorl	%eax, %eax
	cmpl	$257, %eax              # imm = 0x101
	jge	.LBB1_4
	.p2align	4, 0x90
.LBB1_62:                               # %for.body
                                        # =>This Inner Loop Header: Depth=1
	movl	$0, -1104(%rbp,%rax,4)
	incq	%rax
	cmpl	$257, %eax              # imm = 0x101
	jl	.LBB1_62
.LBB1_4:                                # %for.cond2.preheader
	xorl	%eax, %eax
	cmpl	%r8d, %eax
	jge	.LBB1_6
	.p2align	4, 0x90
.LBB1_63:                               # %for.body4
                                        # =>This Inner Loop Header: Depth=1
	movzbl	(%rbx,%rax), %ecx
	incl	-1104(%rbp,%rcx,4)
	incq	%rax
	cmpl	%r8d, %eax
	jl	.LBB1_63
.LBB1_6:                                # %for.cond13.preheader
	xorl	%eax, %eax
	cmpl	$256, %eax              # imm = 0x100
	jge	.LBB1_8
	.p2align	4, 0x90
.LBB1_64:                               # %for.body15
                                        # =>This Inner Loop Header: Depth=1
	movl	-1104(%rbp,%rax,4), %ecx
	movl	%ecx, -2128(%rbp,%rax,4)
	incq	%rax
	cmpl	$256, %eax              # imm = 0x100
	jl	.LBB1_64
.LBB1_8:                                # %for.cond23.preheader
	movl	$1, %eax
	cmpl	$257, %eax              # imm = 0x101
	jge	.LBB1_10
	.p2align	4, 0x90
.LBB1_65:                               # %for.body25
                                        # =>This Inner Loop Header: Depth=1
	movl	-1108(%rbp,%rax,4), %ecx
	addl	%ecx, -1104(%rbp,%rax,4)
	incq	%rax
	cmpl	$257, %eax              # imm = 0x101
	jl	.LBB1_65
.LBB1_10:                               # %for.cond33.preheader
	xorl	%eax, %eax
	cmpl	%r8d, %eax
	jge	.LBB1_13
	.p2align	4, 0x90
.LBB1_12:                               # %for.body35
                                        # =>This Inner Loop Header: Depth=1
	movzbl	(%rbx,%rax), %ecx
	movslq	-1104(%rbp,%rcx,4), %rdx
	leaq	-1(%rdx), %rsi
	movl	%esi, -1104(%rbp,%rcx,4)
	movl	%eax, -4(%r14,%rdx,4)
	incq	%rax
	cmpl	%r8d, %eax
	jl	.LBB1_12
.LBB1_13:                               # %for.end47
	movl	%r8d, %eax
	sarl	$31, %eax
	shrl	$27, %eax
	addl	%r8d, %eax
	sarl	$5, %eax
	addl	$2, %eax
	xorl	%ecx, %ecx
	cmpl	%eax, %ecx
	jge	.LBB1_15
	.p2align	4, 0x90
.LBB1_66:                               # %for.body52
                                        # =>This Inner Loop Header: Depth=1
	movl	$0, (%r13,%rcx,4)
	incq	%rcx
	cmpl	%eax, %ecx
	jl	.LBB1_66
.LBB1_15:                               # %for.cond58.preheader
	xorl	%eax, %eax
	cmpl	$256, %eax              # imm = 0x100
	jge	.LBB1_17
	.p2align	4, 0x90
.LBB1_67:                               # %for.body61
                                        # =>This Inner Loop Header: Depth=1
	movl	-1104(%rbp,%rax,4), %ecx
	movl	$1, %edx
	shll	%cl, %edx
	sarl	$5, %ecx
	movslq	%ecx, %rcx
	orl	%edx, (%r13,%rcx,4)
	incq	%rax
	cmpl	$256, %eax              # imm = 0x100
	jl	.LBB1_67
.LBB1_17:                               # %for.cond71.preheader
	xorl	%edx, %edx
	movl	%r8d, %eax
	cmpl	$32, %edx
	jge	.LBB1_19
	.p2align	4, 0x90
.LBB1_68:                               # %for.body74
                                        # =>This Inner Loop Header: Depth=1
	movl	$1, %esi
	movl	%eax, %ecx
	shll	%cl, %esi
	movl	%eax, %ecx
	sarl	$5, %ecx
	movslq	%ecx, %rcx
	orl	%esi, (%r13,%rcx,4)
	leal	1(%rax), %ecx
	movl	$-2, %esi
	roll	%cl, %esi
	sarl	$5, %ecx
	movslq	%ecx, %rcx
	andl	%esi, (%r13,%rcx,4)
	incl	%edx
	addl	$2, %eax
	cmpl	$32, %edx
	jl	.LBB1_68
.LBB1_19:                               # %while.body.preheader
	movl	$1, %r12d
	movq	%rbx, -64(%rbp)         # 8-byte Spill
	movq	%r14, -56(%rbp)         # 8-byte Spill
	movl	%r15d, -68(%rbp)        # 4-byte Spill
	.p2align	4, 0x90
.LBB1_20:                               # %while.body
                                        # =>This Loop Header: Depth=1
                                        #     Child Loop BB1_69 Depth 2
                                        #     Child Loop BB1_25 Depth 2
                                        #       Child Loop BB1_27 Depth 3
                                        #       Child Loop BB1_29 Depth 3
                                        #       Child Loop BB1_32 Depth 3
                                        #       Child Loop BB1_35 Depth 3
                                        #       Child Loop BB1_37 Depth 3
                                        #       Child Loop BB1_44 Depth 3
	cmpl	$4, %r15d
	jl	.LBB1_22
# BB#21:                                # %if.then101
                                        #   in Loop: Header=BB1_20 Depth=1
	movq	stderr(%rip), %rdi
	movl	$.L.str.49, %esi
	xorl	%eax, %eax
	movl	%r12d, %edx
	callq	fprintf
	movl	-44(%rbp), %r8d         # 4-byte Reload
.LBB1_22:                               # %for.cond104.preheader
                                        #   in Loop: Header=BB1_20 Depth=1
	xorl	%eax, %eax
	xorl	%ecx, %ecx
	cmpl	%r8d, %eax
	jge	.LBB1_24
	.p2align	4, 0x90
.LBB1_69:                               # %for.body107
                                        #   Parent Loop BB1_20 Depth=1
                                        # =>  This Inner Loop Header: Depth=2
	movl	(%r14,%rax,4), %edx
	movl	%edx, %esi
	subl	%r12d, %esi
	addl	%r8d, %esi
	subl	%r12d, %edx
	cmovsl	%esi, %edx
	movl	%eax, %esi
	sarl	$5, %esi
	movslq	%esi, %rsi
	movl	(%r13,%rsi,4), %esi
	btl	%eax, %esi
	cmovbl	%eax, %ecx
	movslq	%edx, %rdx
	movl	%ecx, (%rbx,%rdx,4)
	incq	%rax
	cmpl	%r8d, %eax
	jl	.LBB1_69
.LBB1_24:                               # %while.body130.preheader
                                        #   in Loop: Header=BB1_20 Depth=1
	xorl	%edx, %edx
	movl	$-1, %r15d
	jmp	.LBB1_25
.LBB1_43:                               #   in Loop: Header=BB1_25 Depth=2
	movl	-44(%rbp), %r8d         # 4-byte Reload
	movq	%rbx, %rdx
	.p2align	4, 0x90
.LBB1_25:                               # %while.cond132
                                        #   Parent Loop BB1_20 Depth=1
                                        # =>  This Loop Header: Depth=2
                                        #       Child Loop BB1_27 Depth 3
                                        #       Child Loop BB1_29 Depth 3
                                        #       Child Loop BB1_32 Depth 3
                                        #       Child Loop BB1_35 Depth 3
                                        #       Child Loop BB1_37 Depth 3
                                        #       Child Loop BB1_44 Depth 3
	incl	%r15d
	movl	%r15d, %eax
	sarl	$5, %eax
	cltq
	movl	(%r13,%rax,4), %ecx
	movl	%r15d, %esi
	andl	$31, %esi
	setne	%bl
	btl	%esi, %ecx
	sbbb	%cl, %cl
	testb	%bl, %cl
	jne	.LBB1_25
# BB#26:                                # %while.end
                                        #   in Loop: Header=BB1_25 Depth=2
	movl	(%r13,%rax,4), %eax
	btl	%r15d, %eax
	jb	.LBB1_27
	jmp	.LBB1_31
	.p2align	4, 0x90
.LBB1_28:                               # %while.body158
                                        #   in Loop: Header=BB1_27 Depth=3
	addl	$32, %r15d
.LBB1_27:                               # %while.cond152
                                        #   Parent Loop BB1_20 Depth=1
                                        #     Parent Loop BB1_25 Depth=2
                                        # =>    This Inner Loop Header: Depth=3
	movl	%r15d, %eax
	sarl	$5, %eax
	cltq
	cmpl	$-1, (%r13,%rax,4)
	je	.LBB1_28
	jmp	.LBB1_29
	.p2align	4, 0x90
.LBB1_30:                               # %while.body169
                                        #   in Loop: Header=BB1_29 Depth=3
	incl	%r15d
.LBB1_29:                               # %while.cond161
                                        #   Parent Loop BB1_20 Depth=1
                                        #     Parent Loop BB1_25 Depth=2
                                        # =>    This Inner Loop Header: Depth=3
	movl	%r15d, %eax
	sarl	$5, %eax
	cltq
	movl	(%r13,%rax,4), %eax
	btl	%r15d, %eax
	jb	.LBB1_30
.LBB1_31:                               # %if.end172
                                        #   in Loop: Header=BB1_25 Depth=2
	leal	-1(%r15), %r14d
	cmpl	%r8d, %r14d
	jl	.LBB1_32
	jmp	.LBB1_47
	.p2align	4, 0x90
.LBB1_33:                               # %while.body190
                                        #   in Loop: Header=BB1_32 Depth=3
	incl	%r15d
.LBB1_32:                               # %while.cond178
                                        #   Parent Loop BB1_20 Depth=1
                                        #     Parent Loop BB1_25 Depth=2
                                        # =>    This Inner Loop Header: Depth=3
	movl	%r15d, %eax
	sarl	$5, %eax
	cltq
	movl	(%r13,%rax,4), %ecx
	movl	%r15d, %esi
	andl	$31, %esi
	setne	%bl
	btl	%esi, %ecx
	setae	%cl
	andb	%bl, %cl
	cmpb	$1, %cl
	je	.LBB1_33
# BB#34:                                # %while.end192
                                        #   in Loop: Header=BB1_25 Depth=2
	movl	(%r13,%rax,4), %eax
	btl	%r15d, %eax
	jb	.LBB1_39
	jmp	.LBB1_35
	.p2align	4, 0x90
.LBB1_36:                               # %while.body207
                                        #   in Loop: Header=BB1_35 Depth=3
	addl	$32, %r15d
.LBB1_35:                               # %while.cond201
                                        #   Parent Loop BB1_20 Depth=1
                                        #     Parent Loop BB1_25 Depth=2
                                        # =>    This Inner Loop Header: Depth=3
	movl	%r15d, %eax
	sarl	$5, %eax
	cltq
	cmpl	$0, (%r13,%rax,4)
	je	.LBB1_36
	jmp	.LBB1_37
	.p2align	4, 0x90
.LBB1_38:                               # %while.body218
                                        #   in Loop: Header=BB1_37 Depth=3
	incl	%r15d
.LBB1_37:                               # %while.cond210
                                        #   Parent Loop BB1_20 Depth=1
                                        #     Parent Loop BB1_25 Depth=2
                                        # =>    This Inner Loop Header: Depth=3
	movl	%r15d, %eax
	sarl	$5, %eax
	cltq
	movl	(%r13,%rax,4), %eax
	btl	%r15d, %eax
	jae	.LBB1_38
.LBB1_39:                               # %if.end221
                                        #   in Loop: Header=BB1_25 Depth=2
	decl	%r15d
	cmpl	%r8d, %r15d
	jge	.LBB1_47
# BB#40:                                # %if.end226
                                        #   in Loop: Header=BB1_25 Depth=2
	movl	%r15d, %eax
	subl	%r14d, %eax
	jle	.LBB1_25
# BB#41:                                # %if.then229
                                        #   in Loop: Header=BB1_25 Depth=2
	leal	1(%rdx,%rax), %edx
	movq	%rdx, %rbx
	movq	-56(%rbp), %rdi         # 8-byte Reload
	movq	-64(%rbp), %rsi         # 8-byte Reload
	movl	%r14d, %edx
	movl	%r15d, %ecx
	callq	fallbackQSort3
	movslq	%r14d, %rcx
	movl	$-1, %eax
	cmpl	%r15d, %ecx
	jle	.LBB1_44
	jmp	.LBB1_43
	.p2align	4, 0x90
.LBB1_46:                               # %for.inc251
                                        #   in Loop: Header=BB1_44 Depth=3
	incq	%rcx
	cmpl	%r15d, %ecx
	jg	.LBB1_43
.LBB1_44:                               # %for.body236
                                        #   Parent Loop BB1_20 Depth=1
                                        #     Parent Loop BB1_25 Depth=2
                                        # =>    This Inner Loop Header: Depth=3
	movq	-56(%rbp), %rdx         # 8-byte Reload
	movl	(%rdx,%rcx,4), %edx
	movq	-64(%rbp), %rsi         # 8-byte Reload
	movl	(%rsi,%rdx,4), %edx
	cmpl	%edx, %eax
	je	.LBB1_46
# BB#45:                                # %if.then243
                                        #   in Loop: Header=BB1_44 Depth=3
	movl	$1, %eax
	shll	%cl, %eax
	movl	%ecx, %esi
	sarl	$5, %esi
	movslq	%esi, %rsi
	orl	%eax, (%r13,%rsi,4)
	movl	%edx, %eax
	jmp	.LBB1_46
	.p2align	4, 0x90
.LBB1_47:                               # %while.end255
                                        #   in Loop: Header=BB1_20 Depth=1
	movl	-68(%rbp), %r15d        # 4-byte Reload
	cmpl	$4, %r15d
	jl	.LBB1_49
# BB#48:                                # %if.then258
                                        #   in Loop: Header=BB1_20 Depth=1
	movq	stderr(%rip), %rdi
	movl	$.L.str.50, %esi
	xorl	%eax, %eax
	movq	%rdx, %rbx
	callq	fprintf
	movq	%rbx, %rdx
	movl	-44(%rbp), %r8d         # 4-byte Reload
.LBB1_49:                               # %if.end260
                                        #   in Loop: Header=BB1_20 Depth=1
	addl	%r12d, %r12d
	cmpl	%r8d, %r12d
	movq	-64(%rbp), %rbx         # 8-byte Reload
	movq	-56(%rbp), %r14         # 8-byte Reload
	jg	.LBB1_51
# BB#50:                                # %if.end260
                                        #   in Loop: Header=BB1_20 Depth=1
	testl	%edx, %edx
	jne	.LBB1_20
.LBB1_51:                               # %while.end268
	cmpl	$4, %r15d
	jl	.LBB1_53
# BB#52:                                # %if.then271
	movq	stderr(%rip), %rdi
	movl	$.L.str.51, %esi
	xorl	%eax, %eax
	callq	fprintf
	movl	-44(%rbp), %r8d         # 4-byte Reload
.LBB1_53:                               # %for.cond274.preheader
	xorl	%eax, %eax
	xorl	%ecx, %ecx
	cmpl	%r8d, %eax
	jl	.LBB1_55
	jmp	.LBB1_59
	.p2align	4, 0x90
.LBB1_58:                               # %while.end284
                                        #   in Loop: Header=BB1_55 Depth=1
	decl	(%rdx)
	movslq	%eax, %rdx
	movl	(%r14,%rdx,4), %edx
	movb	%cl, (%rbx,%rdx)
	incl	%eax
	cmpl	%r8d, %eax
	jge	.LBB1_59
.LBB1_55:                               # %while.cond.preheader
                                        # =>This Loop Header: Depth=1
                                        #     Child Loop BB1_57 Depth 2
	movslq	%ecx, %rdx
	leaq	-2128(%rbp,%rdx,4), %rdx
	cmpl	$0, (%rdx)
	jne	.LBB1_58
	.p2align	4, 0x90
.LBB1_57:                               # %while.body282
                                        #   Parent Loop BB1_55 Depth=1
                                        # =>  This Inner Loop Header: Depth=2
	incl	%ecx
	addq	$4, %rdx
	cmpl	$0, (%rdx)
	je	.LBB1_57
	jmp	.LBB1_58
.LBB1_59:                               # %for.end294
	cmpl	$256, %ecx              # imm = 0x100
	jl	.LBB1_61
# BB#60:                                # %if.then297
	movl	$1005, %edi             # imm = 0x3ED
	callq	BZ2_bz__AssertH__fail
.LBB1_61:                               # %if.end298
	addq	$2088, %rsp             # imm = 0x828
	popq	%rbx
	popq	%r12
	popq	%r13
	popq	%r14
	popq	%r15
	popq	%rbp
	retq
.Lfunc_end1:
	.size	fallbackSort, .Lfunc_end1-fallbackSort
	.cfi_endproc

	.p2align	4, 0x90
	.type	mainSort,@function
mainSort:                               # @mainSort
	.cfi_startproc
# BB#0:                                 # %entry
	pushq	%rbp
.Lcfi16:
	.cfi_def_cfa_offset 16
.Lcfi17:
	.cfi_offset %rbp, -16
	movq	%rsp, %rbp
.Lcfi18:
	.cfi_def_cfa_register %rbp
	pushq	%r15
	pushq	%r14
	pushq	%r13
	pushq	%r12
	pushq	%rbx
	subq	$3416, %rsp             # imm = 0xD58
.Lcfi19:
	.cfi_offset %rbx, -56
.Lcfi20:
	.cfi_offset %r12, -48
.Lcfi21:
	.cfi_offset %r13, -40
.Lcfi22:
	.cfi_offset %r14, -32
.Lcfi23:
	.cfi_offset %r15, -24
	movl	%r8d, %ebx
	movq	%rcx, %r13
	movq	%rdx, %r11
	movq	%rsi, -48(%rbp)         # 8-byte Spill
	movq	%rdi, -72(%rbp)         # 8-byte Spill
	movl	%ebx, %eax
	movq	%rax, -120(%rbp)        # 8-byte Spill
	movl	%r9d, -76(%rbp)         # 4-byte Spill
	cmpl	$4, %r9d
	movq	%r11, -56(%rbp)         # 8-byte Spill
	jl	.LBB2_2
# BB#1:                                 # %if.then
	movq	stderr(%rip), %rdi
	movl	$.L.str.52, %esi
	xorl	%eax, %eax
	callq	fprintf
	movq	-56(%rbp), %r11         # 8-byte Reload
.LBB2_2:                                # %for.cond.preheader
	movl	$65536, %eax            # imm = 0x10000
	movq	-48(%rbp), %r9          # 8-byte Reload
	testl	%eax, %eax
	js	.LBB2_5
	.p2align	4, 0x90
.LBB2_4:                                # %for.body
                                        # =>This Inner Loop Header: Depth=1
	movl	$0, (%r13,%rax,4)
	decq	%rax
	testl	%eax, %eax
	jns	.LBB2_4
.LBB2_5:                                # %for.end
	movzbl	(%r9), %ecx
	shll	$8, %ecx
	movslq	%ebx, %rax
	leal	-4(%rbx), %r10d
	leal	-3(%rbx), %edx
	movq	%rdx, -64(%rbp)         # 8-byte Spill
	movq	%rbx, -112(%rbp)        # 8-byte Spill
	leal	-2(%rbx), %r12d
	leaq	-1(%r9,%rax), %r15
	leaq	-2(%r11,%rax,2), %rdx
	leaq	-1(%rax), %r14
	movl	%r14d, %esi
	xorl	%eax, %eax
	movq	-120(%rbp), %rbx        # 8-byte Reload
	jmp	.LBB2_6
	.p2align	4, 0x90
.LBB2_83:                               # %for.body6
                                        #   in Loop: Header=BB2_6 Depth=1
	movw	$0, (%rdx,%rax,2)
	sarl	$8, %ecx
	movzbl	(%r15,%rax), %edi
	shll	$8, %edi
	orl	%ecx, %edi
	movslq	%edi, %rcx
	incl	(%r13,%rcx,4)
	leal	(%r12,%rax), %edi
	movslq	%edi, %rdi
	movw	$0, (%r11,%rdi,2)
	sarl	$8, %ecx
	movzbl	(%r9,%rdi), %edi
	shll	$8, %edi
	orl	%ecx, %edi
	movslq	%edi, %rcx
	incl	(%r13,%rcx,4)
	movq	-64(%rbp), %rdi         # 8-byte Reload
	leal	(%rdi,%rax), %edi
	movslq	%edi, %rdi
	movw	$0, (%r11,%rdi,2)
	sarl	$8, %ecx
	movzbl	(%r9,%rdi), %edi
	shll	$8, %edi
	orl	%ecx, %edi
	movslq	%edi, %rdi
	incl	(%r13,%rdi,4)
	leal	(%r10,%rax), %ecx
	movslq	%ecx, %rcx
	movw	$0, (%r11,%rcx,2)
	sarl	$8, %edi
	movzbl	(%r9,%rcx), %ecx
	shll	$8, %ecx
	orl	%edi, %ecx
	movslq	%ecx, %rdi
	incl	(%r13,%rdi,4)
	addq	$-4, %rax
.LBB2_6:                                # %for.cond3
                                        # =>This Inner Loop Header: Depth=1
	leal	(%rsi,%rax), %edi
	cmpl	$2, %edi
	jg	.LBB2_83
# BB#7:                                 # %for.cond61.preheader
	addq	%r14, %rax
	testl	%eax, %eax
	js	.LBB2_9
	.p2align	4, 0x90
.LBB2_84:                               # %for.body64
                                        # =>This Inner Loop Header: Depth=1
	movw	$0, (%r11,%rax,2)
	sarl	$8, %ecx
	movzbl	(%r9,%rax), %edx
	shll	$8, %edx
	orl	%edx, %ecx
	movslq	%ecx, %rdx
	incl	(%r13,%rdx,4)
	decq	%rax
	testl	%eax, %eax
	jns	.LBB2_84
.LBB2_9:                                # %for.cond80.preheader
	xorl	%eax, %eax
	cmpl	$33, %eax
	jg	.LBB2_12
	.p2align	4, 0x90
.LBB2_11:                               # %for.body83
                                        # =>This Inner Loop Header: Depth=1
	movzbl	(%r9,%rax), %ecx
	leal	(%rbx,%rax), %edx
	movslq	%edx, %rdx
	movb	%cl, (%r9,%rdx)
	movw	$0, (%r11,%rdx,2)
	incq	%rax
	cmpl	$33, %eax
	jle	.LBB2_11
.LBB2_12:                               # %for.end93
	cmpl	$4, -76(%rbp)           # 4-byte Folded Reload
	jl	.LBB2_14
# BB#13:                                # %if.then96
	movq	stderr(%rip), %rdi
	movl	$.L.str.48, %esi
	xorl	%eax, %eax
	movq	%r10, %rbx
	callq	fprintf
	movq	%rbx, %r10
	movq	-48(%rbp), %r9          # 8-byte Reload
	movq	-56(%rbp), %r11         # 8-byte Reload
.LBB2_14:                               # %for.cond99.preheader
	movl	$1, %eax
	cmpl	$65536, %eax            # imm = 0x10000
	jg	.LBB2_17
	.p2align	4, 0x90
.LBB2_16:                               # %for.body102
                                        # =>This Inner Loop Header: Depth=1
	movl	-4(%r13,%rax,4), %ecx
	addl	%ecx, (%r13,%rax,4)
	incq	%rax
	cmpl	$65536, %eax            # imm = 0x10000
	jle	.LBB2_16
.LBB2_17:                               # %for.end111
	movzbl	(%r9), %esi
	shll	$8, %esi
	movl	%r14d, %r8d
	xorl	%eax, %eax
	jmp	.LBB2_18
	.p2align	4, 0x90
.LBB2_85:                               # %for.body120
                                        #   in Loop: Header=BB2_18 Depth=1
	movzwl	%si, %esi
	shrl	$8, %esi
	movzbl	(%r15,%rax), %edi
	shll	$8, %edi
	orl	%esi, %edi
	movl	(%r13,%rdi,4), %esi
	decl	%esi
	movl	%esi, (%r13,%rdi,4)
	movslq	%esi, %rsi
	movq	-72(%rbp), %rbx         # 8-byte Reload
	movl	%edx, (%rbx,%rsi,4)
	shrl	$8, %edi
	leal	(%r12,%rax), %esi
	movslq	%esi, %rsi
	movzbl	(%r9,%rsi), %esi
	shll	$8, %esi
	orl	%edi, %esi
	movl	(%r13,%rsi,4), %edi
	decl	%edi
	movl	%edi, (%r13,%rsi,4)
	movslq	%edi, %rdi
	leal	-1(%rdx), %ecx
	movl	%ecx, (%rbx,%rdi,4)
	shrl	$8, %esi
	movq	-64(%rbp), %rcx         # 8-byte Reload
	leal	(%rcx,%rax), %ecx
	movslq	%ecx, %rcx
	movzbl	(%r9,%rcx), %ecx
	shll	$8, %ecx
	orl	%esi, %ecx
	movl	(%r13,%rcx,4), %esi
	decl	%esi
	movl	%esi, (%r13,%rcx,4)
	movslq	%esi, %rsi
	leal	-2(%rdx), %edi
	movl	%edi, (%rbx,%rsi,4)
	shrl	$8, %ecx
	leal	(%r10,%rax), %esi
	movslq	%esi, %rsi
	movzbl	(%r9,%rsi), %esi
	shll	$8, %esi
	orl	%ecx, %esi
	movl	(%r13,%rsi,4), %ecx
	decl	%ecx
	movl	%ecx, (%r13,%rsi,4)
	movslq	%ecx, %rcx
	addl	$-3, %edx
	movl	%edx, (%rbx,%rcx,4)
	addq	$-4, %rax
.LBB2_18:                               # %for.cond117
                                        # =>This Inner Loop Header: Depth=1
	leaq	(%r8,%rax), %rdx
	cmpl	$2, %edx
	jg	.LBB2_85
# BB#19:                                # %for.cond190.preheader
	addq	%rax, %r14
	movq	-72(%rbp), %rcx         # 8-byte Reload
	testl	%r14d, %r14d
	js	.LBB2_21
	.p2align	4, 0x90
.LBB2_86:                               # %for.body193
                                        # =>This Inner Loop Header: Depth=1
	movzwl	%si, %eax
	shrl	$8, %eax
	movzbl	(%r9,%r14), %esi
	shll	$8, %esi
	orl	%eax, %esi
	movl	(%r13,%rsi,4), %eax
	decl	%eax
	movl	%eax, (%r13,%rsi,4)
	cltq
	movl	%r14d, (%rcx,%rax,4)
	decq	%r14
	testl	%r14d, %r14d
	jns	.LBB2_86
.LBB2_21:                               # %for.cond212.preheader
	xorl	%eax, %eax
	cmpl	$256, %eax              # imm = 0x100
	jge	.LBB2_23
	.p2align	4, 0x90
.LBB2_87:                               # %for.body215
                                        # =>This Inner Loop Header: Depth=1
	movb	$0, -384(%rbp,%rax)
	movl	%eax, -1408(%rbp,%rax,4)
	incq	%rax
	cmpl	$256, %eax              # imm = 0x100
	jl	.LBB2_87
.LBB2_23:                               # %do.body.preheader
	movl	$1, %eax
	.p2align	4, 0x90
.LBB2_24:                               # %do.body
                                        # =>This Inner Loop Header: Depth=1
	leal	1(%rax,%rax,2), %eax
	cmpl	$257, %eax              # imm = 0x101
	jl	.LBB2_24
	.p2align	4, 0x90
.LBB2_25:                               # %do.body226
                                        # =>This Loop Header: Depth=1
                                        #     Child Loop BB2_27 Depth 2
                                        #       Child Loop BB2_28 Depth 3
	cltq
	imulq	$1431655766, %rax, %rax # imm = 0x55555556
	movq	%rax, %rcx
	shrq	$63, %rcx
	shrq	$32, %rax
	addl	%ecx, %eax
	xorl	%r8d, %r8d
	movl	%eax, %r9d
	cmpl	$255, %r9d
	jle	.LBB2_27
	jmp	.LBB2_32
	.p2align	4, 0x90
.LBB2_30:                               # %zerosplit
                                        #   in Loop: Header=BB2_27 Depth=2
	addl	%eax, %edi
	movl	%edi, %ecx
.LBB2_31:                               # %zero
                                        #   in Loop: Header=BB2_27 Depth=2
	movslq	%ecx, %rcx
	movl	%r10d, -1408(%rbp,%rcx,4)
	incl	%r9d
	incl	%r8d
	cmpl	$255, %r9d
	jg	.LBB2_32
.LBB2_27:                               # %for.body230
                                        #   Parent Loop BB2_25 Depth=1
                                        # =>  This Loop Header: Depth=2
                                        #       Child Loop BB2_28 Depth 3
	movslq	%r9d, %rcx
	movl	-1408(%rbp,%rcx,4), %r10d
	movl	%r8d, %edi
	.p2align	4, 0x90
.LBB2_28:                               # %while.cond
                                        #   Parent Loop BB2_25 Depth=1
                                        #     Parent Loop BB2_27 Depth=2
                                        # =>    This Inner Loop Header: Depth=3
	leal	(%rax,%rdi), %ecx
	movslq	%edi, %rdx
	movl	-1408(%rbp,%rdx,4), %edi
	shll	$8, %edi
	leal	256(%rdi), %ebx
	movslq	%ebx, %rbx
	movl	(%r13,%rbx,4), %ebx
	movslq	%edi, %rdi
	subl	(%r13,%rdi,4), %ebx
	movl	%r10d, %edi
	shll	$8, %edi
	leal	256(%rdi), %esi
	movslq	%esi, %rsi
	movl	(%r13,%rsi,4), %esi
	movslq	%edi, %rdi
	subl	(%r13,%rdi,4), %esi
	cmpl	%esi, %ebx
	jbe	.LBB2_31
# BB#29:                                # %while.body
                                        #   in Loop: Header=BB2_28 Depth=3
	movl	-1408(%rbp,%rdx,4), %esi
	movslq	%ecx, %rcx
	movl	%esi, -1408(%rbp,%rcx,4)
	leal	-1(%rax), %ecx
	movl	%edx, %edi
	subl	%eax, %edi
	cmpl	%ecx, %edx
	jg	.LBB2_28
	jmp	.LBB2_30
	.p2align	4, 0x90
.LBB2_32:                               # %do.cond273
                                        #   in Loop: Header=BB2_25 Depth=1
	cmpl	$1, %eax
	jne	.LBB2_25
# BB#33:                                # %for.cond277.preheader
	movl	$-2097153, %r10d        # imm = 0xFFDFFFFF
	xorl	%r12d, %r12d
	xorl	%eax, %eax
	movq	%rax, -64(%rbp)         # 8-byte Spill
	movq	-48(%rbp), %rsi         # 8-byte Reload
	cmpl	$255, %r12d
	jle	.LBB2_35
	jmp	.LBB2_80
	.p2align	4, 0x90
.LBB2_79:                               # %for.inc506
                                        #   in Loop: Header=BB2_35 Depth=1
	incl	%r12d
	cmpl	$255, %r12d
	jg	.LBB2_80
.LBB2_35:                               # %for.body280
                                        # =>This Loop Header: Depth=1
                                        #     Child Loop BB2_37 Depth 2
                                        #     Child Loop BB2_51 Depth 2
                                        #     Child Loop BB2_54 Depth 2
                                        #     Child Loop BB2_59 Depth 2
                                        #     Child Loop BB2_68 Depth 2
                                        #     Child Loop BB2_71 Depth 2
                                        #     Child Loop BB2_74 Depth 2
	movl	%r12d, -100(%rbp)       # 4-byte Spill
	movslq	%r12d, %rax
	movl	-1408(%rbp,%rax,4), %r12d
	movslq	%r12d, %r9
	movl	%r9d, %ecx
	shll	$8, %ecx
	xorl	%r15d, %r15d
	movq	-72(%rbp), %rdi         # 8-byte Reload
	movq	%r9, -96(%rbp)          # 8-byte Spill
	movq	%rcx, -128(%rbp)        # 8-byte Spill
	cmpl	$255, %r15d
	jle	.LBB2_37
	jmp	.LBB2_47
	.p2align	4, 0x90
.LBB2_46:                               # %for.inc326
                                        #   in Loop: Header=BB2_37 Depth=2
	incl	%r15d
	cmpl	$255, %r15d
	jg	.LBB2_47
.LBB2_37:                               # %for.body286
                                        #   Parent Loop BB2_35 Depth=1
                                        # =>  This Inner Loop Header: Depth=2
	cmpl	%r15d, %r12d
	je	.LBB2_46
# BB#38:                                # %if.then289
                                        #   in Loop: Header=BB2_37 Depth=2
	leal	(%rcx,%r15), %eax
	movslq	%eax, %rbx
	testb	$32, 2(%r13,%rbx,4)
	jne	.LBB2_45
# BB#39:                                # %if.then294
                                        #   in Loop: Header=BB2_37 Depth=2
	movl	(%r13,%rbx,4), %r8d
	andl	%r10d, %r8d
	leal	1(%rcx,%r15), %eax
	cltq
	movl	(%r13,%rax,4), %r14d
	andl	%r10d, %r14d
	decl	%r14d
	movl	%r14d, %eax
	subl	%r8d, %eax
	jle	.LBB2_44
# BB#40:                                # %if.then305
                                        #   in Loop: Header=BB2_37 Depth=2
	movq	%rax, -88(%rbp)         # 8-byte Spill
	cmpl	$4, -76(%rbp)           # 4-byte Folded Reload
	jl	.LBB2_42
# BB#41:                                # %if.then308
                                        #   in Loop: Header=BB2_37 Depth=2
	movq	stderr(%rip), %rdi
	movq	-88(%rbp), %rax         # 8-byte Reload
	leal	1(%rax), %r9d
	movl	$.L.str.53, %esi
	xorl	%eax, %eax
	movl	%r12d, %edx
	movl	%r15d, %ecx
	movl	%r8d, -104(%rbp)        # 4-byte Spill
	movq	-64(%rbp), %r8          # 8-byte Reload
                                        # kill: %R8D<def> %R8D<kill> %R8<kill>
	callq	fprintf
	movl	-104(%rbp), %r8d        # 4-byte Reload
	movq	-72(%rbp), %rdi         # 8-byte Reload
	movq	-48(%rbp), %rsi         # 8-byte Reload
	movq	-56(%rbp), %r11         # 8-byte Reload
.LBB2_42:                               # %if.end312
                                        #   in Loop: Header=BB2_37 Depth=2
	movq	%r11, %rdx
	movq	-120(%rbp), %rcx        # 8-byte Reload
                                        # kill: %ECX<def> %ECX<kill> %RCX<kill>
	movl	%r14d, %r9d
	movq	16(%rbp), %rax
	movq	%rax, %r14
	pushq	%r14
	pushq	$2
	callq	mainQSort3
	addq	$16, %rsp
	cmpl	$0, (%r14)
	js	.LBB2_82
# BB#43:                                #   in Loop: Header=BB2_37 Depth=2
	movq	-64(%rbp), %rax         # 8-byte Reload
	movq	-88(%rbp), %rcx         # 8-byte Reload
	leal	1(%rax,%rcx), %eax
	movq	%rax, -64(%rbp)         # 8-byte Spill
	movq	-56(%rbp), %r11         # 8-byte Reload
	movq	-48(%rbp), %rsi         # 8-byte Reload
	movq	-72(%rbp), %rdi         # 8-byte Reload
	movl	$-2097153, %r10d        # imm = 0xFFDFFFFF
	movq	-96(%rbp), %r9          # 8-byte Reload
.LBB2_44:                               # %if.end321
                                        #   in Loop: Header=BB2_37 Depth=2
	movq	-128(%rbp), %rcx        # 8-byte Reload
.LBB2_45:                               # %if.end321
                                        #   in Loop: Header=BB2_37 Depth=2
	orb	$32, 2(%r13,%rbx,4)
	jmp	.LBB2_46
	.p2align	4, 0x90
.LBB2_47:                               # %for.end328
                                        #   in Loop: Header=BB2_35 Depth=1
	movq	%rcx, %r15
	cmpb	$0, -384(%rbp,%r9)
	movq	-112(%rbp), %r14        # 8-byte Reload
	je	.LBB2_49
# BB#48:                                # %if.then332
                                        #   in Loop: Header=BB2_35 Depth=1
	movl	$1006, %edi             # imm = 0x3EE
	callq	BZ2_bz__AssertH__fail
	movq	-96(%rbp), %r9          # 8-byte Reload
	movl	$-2097153, %r10d        # imm = 0xFFDFFFFF
	movq	-72(%rbp), %rdi         # 8-byte Reload
	movq	-48(%rbp), %rsi         # 8-byte Reload
	movq	-56(%rbp), %r11         # 8-byte Reload
.LBB2_49:                               # %for.cond334.preheader
                                        #   in Loop: Header=BB2_35 Depth=1
	movl	%r12d, %eax
	xorl	%ecx, %ecx
	cmpl	$255, %ecx
	jg	.LBB2_52
	.p2align	4, 0x90
.LBB2_51:                               # %for.body337
                                        #   Parent Loop BB2_35 Depth=1
                                        # =>  This Inner Loop Header: Depth=2
	cltq
	movl	(%r13,%rax,4), %edx
	andl	%r10d, %edx
	movl	%edx, -3456(%rbp,%rcx,4)
	leal	1(%rax), %edx
	movslq	%edx, %rdx
	movl	(%r13,%rdx,4), %edx
	andl	%r10d, %edx
	decl	%edx
	movl	%edx, -2432(%rbp,%rcx,4)
	incq	%rcx
	addl	$256, %eax              # imm = 0x100
	cmpl	$255, %ecx
	jle	.LBB2_51
.LBB2_52:                               # %for.end356
                                        #   in Loop: Header=BB2_35 Depth=1
	movslq	%r15d, %rax
	movq	%rax, -88(%rbp)         # 8-byte Spill
	movslq	(%r13,%rax,4), %rax
	andq	$-2097153, %rax         # imm = 0xFFDFFFFF
	cmpl	-3456(%rbp,%r9,4), %eax
	jl	.LBB2_54
	jmp	.LBB2_57
	.p2align	4, 0x90
.LBB2_56:                               # %for.inc387
                                        #   in Loop: Header=BB2_54 Depth=2
	incq	%rax
	cmpl	-3456(%rbp,%r9,4), %eax
	jge	.LBB2_57
.LBB2_54:                               # %for.body366
                                        #   Parent Loop BB2_35 Depth=1
                                        # =>  This Inner Loop Header: Depth=2
	movl	(%rdi,%rax,4), %edx
	leal	-1(%rdx,%r14), %ecx
                                        # kill: %EDX<def> %EDX<kill> %RDX<kill>
	decl	%edx
	cmovnsl	%edx, %ecx
	movslq	%ecx, %rdx
	movzbl	(%rsi,%rdx), %edx
	cmpb	$0, -384(%rbp,%rdx)
	jne	.LBB2_56
# BB#55:                                # %if.then380
                                        #   in Loop: Header=BB2_54 Depth=2
	movslq	-3456(%rbp,%rdx,4), %r8
	leal	1(%r8), %ebx
	movl	%ebx, -3456(%rbp,%rdx,4)
	movl	%ecx, (%rdi,%r8,4)
	jmp	.LBB2_56
	.p2align	4, 0x90
.LBB2_57:                               # %for.end389
                                        #   in Loop: Header=BB2_35 Depth=1
	addl	$256, %r15d             # imm = 0x100
	movslq	%r15d, %r15
	movl	(%r13,%r15,4), %eax
	andl	%r10d, %eax
	decl	%eax
	cltq
	cmpl	-2432(%rbp,%r9,4), %eax
	jg	.LBB2_59
	jmp	.LBB2_62
	.p2align	4, 0x90
.LBB2_61:                               # %for.inc422
                                        #   in Loop: Header=BB2_59 Depth=2
	decq	%rax
	cmpl	-2432(%rbp,%r9,4), %eax
	jle	.LBB2_62
.LBB2_59:                               # %for.body401
                                        #   Parent Loop BB2_35 Depth=1
                                        # =>  This Inner Loop Header: Depth=2
	movl	(%rdi,%rax,4), %edx
	leal	-1(%rdx,%r14), %ecx
                                        # kill: %EDX<def> %EDX<kill> %RDX<kill>
	decl	%edx
	cmovnsl	%edx, %ecx
	movslq	%ecx, %rdx
	movzbl	(%rsi,%rdx), %edx
	cmpb	$0, -384(%rbp,%rdx)
	jne	.LBB2_61
# BB#60:                                # %if.then415
                                        #   in Loop: Header=BB2_59 Depth=2
	movslq	-2432(%rbp,%rdx,4), %r8
	leal	-1(%r8), %ebx
	movl	%ebx, -2432(%rbp,%rdx,4)
	movl	%ecx, (%rdi,%r8,4)
	jmp	.LBB2_61
	.p2align	4, 0x90
.LBB2_62:                               # %for.end424
                                        #   in Loop: Header=BB2_35 Depth=1
	movl	-3456(%rbp,%r9,4), %eax
	decl	%eax
	cmpl	-2432(%rbp,%r9,4), %eax
	je	.LBB2_66
# BB#63:                                # %lor.lhs.false
                                        #   in Loop: Header=BB2_35 Depth=1
	cmpl	$0, -3456(%rbp,%r9,4)
	jne	.LBB2_65
# BB#64:                                # %land.lhs.true
                                        #   in Loop: Header=BB2_35 Depth=1
	leal	-1(%r14), %eax
	cmpl	%eax, -2432(%rbp,%r9,4)
	je	.LBB2_66
.LBB2_65:                               # %if.then441
                                        #   in Loop: Header=BB2_35 Depth=1
	movl	$1007, %edi             # imm = 0x3EF
	callq	BZ2_bz__AssertH__fail
	movq	-96(%rbp), %r9          # 8-byte Reload
	movl	$-2097153, %r10d        # imm = 0xFFDFFFFF
	movq	-48(%rbp), %rsi         # 8-byte Reload
	movq	-56(%rbp), %r11         # 8-byte Reload
.LBB2_66:                               # %for.cond443.preheader
                                        #   in Loop: Header=BB2_35 Depth=1
	xorl	%eax, %eax
	cmpl	$255, %eax
	jg	.LBB2_69
	.p2align	4, 0x90
.LBB2_68:                               # %for.body446
                                        #   Parent Loop BB2_35 Depth=1
                                        # =>  This Inner Loop Header: Depth=2
	movslq	%r12d, %r12
	orb	$32, 2(%r13,%r12,4)
	incl	%eax
	addl	$256, %r12d             # imm = 0x100
	cmpl	$255, %eax
	jle	.LBB2_68
.LBB2_69:                               # %for.end454
                                        #   in Loop: Header=BB2_35 Depth=1
	movb	$1, -384(%rbp,%r9)
	movl	-100(%rbp), %r12d       # 4-byte Reload
	cmpl	$254, %r12d
	jg	.LBB2_79
# BB#70:                                # %if.then459
                                        #   in Loop: Header=BB2_35 Depth=1
	movq	-88(%rbp), %rax         # 8-byte Reload
	movl	(%r13,%rax,4), %r8d
	andl	%r10d, %r8d
	movl	(%r13,%r15,4), %eax
	andl	%r10d, %eax
	movl	%eax, %r9d
	subl	%r8d, %r9d
	xorl	%ecx, %ecx
	jmp	.LBB2_71
	.p2align	4, 0x90
.LBB2_72:                               # %while.body474
                                        #   in Loop: Header=BB2_71 Depth=2
	incl	%ecx
.LBB2_71:                               # %while.cond470
                                        #   Parent Loop BB2_35 Depth=1
                                        # =>  This Inner Loop Header: Depth=2
	movl	%r9d, %edx
	sarl	%cl, %edx
	cmpl	$65535, %edx            # imm = 0xFFFF
	jge	.LBB2_72
# BB#73:                                # %while.end476
                                        #   in Loop: Header=BB2_35 Depth=1
	negl	%r8d
	jmp	.LBB2_74
	.p2align	4, 0x90
.LBB2_76:                               # %if.then491
                                        #   in Loop: Header=BB2_74 Depth=2
	addl	%r14d, %edx
	movslq	%edx, %rdx
	movw	%di, (%r11,%rdx,2)
.LBB2_74:                               # %for.cond478
                                        #   Parent Loop BB2_35 Depth=1
                                        # =>  This Inner Loop Header: Depth=2
	decl	%eax
	movl	%r8d, %edi
	addl	%eax, %edi
	js	.LBB2_77
# BB#75:                                # %for.body481
                                        #   in Loop: Header=BB2_74 Depth=2
	movslq	%eax, %rdx
	movq	-72(%rbp), %rbx         # 8-byte Reload
	movslq	(%rbx,%rdx,4), %rdx
	sarl	%cl, %edi
	cmpq	$33, %rdx
	movw	%di, (%r11,%rdx,2)
	jg	.LBB2_74
	jmp	.LBB2_76
	.p2align	4, 0x90
.LBB2_77:                               # %for.end498
                                        #   in Loop: Header=BB2_35 Depth=1
	decl	%r9d
                                        # kill: %CL<def> %CL<kill> %ECX<kill>
	sarl	%cl, %r9d
	cmpl	$65536, %r9d            # imm = 0x10000
	jl	.LBB2_79
# BB#78:                                # %if.then503
                                        #   in Loop: Header=BB2_35 Depth=1
	movl	$1002, %edi             # imm = 0x3EA
	callq	BZ2_bz__AssertH__fail
	movl	$-2097153, %r10d        # imm = 0xFFDFFFFF
	movq	-48(%rbp), %rsi         # 8-byte Reload
	movq	-56(%rbp), %r11         # 8-byte Reload
	jmp	.LBB2_79
.LBB2_80:                               # %for.end508
	cmpl	$4, -76(%rbp)           # 4-byte Folded Reload
	jl	.LBB2_82
# BB#81:                                # %if.then511
	movq	stderr(%rip), %rdi
	movq	-112(%rbp), %rdx        # 8-byte Reload
	movl	%edx, %r8d
	movq	-64(%rbp), %rcx         # 8-byte Reload
	subl	%ecx, %r8d
	movl	$.L.str.54, %esi
	xorl	%eax, %eax
                                        # kill: %EDX<def> %EDX<kill> %RDX<kill>
                                        # kill: %ECX<def> %ECX<kill> %RCX<kill>
	callq	fprintf
.LBB2_82:                               # %if.end514
	addq	$3416, %rsp             # imm = 0xD58
	popq	%rbx
	popq	%r12
	popq	%r13
	popq	%r14
	popq	%r15
	popq	%rbp
	retq
.Lfunc_end2:
	.size	mainSort, .Lfunc_end2-mainSort
	.cfi_endproc

	.globl	BZ2_bz__AssertH__fail
	.p2align	4, 0x90
	.type	BZ2_bz__AssertH__fail,@function
BZ2_bz__AssertH__fail:                  # @BZ2_bz__AssertH__fail
	.cfi_startproc
# BB#0:                                 # %entry
	pushq	%rbp
.Lcfi24:
	.cfi_def_cfa_offset 16
.Lcfi25:
	.cfi_offset %rbp, -16
	movq	%rsp, %rbp
.Lcfi26:
	.cfi_def_cfa_register %rbp
	pushq	%r14
	pushq	%rbx
.Lcfi27:
	.cfi_offset %rbx, -32
.Lcfi28:
	.cfi_offset %r14, -24
	movl	%edi, %ebx
	movq	stderr(%rip), %r14
	callq	BZ2_bzlibVersion
	movq	%rax, %rcx
	movl	$.L.str.6, %esi
	xorl	%eax, %eax
	movq	%r14, %rdi
	movl	%ebx, %edx
	callq	fprintf
	cmpl	$1007, %ebx             # imm = 0x3EF
	jne	.LBB3_2
# BB#1:                                 # %if.then
	movq	stderr(%rip), %rdi
	movl	$.L.str.7, %esi
	xorl	%eax, %eax
	callq	fprintf
.LBB3_2:                                # %if.end
	movl	$3, %edi
	callq	exit
.Lfunc_end3:
	.size	BZ2_bz__AssertH__fail, .Lfunc_end3-BZ2_bz__AssertH__fail
	.cfi_endproc

	.globl	BZ2_hbMakeCodeLengths
	.p2align	4, 0x90
	.type	BZ2_hbMakeCodeLengths,@function
BZ2_hbMakeCodeLengths:                  # @BZ2_hbMakeCodeLengths
	.cfi_startproc
# BB#0:                                 # %entry
	pushq	%rbp
.Lcfi29:
	.cfi_def_cfa_offset 16
.Lcfi30:
	.cfi_offset %rbp, -16
	movq	%rsp, %rbp
.Lcfi31:
	.cfi_def_cfa_register %rbp
	pushq	%r15
	pushq	%r14
	pushq	%r13
	pushq	%r12
	pushq	%rbx
	subq	$5176, %rsp             # imm = 0x1438
.Lcfi32:
	.cfi_offset %rbx, -56
.Lcfi33:
	.cfi_offset %r12, -48
.Lcfi34:
	.cfi_offset %r13, -40
.Lcfi35:
	.cfi_offset %r14, -32
.Lcfi36:
	.cfi_offset %r15, -24
	movl	%edx, %r13d
	movq	%rdi, %r15
	xorl	%eax, %eax
	cmpl	%r13d, %eax
	jl	.LBB4_8
	jmp	.LBB4_2
	.p2align	4, 0x90
.LBB4_11:                               # %cond.end
                                        #   in Loop: Header=BB4_8 Depth=1
	shll	$8, %edi
	incq	%rax
	movslq	%eax, %rdx
	movl	%edi, -3152(%rbp,%rdx,4)
	cmpl	%r13d, %eax
	jge	.LBB4_2
.LBB4_8:                                # %for.body
                                        # =>This Inner Loop Header: Depth=1
	cmpl	$0, (%rsi,%rax,4)
	je	.LBB4_9
# BB#10:                                # %cond.false
                                        #   in Loop: Header=BB4_8 Depth=1
	movl	(%rsi,%rax,4), %edi
	jmp	.LBB4_11
	.p2align	4, 0x90
.LBB4_9:                                #   in Loop: Header=BB4_8 Depth=1
	movl	$1, %edi
	jmp	.LBB4_11
.LBB4_2:
	movl	$-256, %r12d
	movl	%ecx, -44(%rbp)         # 4-byte Spill
	jmp	.LBB4_3
	.p2align	4, 0x90
.LBB4_44:                               # %for.cond228.preheader
                                        #   in Loop: Header=BB4_3 Depth=1
	movl	$1, %eax
	cmpl	%r13d, %eax
	jge	.LBB4_3
	.p2align	4, 0x90
.LBB4_46:                               # %for.body231
                                        #   Parent Loop BB4_3 Depth=1
                                        # =>  This Inner Loop Header: Depth=2
	movl	-3152(%rbp,%rax,4), %esi
	movl	%esi, %edx
	sarl	$8, %edx
	shrl	$31, %esi
	addl	%edx, %esi
	andl	$-2, %esi
	shll	$7, %esi
	addl	$256, %esi              # imm = 0x100
	movl	%esi, -3152(%rbp,%rax,4)
	incq	%rax
	cmpl	%r13d, %eax
	jl	.LBB4_46
.LBB4_3:                                # %while.body
                                        # =>This Loop Header: Depth=1
                                        #     Child Loop BB4_5 Depth 2
                                        #       Child Loop BB4_6 Depth 3
                                        #     Child Loop BB4_17 Depth 2
                                        #       Child Loop BB4_18 Depth 3
                                        #       Child Loop BB4_24 Depth 3
                                        #       Child Loop BB4_30 Depth 3
                                        #     Child Loop BB4_37 Depth 2
                                        #       Child Loop BB4_38 Depth 3
                                        #     Child Loop BB4_46 Depth 2
	movl	$0, -1088(%rbp)
	movl	$0, -3152(%rbp)
	movl	$-2, -5216(%rbp)
	xorl	%r14d, %r14d
	movl	$1, %r8d
	cmpl	%r13d, %r8d
	jle	.LBB4_5
	jmp	.LBB4_13
	.p2align	4, 0x90
.LBB4_12:                               # %while.end
                                        #   in Loop: Header=BB4_5 Depth=2
	movslq	%edx, %rax
	movl	%r8d, -1088(%rbp,%rax,4)
	incl	%r8d
	cmpl	%r13d, %r8d
	jg	.LBB4_13
.LBB4_5:                                # %for.body11
                                        #   Parent Loop BB4_3 Depth=1
                                        # =>  This Loop Header: Depth=2
                                        #       Child Loop BB4_6 Depth 3
	movslq	%r8d, %r9
	movl	$-1, -5216(%rbp,%r9,4)
	movslq	%r14d, %rdx
	incl	%r14d
	movl	%r8d, -1084(%rbp,%rdx,4)
	movl	%r14d, %edx
	jmp	.LBB4_6
	.p2align	4, 0x90
.LBB4_7:                                # %while.body27
                                        #   in Loop: Header=BB4_6 Depth=3
	movl	-1088(%rbp,%rdi,4), %eax
	movslq	%edx, %rdx
	movl	%eax, -1088(%rbp,%rdx,4)
	movl	%esi, %edx
.LBB4_6:                                # %while.cond19
                                        #   Parent Loop BB4_3 Depth=1
                                        #     Parent Loop BB4_5 Depth=2
                                        # =>    This Inner Loop Header: Depth=3
	movl	-3152(%rbp,%r9,4), %eax
	movl	%edx, %esi
	sarl	%esi
	movslq	%esi, %rdi
	movslq	-1088(%rbp,%rdi,4), %rbx
	cmpl	-3152(%rbp,%rbx,4), %eax
	jl	.LBB4_7
	jmp	.LBB4_12
	.p2align	4, 0x90
.LBB4_13:                               # %for.end38
                                        #   in Loop: Header=BB4_3 Depth=1
	cmpl	$260, %r14d             # imm = 0x104
	jl	.LBB4_15
# BB#14:                                # %if.then
                                        #   in Loop: Header=BB4_3 Depth=1
	movl	$2001, %edi             # imm = 0x7D1
	callq	BZ2_bz__AssertH__fail
.LBB4_15:                               # %while.cond40.preheader
                                        #   in Loop: Header=BB4_3 Depth=1
	movl	%r13d, %r9d
	cmpl	$2, %r14d
	jge	.LBB4_17
	jmp	.LBB4_33
	.p2align	4, 0x90
.LBB4_32:                               # %while.end198
                                        #   in Loop: Header=BB4_17 Depth=2
	movslq	%ecx, %rax
	movl	%r9d, -1088(%rbp,%rax,4)
	cmpl	$2, %r14d
	jl	.LBB4_33
.LBB4_17:                               # %while.body42
                                        #   Parent Loop BB4_3 Depth=1
                                        # =>  This Loop Header: Depth=2
                                        #       Child Loop BB4_18 Depth 3
                                        #       Child Loop BB4_24 Depth 3
                                        #       Child Loop BB4_30 Depth 3
	movslq	-1084(%rbp), %r8
	movslq	%r14d, %rax
	movl	-1088(%rbp,%rax,4), %r10d
	movl	%r10d, -1084(%rbp)
	decl	%r14d
	movslq	%r10d, %rsi
	movl	$1, %ecx
	jmp	.LBB4_18
	.p2align	4, 0x90
.LBB4_22:                               # %if.end82
                                        #   in Loop: Header=BB4_18 Depth=3
	movl	-1088(%rbp,%rax,4), %eax
	movslq	%ecx, %rcx
	movl	%eax, -1088(%rbp,%rcx,4)
	movl	%edi, %ecx
.LBB4_18:                               # %while.body55
                                        #   Parent Loop BB4_3 Depth=1
                                        #     Parent Loop BB4_17 Depth=2
                                        # =>    This Inner Loop Header: Depth=3
	leal	(%rcx,%rcx), %edi
	cmpl	%r14d, %edi
	jg	.LBB4_23
# BB#19:                                # %if.end59
                                        #   in Loop: Header=BB4_18 Depth=3
	jge	.LBB4_21
# BB#20:                                # %land.lhs.true
                                        #   in Loop: Header=BB4_18 Depth=3
	leal	1(%rdi), %eax
	movslq	%edi, %rbx
	movslq	-1084(%rbp,%rbx,4), %rdx
	movl	-3152(%rbp,%rdx,4), %edx
	movslq	-1088(%rbp,%rbx,4), %rbx
	cmpl	-3152(%rbp,%rbx,4), %edx
	cmovgel	%edi, %eax
	movl	%eax, %edi
.LBB4_21:                               # %if.end73
                                        #   in Loop: Header=BB4_18 Depth=3
	movl	-3152(%rbp,%rsi,4), %edx
	movslq	%edi, %rax
	movslq	-1088(%rbp,%rax,4), %rbx
	cmpl	-3152(%rbp,%rbx,4), %edx
	jge	.LBB4_22
.LBB4_23:                               # %while.end87
                                        #   in Loop: Header=BB4_17 Depth=2
	movslq	%ecx, %rax
	movl	%r10d, -1088(%rbp,%rax,4)
	movslq	-1084(%rbp), %r11
	movslq	%r14d, %rax
	movl	-1088(%rbp,%rax,4), %r10d
	movl	%r10d, -1084(%rbp)
	decl	%r14d
	movslq	%r10d, %rcx
	movl	$1, %eax
	jmp	.LBB4_24
	.p2align	4, 0x90
.LBB4_28:                               # %if.end132
                                        #   in Loop: Header=BB4_24 Depth=3
	movl	-1088(%rbp,%rsi,4), %edx
	cltq
	movl	%edx, -1088(%rbp,%rax,4)
	movl	%edi, %eax
.LBB4_24:                               # %while.body104
                                        #   Parent Loop BB4_3 Depth=1
                                        #     Parent Loop BB4_17 Depth=2
                                        # =>    This Inner Loop Header: Depth=3
	leal	(%rax,%rax), %edi
	cmpl	%r14d, %edi
	jg	.LBB4_29
# BB#25:                                # %if.end108
                                        #   in Loop: Header=BB4_24 Depth=3
	jge	.LBB4_27
# BB#26:                                # %land.lhs.true110
                                        #   in Loop: Header=BB4_24 Depth=3
	leal	1(%rdi), %esi
	movslq	%edi, %rbx
	movslq	-1084(%rbp,%rbx,4), %rdx
	movl	-3152(%rbp,%rdx,4), %edx
	movslq	-1088(%rbp,%rbx,4), %rbx
	cmpl	-3152(%rbp,%rbx,4), %edx
	cmovgel	%edi, %esi
	movl	%esi, %edi
.LBB4_27:                               # %if.end123
                                        #   in Loop: Header=BB4_24 Depth=3
	movl	-3152(%rbp,%rcx,4), %edx
	movslq	%edi, %rsi
	movslq	-1088(%rbp,%rsi,4), %rbx
	cmpl	-3152(%rbp,%rbx,4), %edx
	jge	.LBB4_28
.LBB4_29:                               # %while.end137
                                        #   in Loop: Header=BB4_17 Depth=2
	cltq
	movl	%r10d, -1088(%rbp,%rax,4)
	movslq	%r9d, %rax
	incl	%r9d
	movl	%r9d, -5216(%rbp,%r11,4)
	movl	%r9d, -5216(%rbp,%r8,4)
	movl	-3152(%rbp,%r8,4), %ecx
	andl	%r12d, %ecx
	movl	-3152(%rbp,%r11,4), %edx
	andl	%r12d, %edx
	addl	%ecx, %edx
	movzbl	-3152(%rbp,%r8,4), %ecx
	movzbl	-3152(%rbp,%r11,4), %esi
	cmpl	%esi, %ecx
	cmovgl	%r8d, %r11d
	movslq	%r11d, %rcx
	movzbl	-3152(%rbp,%rcx,4), %ecx
	incl	%ecx
	orl	%edx, %ecx
	movl	%ecx, -3148(%rbp,%rax,4)
	movl	$-1, -5212(%rbp,%rax,4)
	incq	%rax
	movslq	%r14d, %rcx
	incl	%r14d
	movl	%r9d, -1084(%rbp,%rcx,4)
	movl	%r14d, %ecx
	jmp	.LBB4_30
	.p2align	4, 0x90
.LBB4_31:                               # %while.body191
                                        #   in Loop: Header=BB4_30 Depth=3
	movl	-1088(%rbp,%rsi,4), %esi
	movslq	%ecx, %rcx
	movl	%esi, -1088(%rbp,%rcx,4)
	movl	%edx, %ecx
.LBB4_30:                               # %while.cond182
                                        #   Parent Loop BB4_3 Depth=1
                                        #     Parent Loop BB4_17 Depth=2
                                        # =>    This Inner Loop Header: Depth=3
	movl	-3152(%rbp,%rax,4), %edi
	movl	%ecx, %edx
	sarl	%edx
	movslq	%edx, %rsi
	movslq	-1088(%rbp,%rsi,4), %rbx
	cmpl	-3152(%rbp,%rbx,4), %edi
	jl	.LBB4_31
	jmp	.LBB4_32
	.p2align	4, 0x90
.LBB4_33:                               # %while.end201
                                        #   in Loop: Header=BB4_3 Depth=1
	cmpl	$516, %r9d              # imm = 0x204
	jl	.LBB4_35
# BB#34:                                # %if.then203
                                        #   in Loop: Header=BB4_3 Depth=1
	movl	$2002, %edi             # imm = 0x7D2
	callq	BZ2_bz__AssertH__fail
.LBB4_35:                               # %for.cond205.preheader
                                        #   in Loop: Header=BB4_3 Depth=1
	movl	$1, %eax
	xorl	%edi, %edi
	movl	-44(%rbp), %ecx         # 4-byte Reload
	cmpl	%r13d, %eax
	jle	.LBB4_37
	jmp	.LBB4_43
	.p2align	4, 0x90
.LBB4_42:                               # %while.end216
                                        #   in Loop: Header=BB4_37 Depth=2
	incl	%eax
	movb	%dl, %dil
	cmpl	%r13d, %eax
	jg	.LBB4_43
.LBB4_37:                               # %while.cond208.preheader
                                        #   Parent Loop BB4_3 Depth=1
                                        # =>  This Loop Header: Depth=2
                                        #       Child Loop BB4_38 Depth 3
	xorl	%edx, %edx
	movl	%eax, %esi
	jmp	.LBB4_38
	.p2align	4, 0x90
.LBB4_39:                               # %while.body212
                                        #   in Loop: Header=BB4_38 Depth=3
	movl	-5216(%rbp,%rsi,4), %esi
	incl	%edx
.LBB4_38:                               # %while.cond208
                                        #   Parent Loop BB4_3 Depth=1
                                        #     Parent Loop BB4_37 Depth=2
                                        # =>    This Inner Loop Header: Depth=3
	movslq	%esi, %rsi
	cmpl	$0, -5216(%rbp,%rsi,4)
	jns	.LBB4_39
# BB#40:                                # %while.end216
                                        #   in Loop: Header=BB4_37 Depth=2
	movslq	%eax, %rsi
	movb	%dl, -1(%r15,%rsi)
	cmpl	%ecx, %edx
	movb	$1, %dl
	jg	.LBB4_42
# BB#41:                                # %while.end216
                                        #   in Loop: Header=BB4_37 Depth=2
	movl	%edi, %edx
	jmp	.LBB4_42
	.p2align	4, 0x90
.LBB4_43:                               # %for.end225
                                        #   in Loop: Header=BB4_3 Depth=1
	testb	%dil, %dil
	jne	.LBB4_44
# BB#47:                                # %while.end242
	addq	$5176, %rsp             # imm = 0x1438
	popq	%rbx
	popq	%r12
	popq	%r13
	popq	%r14
	popq	%r15
	popq	%rbp
	retq
.Lfunc_end4:
	.size	BZ2_hbMakeCodeLengths, .Lfunc_end4-BZ2_hbMakeCodeLengths
	.cfi_endproc

	.globl	BZ2_hbAssignCodes
	.p2align	4, 0x90
	.type	BZ2_hbAssignCodes,@function
BZ2_hbAssignCodes:                      # @BZ2_hbAssignCodes
	.cfi_startproc
# BB#0:                                 # %entry
	pushq	%rbp
.Lcfi37:
	.cfi_def_cfa_offset 16
.Lcfi38:
	.cfi_offset %rbp, -16
	movq	%rsp, %rbp
.Lcfi39:
	.cfi_def_cfa_register %rbp
	xorl	%r9d, %r9d
	cmpl	%ecx, %edx
	jle	.LBB5_2
	jmp	.LBB5_8
	.p2align	4, 0x90
.LBB5_7:                                # %for.end
                                        #   in Loop: Header=BB5_2 Depth=1
	addl	%r9d, %r9d
	incl	%edx
	cmpl	%ecx, %edx
	jg	.LBB5_8
.LBB5_2:                                # %for.cond1.preheader
                                        # =>This Loop Header: Depth=1
                                        #     Child Loop BB5_4 Depth 2
	xorl	%r10d, %r10d
	cmpl	%r8d, %r10d
	jl	.LBB5_4
	jmp	.LBB5_7
	.p2align	4, 0x90
.LBB5_6:                                # %for.inc
                                        #   in Loop: Header=BB5_4 Depth=2
	incq	%r10
	cmpl	%r8d, %r10d
	jge	.LBB5_7
.LBB5_4:                                # %for.body3
                                        #   Parent Loop BB5_2 Depth=1
                                        # =>  This Inner Loop Header: Depth=2
	movzbl	(%rsi,%r10), %eax
	cmpl	%edx, %eax
	jne	.LBB5_6
# BB#5:                                 # %if.then
                                        #   in Loop: Header=BB5_4 Depth=2
	movl	%r9d, (%rdi,%r10,4)
	incl	%r9d
	jmp	.LBB5_6
.LBB5_8:                                # %for.end11
	popq	%rbp
	retq
.Lfunc_end5:
	.size	BZ2_hbAssignCodes, .Lfunc_end5-BZ2_hbAssignCodes
	.cfi_endproc

	.globl	BZ2_hbCreateDecodeTables
	.p2align	4, 0x90
	.type	BZ2_hbCreateDecodeTables,@function
BZ2_hbCreateDecodeTables:               # @BZ2_hbCreateDecodeTables
	.cfi_startproc
# BB#0:                                 # %entry
	pushq	%rbp
.Lcfi40:
	.cfi_def_cfa_offset 16
.Lcfi41:
	.cfi_offset %rbp, -16
	movq	%rsp, %rbp
.Lcfi42:
	.cfi_def_cfa_register %rbp
	pushq	%r14
	pushq	%rbx
.Lcfi43:
	.cfi_offset %rbx, -32
.Lcfi44:
	.cfi_offset %r14, -24
	xorl	%r14d, %r14d
	movl	16(%rbp), %r10d
	movl	%r8d, %r11d
	cmpl	%r9d, %r11d
	jle	.LBB6_2
	jmp	.LBB6_8
	.p2align	4, 0x90
.LBB6_7:                                # %for.inc9
                                        #   in Loop: Header=BB6_2 Depth=1
	incl	%r11d
	cmpl	%r9d, %r11d
	jg	.LBB6_8
.LBB6_2:                                # %for.cond1.preheader
                                        # =>This Loop Header: Depth=1
                                        #     Child Loop BB6_4 Depth 2
	xorl	%ebx, %ebx
	cmpl	%r10d, %ebx
	jl	.LBB6_4
	jmp	.LBB6_7
	.p2align	4, 0x90
.LBB6_6:                                # %for.inc
                                        #   in Loop: Header=BB6_4 Depth=2
	incq	%rbx
	cmpl	%r10d, %ebx
	jge	.LBB6_7
.LBB6_4:                                # %for.body3
                                        #   Parent Loop BB6_2 Depth=1
                                        # =>  This Inner Loop Header: Depth=2
	movzbl	(%rcx,%rbx), %eax
	cmpl	%r11d, %eax
	jne	.LBB6_6
# BB#5:                                 # %if.then
                                        #   in Loop: Header=BB6_4 Depth=2
	movslq	%r14d, %r14
	movl	%ebx, (%rdx,%r14,4)
	incl	%r14d
	jmp	.LBB6_6
.LBB6_8:                                # %for.cond12.preheader
	xorl	%eax, %eax
	cmpl	$23, %eax
	jge	.LBB6_10
	.p2align	4, 0x90
.LBB6_22:                               # %for.body15
                                        # =>This Inner Loop Header: Depth=1
	movl	$0, (%rsi,%rax,4)
	incq	%rax
	cmpl	$23, %eax
	jl	.LBB6_22
.LBB6_10:                               # %for.cond21.preheader
	xorl	%eax, %eax
	cmpl	%r10d, %eax
	jge	.LBB6_12
	.p2align	4, 0x90
.LBB6_23:                               # %for.body24
                                        # =>This Inner Loop Header: Depth=1
	movzbl	(%rcx,%rax), %edx
	incl	4(%rsi,%rdx,4)
	incq	%rax
	cmpl	%r10d, %eax
	jl	.LBB6_23
.LBB6_12:                               # %for.cond34.preheader
	movl	$1, %eax
	cmpl	$23, %eax
	jge	.LBB6_14
	.p2align	4, 0x90
.LBB6_24:                               # %for.body37
                                        # =>This Inner Loop Header: Depth=1
	movl	-4(%rsi,%rax,4), %ecx
	addl	%ecx, (%rsi,%rax,4)
	incq	%rax
	cmpl	$23, %eax
	jl	.LBB6_24
.LBB6_14:                               # %for.cond46.preheader
	xorl	%eax, %eax
	cmpl	$23, %eax
	jge	.LBB6_16
	.p2align	4, 0x90
.LBB6_25:                               # %for.body49
                                        # =>This Inner Loop Header: Depth=1
	movl	$0, (%rdi,%rax,4)
	incq	%rax
	cmpl	$23, %eax
	jl	.LBB6_25
.LBB6_16:                               # %for.cond55.preheader
	movslq	%r8d, %rax
	xorl	%r10d, %r10d
	cmpl	%r9d, %eax
	jg	.LBB6_18
	.p2align	4, 0x90
.LBB6_26:                               # %for.body58
                                        # =>This Inner Loop Header: Depth=1
	leaq	1(%rax), %rdx
	movslq	%edx, %rbx
	movl	(%rsi,%rbx,4), %ebx
	subl	(%rsi,%rax,4), %ebx
	leal	-1(%r10,%rbx), %ecx
	leal	(%r10,%rbx), %ebx
	movl	%ecx, (%rdi,%rax,4)
	addl	%ebx, %ebx
	movq	%rdx, %rax
	movl	%ebx, %r10d
	cmpl	%r9d, %eax
	jle	.LBB6_26
.LBB6_18:                               # %for.cond73.preheader
	movslq	%r8d, %rcx
	jmp	.LBB6_19
	.p2align	4, 0x90
.LBB6_20:                               # %for.body76
                                        #   in Loop: Header=BB6_19 Depth=1
	movl	(%rdi,%rcx,4), %ecx
	leal	2(%rcx,%rcx), %ecx
	movslq	%eax, %rdx
	subl	(%rsi,%rdx,4), %ecx
	movl	%ecx, (%rsi,%rdx,4)
	movq	%rax, %rcx
.LBB6_19:                               # %for.cond73
                                        # =>This Inner Loop Header: Depth=1
	leaq	1(%rcx), %rax
	cmpl	%r9d, %eax
	jle	.LBB6_20
# BB#21:                                # %for.end89
	popq	%rbx
	popq	%r14
	popq	%rbp
	retq
.Lfunc_end6:
	.size	BZ2_hbCreateDecodeTables, .Lfunc_end6-BZ2_hbCreateDecodeTables
	.cfi_endproc

	.globl	BZ2_bsInitWrite
	.p2align	4, 0x90
	.type	BZ2_bsInitWrite,@function
BZ2_bsInitWrite:                        # @BZ2_bsInitWrite
	.cfi_startproc
# BB#0:                                 # %entry
	pushq	%rbp
.Lcfi45:
	.cfi_def_cfa_offset 16
.Lcfi46:
	.cfi_offset %rbp, -16
	movq	%rsp, %rbp
.Lcfi47:
	.cfi_def_cfa_register %rbp
	movq	$0, 640(%rdi)
	popq	%rbp
	retq
.Lfunc_end7:
	.size	BZ2_bsInitWrite, .Lfunc_end7-BZ2_bsInitWrite
	.cfi_endproc

	.globl	BZ2_compressBlock
	.p2align	4, 0x90
	.type	BZ2_compressBlock,@function
BZ2_compressBlock:                      # @BZ2_compressBlock
	.cfi_startproc
# BB#0:                                 # %entry
	pushq	%rbp
.Lcfi48:
	.cfi_def_cfa_offset 16
.Lcfi49:
	.cfi_offset %rbp, -16
	movq	%rsp, %rbp
.Lcfi50:
	.cfi_def_cfa_register %rbp
	pushq	%r14
	pushq	%rbx
.Lcfi51:
	.cfi_offset %rbx, -32
.Lcfi52:
	.cfi_offset %r14, -24
	movl	%esi, %r14d
	movq	%rdi, %rbx
	cmpl	$0, 108(%rbx)
	jle	.LBB8_6
# BB#1:                                 # %if.then
	notl	648(%rbx)
	movl	652(%rbx), %eax
	roll	%eax
	movl	%eax, 652(%rbx)
	xorl	648(%rbx), %eax
	movl	%eax, 652(%rbx)
	cmpl	$2, 660(%rbx)
	jl	.LBB8_3
# BB#2:                                 # %if.then7
	movl	$0, 116(%rbx)
.LBB8_3:                                # %if.end
	cmpl	$2, 656(%rbx)
	jl	.LBB8_5
# BB#4:                                 # %if.then9
	movq	stderr(%rip), %rdi
	movl	660(%rbx), %edx
	movl	648(%rbx), %ecx
	movl	652(%rbx), %r8d
	movl	108(%rbx), %r9d
	movl	$.L.str.2, %esi
	xorl	%eax, %eax
	callq	fprintf
.LBB8_5:                                # %if.end14
	movq	%rbx, %rdi
	callq	BZ2_blockSort
.LBB8_6:                                # %if.end15
	movslq	108(%rbx), %rax
	addq	32(%rbx), %rax
	movq	%rax, 80(%rbx)
	cmpl	$1, 660(%rbx)
	jne	.LBB8_8
# BB#7:                                 # %if.then19
	movq	%rbx, %rdi
	callq	BZ2_bsInitWrite
	movl	$66, %esi
	movq	%rbx, %rdi
	callq	bsPutUChar
	movl	$90, %esi
	movq	%rbx, %rdi
	callq	bsPutUChar
	movl	$104, %esi
	movq	%rbx, %rdi
	callq	bsPutUChar
	movl	664(%rbx), %eax
	addl	$48, %eax
	movzbl	%al, %esi
	movq	%rbx, %rdi
	callq	bsPutUChar
.LBB8_8:                                # %if.end20
	cmpl	$0, 108(%rbx)
	jle	.LBB8_10
# BB#9:                                 # %if.then24
	movl	$49, %esi
	movq	%rbx, %rdi
	callq	bsPutUChar
	movl	$65, %esi
	movq	%rbx, %rdi
	callq	bsPutUChar
	movl	$89, %esi
	movq	%rbx, %rdi
	callq	bsPutUChar
	movl	$38, %esi
	movq	%rbx, %rdi
	callq	bsPutUChar
	movl	$83, %esi
	movq	%rbx, %rdi
	callq	bsPutUChar
	movl	$89, %esi
	movq	%rbx, %rdi
	callq	bsPutUChar
	movl	648(%rbx), %esi
	movq	%rbx, %rdi
	callq	bsPutUInt32
	movl	$1, %esi
	xorl	%edx, %edx
	movq	%rbx, %rdi
	callq	bsW
	movl	48(%rbx), %edx
	movl	$24, %esi
	movq	%rbx, %rdi
	callq	bsW
	movq	%rbx, %rdi
	callq	generateMTFValues
	movq	%rbx, %rdi
	callq	sendMTFValues
.LBB8_10:                               # %if.end26
	testb	%r14b, %r14b
	je	.LBB8_14
# BB#11:                                # %if.then27
	movl	$23, %esi
	movq	%rbx, %rdi
	callq	bsPutUChar
	movl	$114, %esi
	movq	%rbx, %rdi
	callq	bsPutUChar
	movl	$69, %esi
	movq	%rbx, %rdi
	callq	bsPutUChar
	movl	$56, %esi
	movq	%rbx, %rdi
	callq	bsPutUChar
	movl	$80, %esi
	movq	%rbx, %rdi
	callq	bsPutUChar
	movl	$144, %esi
	movq	%rbx, %rdi
	callq	bsPutUChar
	movl	652(%rbx), %esi
	movq	%rbx, %rdi
	callq	bsPutUInt32
	cmpl	$2, 656(%rbx)
	jl	.LBB8_13
# BB#12:                                # %if.then32
	movq	stderr(%rip), %rdi
	movl	652(%rbx), %edx
	movl	$.L.str.3, %esi
	xorl	%eax, %eax
	callq	fprintf
.LBB8_13:                               # %if.end35
	movq	%rbx, %rdi
	callq	bsFinishWrite
.LBB8_14:                               # %if.end36
	popq	%rbx
	popq	%r14
	popq	%rbp
	retq
.Lfunc_end8:
	.size	BZ2_compressBlock, .Lfunc_end8-BZ2_compressBlock
	.cfi_endproc

	.p2align	4, 0x90
	.type	bsPutUChar,@function
bsPutUChar:                             # @bsPutUChar
	.cfi_startproc
# BB#0:                                 # %entry
	pushq	%rbp
.Lcfi53:
	.cfi_def_cfa_offset 16
.Lcfi54:
	.cfi_offset %rbp, -16
	movq	%rsp, %rbp
.Lcfi55:
	.cfi_def_cfa_register %rbp
	movl	%esi, %eax
	movl	$8, %esi
	movl	%eax, %edx
	callq	bsW
	popq	%rbp
	retq
.Lfunc_end9:
	.size	bsPutUChar, .Lfunc_end9-bsPutUChar
	.cfi_endproc

	.p2align	4, 0x90
	.type	bsPutUInt32,@function
bsPutUInt32:                            # @bsPutUInt32
	.cfi_startproc
# BB#0:                                 # %entry
	pushq	%rbp
.Lcfi56:
	.cfi_def_cfa_offset 16
.Lcfi57:
	.cfi_offset %rbp, -16
	movq	%rsp, %rbp
.Lcfi58:
	.cfi_def_cfa_register %rbp
	pushq	%r14
	pushq	%rbx
.Lcfi59:
	.cfi_offset %rbx, -32
.Lcfi60:
	.cfi_offset %r14, -24
	movl	%esi, %ebx
	movq	%rdi, %r14
	movl	%ebx, %edx
	shrl	$24, %edx
	movl	$8, %esi
	callq	bsW
	movl	%ebx, %eax
	shrl	$16, %eax
	movzbl	%al, %edx
	movl	$8, %esi
	movq	%r14, %rdi
	callq	bsW
	movzbl	%bh, %edx  # NOREX
	movl	$8, %esi
	movq	%r14, %rdi
	callq	bsW
	movzbl	%bl, %edx
	movl	$8, %esi
	movq	%r14, %rdi
	callq	bsW
	popq	%rbx
	popq	%r14
	popq	%rbp
	retq
.Lfunc_end10:
	.size	bsPutUInt32, .Lfunc_end10-bsPutUInt32
	.cfi_endproc

	.p2align	4, 0x90
	.type	bsW,@function
bsW:                                    # @bsW
	.cfi_startproc
# BB#0:                                 # %entry
	pushq	%rbp
.Lcfi61:
	.cfi_def_cfa_offset 16
.Lcfi62:
	.cfi_offset %rbp, -16
	movq	%rsp, %rbp
.Lcfi63:
	.cfi_def_cfa_register %rbp
	cmpl	$8, 644(%rdi)
	jl	.LBB11_3
	.p2align	4, 0x90
.LBB11_2:                               # %while.body
                                        # =>This Inner Loop Header: Depth=1
	movzbl	643(%rdi), %r8d
	movq	80(%rdi), %rcx
	movslq	116(%rdi), %rax
	movb	%r8b, (%rcx,%rax)
	incl	116(%rdi)
	shll	$8, 640(%rdi)
	addl	$-8, 644(%rdi)
	cmpl	$8, 644(%rdi)
	jge	.LBB11_2
.LBB11_3:                               # %while.end
	movl	$32, %ecx
	subl	644(%rdi), %ecx
	subl	%esi, %ecx
                                        # kill: %CL<def> %CL<kill> %ECX<kill>
	shll	%cl, %edx
	orl	%edx, 640(%rdi)
	addl	%esi, 644(%rdi)
	popq	%rbp
	retq
.Lfunc_end11:
	.size	bsW, .Lfunc_end11-bsW
	.cfi_endproc

	.p2align	4, 0x90
	.type	generateMTFValues,@function
generateMTFValues:                      # @generateMTFValues
	.cfi_startproc
# BB#0:                                 # %entry
	pushq	%rbp
.Lcfi64:
	.cfi_def_cfa_offset 16
.Lcfi65:
	.cfi_offset %rbp, -16
	movq	%rsp, %rbp
.Lcfi66:
	.cfi_def_cfa_register %rbp
	pushq	%r15
	pushq	%r14
	pushq	%r13
	pushq	%r12
	pushq	%rbx
	subq	$264, %rsp              # imm = 0x108
.Lcfi67:
	.cfi_offset %rbx, -56
.Lcfi68:
	.cfi_offset %r12, -48
.Lcfi69:
	.cfi_offset %r13, -40
.Lcfi70:
	.cfi_offset %r14, -32
.Lcfi71:
	.cfi_offset %r15, -24
	movq	%rdi, %rbx
	movq	56(%rbx), %r15
	movq	64(%rbx), %r12
	movq	72(%rbx), %r14
	callq	makeMaps_e
	movslq	124(%rbx), %rcx
	movq	%rcx, %rax
	movq	%rax, -48(%rbp)         # 8-byte Spill
	leal	1(%rcx), %r11d
	xorl	%eax, %eax
	cmpl	%r11d, %eax
	jg	.LBB12_2
	.p2align	4, 0x90
.LBB12_29:                              # %for.body
                                        # =>This Inner Loop Header: Depth=1
	movl	$0, 672(%rbx,%rax,4)
	incq	%rax
	cmpl	%r11d, %eax
	jle	.LBB12_29
.LBB12_2:                               # %for.cond4.preheader
	xorl	%eax, %eax
	cmpl	124(%rbx), %eax
	jge	.LBB12_4
	.p2align	4, 0x90
.LBB12_30:                              # %for.body7
                                        # =>This Inner Loop Header: Depth=1
	movb	%al, -304(%rbp,%rax)
	incq	%rax
	cmpl	124(%rbx), %eax
	jl	.LBB12_30
.LBB12_4:                               # %for.cond13.preheader
	xorl	%edx, %edx
	leaq	-303(%rbp), %r10
	xorl	%esi, %esi
	xorl	%r13d, %r13d
	cmpl	108(%rbx), %r13d
	jl	.LBB12_6
	jmp	.LBB12_21
	.p2align	4, 0x90
.LBB12_9:                               # %if.then32
                                        #   in Loop: Header=BB12_6 Depth=1
	incl	%esi
	incl	%r13d
	cmpl	108(%rbx), %r13d
	jge	.LBB12_21
.LBB12_6:                               # %for.body16
                                        # =>This Loop Header: Depth=1
                                        #     Child Loop BB12_12 Depth 2
                                        #     Child Loop BB12_18 Depth 2
	movslq	%r13d, %rax
	movl	(%r15,%rax,4), %eax
	decl	%eax
	jns	.LBB12_8
# BB#7:                                 # %if.then
                                        #   in Loop: Header=BB12_6 Depth=1
	addl	108(%rbx), %eax
.LBB12_8:                               # %if.end
                                        #   in Loop: Header=BB12_6 Depth=1
	cltq
	movzbl	(%r12,%rax), %eax
	movzbl	384(%rbx,%rax), %edi
	movzbl	-304(%rbp), %eax
	cmpl	%edi, %eax
	je	.LBB12_9
# BB#10:                                # %if.else
                                        #   in Loop: Header=BB12_6 Depth=1
	testl	%esi, %esi
	jle	.LBB12_17
# BB#11:                                # %if.then36
                                        #   in Loop: Header=BB12_6 Depth=1
	decl	%esi
	jmp	.LBB12_12
	.p2align	4, 0x90
.LBB12_31:                              # %if.end55
                                        #   in Loop: Header=BB12_12 Depth=2
	leal	-2(%rsi), %eax
	shrl	$31, %eax
	leal	-2(%rsi,%rax), %esi
	sarl	%esi
.LBB12_12:                              # %while.body
                                        #   Parent Loop BB12_6 Depth=1
                                        # =>  This Inner Loop Header: Depth=2
	movslq	%edx, %rdx
	testb	$1, %sil
	je	.LBB12_14
# BB#13:                                # %if.then37
                                        #   in Loop: Header=BB12_12 Depth=2
	movw	$1, (%r14,%rdx,2)
	incl	%edx
	incl	676(%rbx)
	cmpl	$2, %esi
	jge	.LBB12_31
	jmp	.LBB12_16
	.p2align	4, 0x90
.LBB12_14:                              # %if.else44
                                        #   in Loop: Header=BB12_12 Depth=2
	movw	$0, (%r14,%rdx,2)
	incl	%edx
	incl	672(%rbx)
	cmpl	$2, %esi
	jge	.LBB12_31
.LBB12_16:                              #   in Loop: Header=BB12_6 Depth=1
	xorl	%esi, %esi
.LBB12_17:                              # %if.end57
                                        #   in Loop: Header=BB12_6 Depth=1
	movb	-304(%rbp), %cl
	movb	-303(%rbp), %r9b
	movb	%cl, -303(%rbp)
	movq	%r10, %rcx
	jmp	.LBB12_18
	.p2align	4, 0x90
.LBB12_19:                              # %while.body66
                                        #   in Loop: Header=BB12_18 Depth=2
	movzbl	1(%rcx), %eax
	movb	%r9b, 1(%rcx)
	incq	%rcx
	movl	%eax, %r9d
.LBB12_18:                              # %while.cond
                                        #   Parent Loop BB12_6 Depth=1
                                        # =>  This Inner Loop Header: Depth=2
	movzbl	%r9b, %r8d
	cmpl	%r8d, %edi
	jne	.LBB12_19
# BB#20:                                # %while.end67
                                        #   in Loop: Header=BB12_6 Depth=1
	movb	%r9b, -304(%rbp)
	leaq	-304(%rbp), %rax
	subq	%rax, %rcx
	leal	1(%rcx), %eax
	movslq	%edx, %rdx
	movw	%ax, (%r14,%rdx,2)
	incl	%edx
	movslq	%ecx, %rax
	incl	676(%rbx,%rax,4)
	incl	%r13d
	cmpl	108(%rbx), %r13d
	jl	.LBB12_6
.LBB12_21:                              # %for.end84
	testl	%esi, %esi
	jle	.LBB12_28
# BB#22:                                # %if.then87
	decl	%esi
	jmp	.LBB12_23
	.p2align	4, 0x90
.LBB12_27:                              # %if.end111
                                        #   in Loop: Header=BB12_23 Depth=1
	leal	-2(%rsi), %eax
	shrl	$31, %eax
	leal	-2(%rsi,%rax), %esi
	sarl	%esi
.LBB12_23:                              # %while.body90
                                        # =>This Inner Loop Header: Depth=1
	movslq	%edx, %rdx
	testb	$1, %sil
	je	.LBB12_25
# BB#24:                                # %if.then93
                                        #   in Loop: Header=BB12_23 Depth=1
	movw	$1, (%r14,%rdx,2)
	incl	%edx
	incl	676(%rbx)
	cmpl	$2, %esi
	jge	.LBB12_27
	jmp	.LBB12_28
	.p2align	4, 0x90
.LBB12_25:                              # %if.else100
                                        #   in Loop: Header=BB12_23 Depth=1
	movw	$0, (%r14,%rdx,2)
	incl	%edx
	incl	672(%rbx)
	cmpl	$2, %esi
	jge	.LBB12_27
.LBB12_28:                              # %if.end115
	movslq	%edx, %rax
	movw	%r11w, (%r14,%rax,2)
	incl	%eax
	movq	-48(%rbp), %rcx         # 8-byte Reload
	incl	676(%rbx,%rcx,4)
	movl	%eax, 668(%rbx)
	addq	$264, %rsp              # imm = 0x108
	popq	%rbx
	popq	%r12
	popq	%r13
	popq	%r14
	popq	%r15
	popq	%rbp
	retq
.Lfunc_end12:
	.size	generateMTFValues, .Lfunc_end12-generateMTFValues
	.cfi_endproc

	.section	.rodata.cst8,"aM",@progbits,8
	.p2align	3
.LCPI13_0:
	.quad	4636737291354636288     # double 100
	.text
	.p2align	4, 0x90
	.type	sendMTFValues,@function
sendMTFValues:                          # @sendMTFValues
	.cfi_startproc
# BB#0:                                 # %entry
	pushq	%rbp
.Lcfi72:
	.cfi_def_cfa_offset 16
.Lcfi73:
	.cfi_offset %rbp, -16
	movq	%rsp, %rbp
.Lcfi74:
	.cfi_def_cfa_register %rbp
	pushq	%r15
	pushq	%r14
	pushq	%r13
	pushq	%r12
	pushq	%rbx
	subq	$136, %rsp
.Lcfi75:
	.cfi_offset %rbx, -56
.Lcfi76:
	.cfi_offset %r12, -48
.Lcfi77:
	.cfi_offset %r13, -40
.Lcfi78:
	.cfi_offset %r14, -32
.Lcfi79:
	.cfi_offset %r15, -24
	movq	%rdi, %r13
	movq	72(%r13), %r12
	cmpl	$3, 656(%r13)
	jl	.LBB13_2
# BB#1:                                 # %if.then
	movq	stderr(%rip), %rdi
	movl	668(%r13), %ecx
	movl	108(%r13), %edx
	movl	124(%r13), %r8d
	movl	$.L.str.55, %esi
	xorl	%eax, %eax
	callq	fprintf
.LBB13_2:                               # %if.end
	movl	124(%r13), %r10d
	addl	$2, %r10d
	leaq	37708(%r13), %rax
	xorl	%ecx, %ecx
	cmpl	$5, %ecx
	jle	.LBB13_4
	jmp	.LBB13_8
	.p2align	4, 0x90
.LBB13_7:                               # %for.inc9
                                        #   in Loop: Header=BB13_4 Depth=1
	incl	%ecx
	addq	$258, %rax              # imm = 0x102
	cmpl	$5, %ecx
	jg	.LBB13_8
.LBB13_4:                               # %for.cond4.preheader
                                        # =>This Loop Header: Depth=1
                                        #     Child Loop BB13_6 Depth 2
	xorl	%edx, %edx
	movq	%rax, %rsi
	cmpl	%r10d, %edx
	jge	.LBB13_7
	.p2align	4, 0x90
.LBB13_6:                               # %for.body6
                                        #   Parent Loop BB13_4 Depth=1
                                        # =>  This Inner Loop Header: Depth=2
	movb	$15, (%rsi)
	incl	%edx
	incq	%rsi
	cmpl	%r10d, %edx
	jl	.LBB13_6
	jmp	.LBB13_7
.LBB13_8:                               # %for.end11
	cmpl	$0, 668(%r13)
	movq	%r10, -80(%rbp)         # 8-byte Spill
	jg	.LBB13_10
# BB#9:                                 # %if.then14
	movl	$3001, %edi             # imm = 0xBB9
	callq	BZ2_bz__AssertH__fail
	movq	-80(%rbp), %r10         # 8-byte Reload
.LBB13_10:                              # %if.end15
	movl	$2, %r14d
	cmpl	$200, 668(%r13)
	jl	.LBB13_14
# BB#11:                                # %if.else
	movl	$3, %r14d
	cmpl	$600, 668(%r13)         # imm = 0x258
	jl	.LBB13_14
# BB#12:                                # %if.else22
	movl	$4, %r14d
	cmpl	$1200, 668(%r13)        # imm = 0x4B0
	jl	.LBB13_14
# BB#13:                                # %if.else26
	xorl	%r14d, %r14d
	cmpl	$2399, 668(%r13)        # imm = 0x95F
	setg	%r14b
	addl	$5, %r14d
.LBB13_14:                              # %if.end34
	movl	668(%r13), %edi
	leaq	672(%r13), %r8
	movslq	%r14d, %rax
	imulq	$258, %rax, %rax        # imm = 0x102
	leaq	37450(%r13,%rax), %r9
	xorl	%esi, %esi
	leal	-1(%r10), %r11d
	movl	%r14d, %ebx
	movl	%r14d, -60(%rbp)        # 4-byte Spill
	movq	%r8, -120(%rbp)         # 8-byte Spill
	testl	%ebx, %ebx
	jg	.LBB13_25
	jmp	.LBB13_16
	.p2align	4, 0x90
.LBB13_43:                              # %for.end95
                                        #   in Loop: Header=BB13_25 Depth=1
	decl	%ebx
	incl	%r15d
	subl	%r14d, %edi
	addq	$-258, %r9              # imm = 0xFEFE
	movl	%r15d, %esi
	movl	-60(%rbp), %r14d        # 4-byte Reload
	testl	%ebx, %ebx
	jle	.LBB13_16
.LBB13_25:                              # %while.body
                                        # =>This Loop Header: Depth=1
                                        #     Child Loop BB13_26 Depth 2
                                        #     Child Loop BB13_37 Depth 2
	movl	%edi, %eax
	cltd
	movl	%ebx, -44(%rbp)         # 4-byte Spill
	idivl	%ebx
	leal	-1(%rsi), %ecx
	movslq	%ecx, %rcx
	movq	%rsi, %rdx
	leaq	(%r8,%rcx,4), %rsi
	xorl	%r14d, %r14d
	movq	%rdx, %rcx
	movq	%rcx, -56(%rbp)         # 8-byte Spill
	jmp	.LBB13_26
	.p2align	4, 0x90
.LBB13_27:                              # %while.body41
                                        #   in Loop: Header=BB13_26 Depth=2
	movslq	%ecx, %rdx
	addl	672(%r13,%rdx,4), %r14d
	incl	%ecx
	addq	$4, %rsi
.LBB13_26:                              # %while.cond37
                                        #   Parent Loop BB13_25 Depth=1
                                        # =>  This Inner Loop Header: Depth=2
	leal	-1(%rcx), %r15d
	cmpl	%eax, %r14d
	setl	%bl
	cmpl	%r11d, %r15d
	setl	%dl
	andb	%bl, %dl
	cmpb	$1, %dl
	je	.LBB13_27
# BB#28:                                # %while.end
                                        #   in Loop: Header=BB13_25 Depth=1
	cmpl	-56(%rbp), %r15d        # 4-byte Folded Reload
	movl	-44(%rbp), %ebx         # 4-byte Reload
	jle	.LBB13_33
# BB#29:                                # %while.end
                                        #   in Loop: Header=BB13_25 Depth=1
	cmpl	-60(%rbp), %ebx         # 4-byte Folded Reload
	je	.LBB13_33
# BB#30:                                # %while.end
                                        #   in Loop: Header=BB13_25 Depth=1
	cmpl	$1, %ebx
	je	.LBB13_33
# BB#31:                                # %land.lhs.true50
                                        #   in Loop: Header=BB13_25 Depth=1
	movl	-60(%rbp), %eax         # 4-byte Reload
	subl	%ebx, %eax
	movl	%eax, %edx
	shrl	$31, %edx
	addl	%eax, %edx
	andl	$-2, %edx
	subl	%edx, %eax
	cmpl	$1, %eax
	jne	.LBB13_33
# BB#32:                                # %if.then53
                                        #   in Loop: Header=BB13_25 Depth=1
	subl	(%rsi), %r14d
	addl	$-2, %ecx
	movl	%ecx, %r15d
.LBB13_33:                              # %if.end58
                                        #   in Loop: Header=BB13_25 Depth=1
	cmpl	$3, 656(%r13)
	jl	.LBB13_35
# BB#34:                                # %if.then61
                                        #   in Loop: Header=BB13_25 Depth=1
	movl	%edi, -72(%rbp)         # 4-byte Spill
	movq	stderr(%rip), %rdi
	cvtsi2ssl	%r14d, %xmm0
	cvtss2sd	%xmm0, %xmm0
	mulsd	.LCPI13_0(%rip), %xmm0
	cvtsi2ssl	668(%r13), %xmm1
	cvtss2sd	%xmm1, %xmm1
	divsd	%xmm1, %xmm0
	movl	$.L.str.56, %esi
	movb	$1, %al
	movl	%ebx, %edx
	movq	-56(%rbp), %rcx         # 8-byte Reload
                                        # kill: %ECX<def> %ECX<kill> %RCX<kill>
	movl	%r15d, %r8d
	movq	%r9, -104(%rbp)         # 8-byte Spill
	movl	%r14d, %r9d
	movl	%r11d, %ebx
	callq	fprintf
	movl	%ebx, %r11d
	movl	-44(%rbp), %ebx         # 4-byte Reload
	movq	-104(%rbp), %r9         # 8-byte Reload
	movq	-120(%rbp), %r8         # 8-byte Reload
	movl	-72(%rbp), %edi         # 4-byte Reload
	movq	-80(%rbp), %r10         # 8-byte Reload
.LBB13_35:                              # %for.cond69.preheader
                                        #   in Loop: Header=BB13_25 Depth=1
	xorl	%eax, %eax
	movq	%r9, %rcx
	movq	-56(%rbp), %rsi         # 8-byte Reload
	cmpl	%r10d, %eax
	jl	.LBB13_37
	jmp	.LBB13_43
	.p2align	4, 0x90
.LBB13_42:                              # %for.body72
                                        #   in Loop: Header=BB13_37 Depth=2
	movb	%dl, (%rcx)
	incl	%eax
	incq	%rcx
	cmpl	%r10d, %eax
	jge	.LBB13_43
.LBB13_37:                              # %for.body72
                                        #   Parent Loop BB13_25 Depth=1
                                        # =>  This Inner Loop Header: Depth=2
	cmpl	%r15d, %eax
	jle	.LBB13_38
# BB#39:                                # %for.body72
                                        #   in Loop: Header=BB13_37 Depth=2
	movb	$15, %dl
	cmpl	%esi, %eax
	jge	.LBB13_42
	jmp	.LBB13_41
	.p2align	4, 0x90
.LBB13_38:                              #   in Loop: Header=BB13_37 Depth=2
	xorl	%edx, %edx
	cmpl	%esi, %eax
	jge	.LBB13_42
.LBB13_41:                              # %for.body72
                                        #   in Loop: Header=BB13_37 Depth=2
	movb	$15, %dl
	jmp	.LBB13_42
.LBB13_16:                              # %for.cond100.preheader
	leaq	45448(%r13), %rax
	movq	%rax, -104(%rbp)        # 8-byte Spill
	leaq	51648(%r13), %rax
	movq	%rax, -152(%rbp)        # 8-byte Spill
	leaq	37708(%r13), %r11
                                        # implicit-def: %R15D
	xorl	%edi, %edi
	movq	%r12, -120(%rbp)        # 8-byte Spill
	movq	%r11, -56(%rbp)         # 8-byte Spill
	cmpl	$3, %edi
	jle	.LBB13_18
	jmp	.LBB13_86
	.p2align	4, 0x90
.LBB13_85:                              # %for.inc1702
                                        #   in Loop: Header=BB13_18 Depth=1
	movq	-72(%rbp), %rdi         # 8-byte Reload
	incl	%edi
	movq	-120(%rbp), %r12        # 8-byte Reload
	movl	-44(%rbp), %r15d        # 4-byte Reload
	cmpl	$3, %edi
	jg	.LBB13_86
.LBB13_18:                              # %for.cond104.preheader
                                        # =>This Loop Header: Depth=1
                                        #     Child Loop BB13_44 Depth 2
                                        #     Child Loop BB13_22 Depth 2
                                        #       Child Loop BB13_24 Depth 3
                                        #     Child Loop BB13_49 Depth 2
                                        #     Child Loop BB13_52 Depth 2
                                        #       Child Loop BB13_56 Depth 3
                                        #       Child Loop BB13_66 Depth 3
                                        #         Child Loop BB13_69 Depth 4
                                        #       Child Loop BB13_62 Depth 3
                                        #       Child Loop BB13_73 Depth 3
                                        #     Child Loop BB13_79 Depth 2
                                        #     Child Loop BB13_84 Depth 2
	xorl	%eax, %eax
	cmpl	%r14d, %eax
	jge	.LBB13_20
	.p2align	4, 0x90
.LBB13_44:                              # %for.body107
                                        #   Parent Loop BB13_18 Depth=1
                                        # =>  This Inner Loop Header: Depth=2
	movl	$0, -176(%rbp,%rax,4)
	incq	%rax
	cmpl	%r14d, %eax
	jl	.LBB13_44
.LBB13_20:                              # %for.cond113.preheader
                                        #   in Loop: Header=BB13_18 Depth=1
	xorl	%eax, %eax
	movq	-104(%rbp), %rcx        # 8-byte Reload
	cmpl	%r14d, %eax
	jl	.LBB13_22
	jmp	.LBB13_46
	.p2align	4, 0x90
.LBB13_45:                              # %for.inc128
                                        #   in Loop: Header=BB13_22 Depth=2
	incl	%eax
	addq	$1032, %rcx             # imm = 0x408
	cmpl	%r14d, %eax
	jge	.LBB13_46
.LBB13_22:                              # %for.cond117.preheader
                                        #   Parent Loop BB13_18 Depth=1
                                        # =>  This Loop Header: Depth=2
                                        #       Child Loop BB13_24 Depth 3
	xorl	%edx, %edx
	movq	%rcx, %rsi
	cmpl	%r10d, %edx
	jge	.LBB13_45
	.p2align	4, 0x90
.LBB13_24:                              # %for.body120
                                        #   Parent Loop BB13_18 Depth=1
                                        #     Parent Loop BB13_22 Depth=2
                                        # =>    This Inner Loop Header: Depth=3
	movl	$0, (%rsi)
	incl	%edx
	addq	$4, %rsi
	cmpl	%r10d, %edx
	jl	.LBB13_24
	jmp	.LBB13_45
	.p2align	4, 0x90
.LBB13_46:                              # %for.end130
                                        #   in Loop: Header=BB13_18 Depth=1
	cmpl	$6, %r14d
	jne	.LBB13_50
# BB#47:                                # %for.cond134.preheader
                                        #   in Loop: Header=BB13_18 Depth=1
	xorl	%eax, %eax
	movq	-152(%rbp), %rcx        # 8-byte Reload
	cmpl	%r10d, %eax
	jge	.LBB13_50
	.p2align	4, 0x90
.LBB13_49:                              # %for.body137
                                        #   Parent Loop BB13_18 Depth=1
                                        # =>  This Inner Loop Header: Depth=2
	movzbl	37966(%r13,%rax), %edx
	shll	$16, %edx
	movzbl	37708(%r13,%rax), %esi
	orl	%edx, %esi
	movl	%esi, -8(%rcx)
	movzbl	38482(%r13,%rax), %edx
	shll	$16, %edx
	movzbl	38224(%r13,%rax), %esi
	orl	%edx, %esi
	movl	%esi, -4(%rcx)
	movzbl	38998(%r13,%rax), %edx
	shll	$16, %edx
	movzbl	38740(%r13,%rax), %esi
	orl	%edx, %esi
	movl	%esi, (%rcx)
	addq	$16, %rcx
	incq	%rax
	cmpl	%r10d, %eax
	jl	.LBB13_49
.LBB13_50:                              # %while.body188.preheader
                                        #   in Loop: Header=BB13_18 Depth=1
	movq	%rdi, -72(%rbp)         # 8-byte Spill
	xorl	%r15d, %r15d
	xorl	%r8d, %r8d
	xorl	%r9d, %r9d
	cmpl	668(%r13), %r9d
	jl	.LBB13_52
	jmp	.LBB13_77
	.p2align	4, 0x90
.LBB13_76:                              # %if.end1665
                                        #   in Loop: Header=BB13_52 Depth=2
	addl	%eax, %r8d
	incl	%r15d
	incl	%ecx
	movl	%ecx, %r9d
	cmpl	668(%r13), %r9d
	jge	.LBB13_77
.LBB13_52:                              # %if.end193
                                        #   Parent Loop BB13_18 Depth=1
                                        # =>  This Loop Header: Depth=2
                                        #       Child Loop BB13_56 Depth 3
                                        #       Child Loop BB13_66 Depth 3
                                        #         Child Loop BB13_69 Depth 4
                                        #       Child Loop BB13_62 Depth 3
                                        #       Child Loop BB13_73 Depth 3
	leal	49(%r9), %ecx
	cmpl	668(%r13), %ecx
	jl	.LBB13_54
# BB#53:                                # %if.then199
                                        #   in Loop: Header=BB13_52 Depth=2
	movl	668(%r13), %ecx
	decl	%ecx
.LBB13_54:                              # %if.end202
                                        #   in Loop: Header=BB13_52 Depth=2
	xorl	%eax, %eax
	cmpl	%r14d, %eax
	jge	.LBB13_57
	.p2align	4, 0x90
.LBB13_56:                              # %for.body206
                                        #   Parent Loop BB13_18 Depth=1
                                        #     Parent Loop BB13_52 Depth=2
                                        # =>    This Inner Loop Header: Depth=3
	movw	$0, -92(%rbp,%rax,2)
	incq	%rax
	cmpl	%r14d, %eax
	jl	.LBB13_56
.LBB13_57:                              # %for.end211
                                        #   in Loop: Header=BB13_52 Depth=2
	cmpl	$6, %r14d
	movl	%r9d, %eax
	jne	.LBB13_66
# BB#58:                                # %land.lhs.true214
                                        #   in Loop: Header=BB13_52 Depth=2
	movl	%ecx, %eax
	subl	%r9d, %eax
	cmpl	$49, %eax
	movl	%r9d, %eax
	jne	.LBB13_66
# BB#59:                                # %if.then219
                                        #   in Loop: Header=BB13_52 Depth=2
	movslq	%r9d, %rax
	movzwl	(%r12,%rax,2), %esi
	shlq	$4, %rsi
	movl	51640(%r13,%rsi), %ebx
	movl	51644(%r13,%rsi), %edi
	movl	51648(%r13,%rsi), %esi
	movzwl	2(%r12,%rax,2), %edx
	shlq	$4, %rdx
	addl	51640(%r13,%rdx), %ebx
	addl	51644(%r13,%rdx), %edi
	addl	51648(%r13,%rdx), %esi
	movzwl	4(%r12,%rax,2), %edx
	shlq	$4, %rdx
	addl	51640(%r13,%rdx), %ebx
	addl	51644(%r13,%rdx), %edi
	addl	51648(%r13,%rdx), %esi
	movzwl	6(%r12,%rax,2), %edx
	shlq	$4, %rdx
	addl	51640(%r13,%rdx), %ebx
	addl	51644(%r13,%rdx), %edi
	addl	51648(%r13,%rdx), %esi
	movzwl	8(%r12,%rax,2), %edx
	shlq	$4, %rdx
	addl	51640(%r13,%rdx), %ebx
	addl	51644(%r13,%rdx), %edi
	addl	51648(%r13,%rdx), %esi
	movzwl	10(%r12,%rax,2), %edx
	shlq	$4, %rdx
	addl	51640(%r13,%rdx), %ebx
	addl	51644(%r13,%rdx), %edi
	addl	51648(%r13,%rdx), %esi
	movzwl	12(%r12,%rax,2), %edx
	shlq	$4, %rdx
	addl	51640(%r13,%rdx), %ebx
	addl	51644(%r13,%rdx), %edi
	addl	51648(%r13,%rdx), %esi
	movzwl	14(%r12,%rax,2), %edx
	shlq	$4, %rdx
	addl	51640(%r13,%rdx), %ebx
	addl	51644(%r13,%rdx), %edi
	addl	51648(%r13,%rdx), %esi
	movzwl	16(%r12,%rax,2), %edx
	shlq	$4, %rdx
	addl	51640(%r13,%rdx), %ebx
	addl	51644(%r13,%rdx), %edi
	addl	51648(%r13,%rdx), %esi
	movzwl	18(%r12,%rax,2), %edx
	shlq	$4, %rdx
	addl	51640(%r13,%rdx), %ebx
	addl	51644(%r13,%rdx), %edi
	addl	51648(%r13,%rdx), %esi
	movzwl	20(%r12,%rax,2), %edx
	shlq	$4, %rdx
	addl	51640(%r13,%rdx), %ebx
	addl	51644(%r13,%rdx), %edi
	addl	51648(%r13,%rdx), %esi
	movzwl	22(%r12,%rax,2), %edx
	shlq	$4, %rdx
	addl	51640(%r13,%rdx), %ebx
	addl	51644(%r13,%rdx), %edi
	addl	51648(%r13,%rdx), %esi
	movzwl	24(%r12,%rax,2), %edx
	shlq	$4, %rdx
	addl	51640(%r13,%rdx), %ebx
	addl	51644(%r13,%rdx), %edi
	addl	51648(%r13,%rdx), %esi
	movzwl	26(%r12,%rax,2), %edx
	shlq	$4, %rdx
	addl	51640(%r13,%rdx), %ebx
	addl	51644(%r13,%rdx), %edi
	addl	51648(%r13,%rdx), %esi
	movzwl	28(%r12,%rax,2), %edx
	shlq	$4, %rdx
	addl	51640(%r13,%rdx), %ebx
	addl	51644(%r13,%rdx), %edi
	addl	51648(%r13,%rdx), %esi
	movzwl	30(%r12,%rax,2), %edx
	shlq	$4, %rdx
	addl	51640(%r13,%rdx), %ebx
	addl	51644(%r13,%rdx), %edi
	addl	51648(%r13,%rdx), %esi
	movzwl	32(%r12,%rax,2), %edx
	shlq	$4, %rdx
	addl	51640(%r13,%rdx), %ebx
	addl	51644(%r13,%rdx), %edi
	addl	51648(%r13,%rdx), %esi
	movzwl	34(%r12,%rax,2), %edx
	shlq	$4, %rdx
	addl	51640(%r13,%rdx), %ebx
	addl	51644(%r13,%rdx), %edi
	addl	51648(%r13,%rdx), %esi
	movzwl	36(%r12,%rax,2), %edx
	shlq	$4, %rdx
	addl	51640(%r13,%rdx), %ebx
	addl	51644(%r13,%rdx), %edi
	addl	51648(%r13,%rdx), %esi
	movzwl	38(%r12,%rax,2), %edx
	shlq	$4, %rdx
	addl	51640(%r13,%rdx), %ebx
	addl	51644(%r13,%rdx), %edi
	addl	51648(%r13,%rdx), %esi
	movzwl	40(%r12,%rax,2), %edx
	shlq	$4, %rdx
	addl	51640(%r13,%rdx), %ebx
	addl	51644(%r13,%rdx), %edi
	addl	51648(%r13,%rdx), %esi
	movzwl	42(%r12,%rax,2), %edx
	shlq	$4, %rdx
	addl	51640(%r13,%rdx), %ebx
	addl	51644(%r13,%rdx), %edi
	addl	51648(%r13,%rdx), %esi
	movzwl	44(%r12,%rax,2), %edx
	shlq	$4, %rdx
	addl	51640(%r13,%rdx), %ebx
	addl	51644(%r13,%rdx), %edi
	addl	51648(%r13,%rdx), %esi
	movzwl	46(%r12,%rax,2), %edx
	shlq	$4, %rdx
	addl	51640(%r13,%rdx), %ebx
	addl	51644(%r13,%rdx), %edi
	addl	51648(%r13,%rdx), %esi
	movzwl	48(%r12,%rax,2), %edx
	shlq	$4, %rdx
	addl	51640(%r13,%rdx), %ebx
	addl	51644(%r13,%rdx), %edi
	addl	51648(%r13,%rdx), %esi
	movzwl	50(%r12,%rax,2), %edx
	shlq	$4, %rdx
	addl	51640(%r13,%rdx), %ebx
	addl	51644(%r13,%rdx), %edi
	addl	51648(%r13,%rdx), %esi
	movzwl	52(%r12,%rax,2), %edx
	shlq	$4, %rdx
	addl	51640(%r13,%rdx), %ebx
	addl	51644(%r13,%rdx), %edi
	addl	51648(%r13,%rdx), %esi
	movzwl	54(%r12,%rax,2), %edx
	shlq	$4, %rdx
	addl	51640(%r13,%rdx), %ebx
	addl	51644(%r13,%rdx), %edi
	addl	51648(%r13,%rdx), %esi
	movzwl	56(%r12,%rax,2), %edx
	shlq	$4, %rdx
	addl	51640(%r13,%rdx), %ebx
	addl	51644(%r13,%rdx), %edi
	addl	51648(%r13,%rdx), %esi
	movzwl	58(%r12,%rax,2), %edx
	shlq	$4, %rdx
	addl	51640(%r13,%rdx), %ebx
	addl	51644(%r13,%rdx), %edi
	addl	51648(%r13,%rdx), %esi
	movzwl	60(%r12,%rax,2), %edx
	shlq	$4, %rdx
	addl	51640(%r13,%rdx), %ebx
	addl	51644(%r13,%rdx), %edi
	addl	51648(%r13,%rdx), %esi
	movzwl	62(%r12,%rax,2), %edx
	shlq	$4, %rdx
	addl	51640(%r13,%rdx), %ebx
	addl	51644(%r13,%rdx), %edi
	addl	51648(%r13,%rdx), %esi
	movzwl	64(%r12,%rax,2), %edx
	shlq	$4, %rdx
	addl	51640(%r13,%rdx), %ebx
	addl	51644(%r13,%rdx), %edi
	addl	51648(%r13,%rdx), %esi
	movzwl	66(%r12,%rax,2), %edx
	shlq	$4, %rdx
	addl	51640(%r13,%rdx), %ebx
	addl	51644(%r13,%rdx), %edi
	addl	51648(%r13,%rdx), %esi
	movzwl	68(%r12,%rax,2), %edx
	shlq	$4, %rdx
	addl	51640(%r13,%rdx), %ebx
	addl	51644(%r13,%rdx), %edi
	addl	51648(%r13,%rdx), %esi
	movzwl	70(%r12,%rax,2), %edx
	shlq	$4, %rdx
	addl	51640(%r13,%rdx), %ebx
	addl	51644(%r13,%rdx), %edi
	addl	51648(%r13,%rdx), %esi
	movzwl	72(%r12,%rax,2), %edx
	shlq	$4, %rdx
	addl	51640(%r13,%rdx), %ebx
	addl	51644(%r13,%rdx), %edi
	addl	51648(%r13,%rdx), %esi
	movzwl	74(%r12,%rax,2), %edx
	shlq	$4, %rdx
	addl	51640(%r13,%rdx), %ebx
	addl	51644(%r13,%rdx), %edi
	addl	51648(%r13,%rdx), %esi
	movzwl	76(%r12,%rax,2), %edx
	shlq	$4, %rdx
	addl	51640(%r13,%rdx), %ebx
	addl	51644(%r13,%rdx), %edi
	addl	51648(%r13,%rdx), %esi
	movzwl	78(%r12,%rax,2), %edx
	shlq	$4, %rdx
	addl	51640(%r13,%rdx), %ebx
	addl	51644(%r13,%rdx), %edi
	addl	51648(%r13,%rdx), %esi
	movzwl	80(%r12,%rax,2), %edx
	shlq	$4, %rdx
	addl	51640(%r13,%rdx), %ebx
	addl	51644(%r13,%rdx), %edi
	addl	51648(%r13,%rdx), %esi
	movzwl	82(%r12,%rax,2), %edx
	shlq	$4, %rdx
	addl	51640(%r13,%rdx), %ebx
	addl	51644(%r13,%rdx), %edi
	addl	51648(%r13,%rdx), %esi
	movzwl	84(%r12,%rax,2), %edx
	shlq	$4, %rdx
	addl	51640(%r13,%rdx), %ebx
	addl	51644(%r13,%rdx), %edi
	addl	51648(%r13,%rdx), %esi
	movzwl	86(%r12,%rax,2), %edx
	shlq	$4, %rdx
	addl	51640(%r13,%rdx), %ebx
	addl	51644(%r13,%rdx), %edi
	addl	51648(%r13,%rdx), %esi
	movzwl	88(%r12,%rax,2), %edx
	shlq	$4, %rdx
	addl	51640(%r13,%rdx), %ebx
	addl	51644(%r13,%rdx), %edi
	addl	51648(%r13,%rdx), %esi
	movzwl	90(%r12,%rax,2), %edx
	shlq	$4, %rdx
	addl	51640(%r13,%rdx), %ebx
	addl	51644(%r13,%rdx), %edi
	addl	51648(%r13,%rdx), %esi
	movzwl	92(%r12,%rax,2), %edx
	shlq	$4, %rdx
	addl	51640(%r13,%rdx), %ebx
	addl	51644(%r13,%rdx), %edi
	addl	51648(%r13,%rdx), %esi
	movzwl	94(%r12,%rax,2), %edx
	shlq	$4, %rdx
	addl	51640(%r13,%rdx), %ebx
	addl	51644(%r13,%rdx), %edi
	addl	51648(%r13,%rdx), %esi
	movzwl	96(%r12,%rax,2), %edx
	shlq	$4, %rdx
	addl	51640(%r13,%rdx), %ebx
	addl	51644(%r13,%rdx), %edi
	addl	51648(%r13,%rdx), %esi
	movzwl	98(%r12,%rax,2), %eax
	shlq	$4, %rax
	addl	51640(%r13,%rax), %ebx
	addl	51644(%r13,%rax), %edi
	addl	51648(%r13,%rax), %esi
	movw	%bx, -92(%rbp)
	shrl	$16, %ebx
	movw	%bx, -90(%rbp)
	movw	%di, -88(%rbp)
	shrl	$16, %edi
	movw	%di, -86(%rbp)
	movw	%si, -84(%rbp)
	shrl	$16, %esi
	movw	%si, -82(%rbp)
	jmp	.LBB13_60
	.p2align	4, 0x90
.LBB13_65:                              # %for.inc1162
                                        #   in Loop: Header=BB13_66 Depth=3
	incl	%eax
.LBB13_66:                              # %for.cond1137
                                        #   Parent Loop BB13_18 Depth=1
                                        #     Parent Loop BB13_52 Depth=2
                                        # =>    This Loop Header: Depth=3
                                        #         Child Loop BB13_69 Depth 4
	cmpl	%ecx, %eax
	jg	.LBB13_60
# BB#67:                                # %for.body1140
                                        #   in Loop: Header=BB13_66 Depth=3
	movslq	%eax, %rdx
	movzwl	(%r12,%rdx,2), %esi
	addq	%r11, %rsi
	xorl	%edi, %edi
	cmpl	%r14d, %edi
	jge	.LBB13_65
	.p2align	4, 0x90
.LBB13_69:                              # %for.body1147
                                        #   Parent Loop BB13_18 Depth=1
                                        #     Parent Loop BB13_52 Depth=2
                                        #       Parent Loop BB13_66 Depth=3
                                        # =>      This Inner Loop Header: Depth=4
	movzbl	(%rsi), %edx
	movzwl	-92(%rbp,%rdi,2), %ebx
	addl	%edx, %ebx
	movw	%bx, -92(%rbp,%rdi,2)
	incq	%rdi
	addq	$258, %rsi              # imm = 0x102
	cmpl	%r14d, %edi
	jl	.LBB13_69
	jmp	.LBB13_65
	.p2align	4, 0x90
.LBB13_60:                              # %for.cond1166.preheader
                                        #   in Loop: Header=BB13_52 Depth=2
	movl	$-1, %edi
	movl	$999999999, %eax        # imm = 0x3B9AC9FF
	xorl	%esi, %esi
	cmpl	%r14d, %esi
	jl	.LBB13_62
	jmp	.LBB13_70
	.p2align	4, 0x90
.LBB13_64:                              # %for.inc1180
                                        #   in Loop: Header=BB13_62 Depth=3
	incq	%rsi
	cmpl	%r14d, %esi
	jge	.LBB13_70
.LBB13_62:                              # %for.body1169
                                        #   Parent Loop BB13_18 Depth=1
                                        #     Parent Loop BB13_52 Depth=2
                                        # =>    This Inner Loop Header: Depth=3
	movzwl	-92(%rbp,%rsi,2), %edx
	cmpl	%eax, %edx
	jge	.LBB13_64
# BB#63:                                # %if.then1175
                                        #   in Loop: Header=BB13_62 Depth=3
	movzwl	-92(%rbp,%rsi,2), %eax
	movl	%esi, %edi
	jmp	.LBB13_64
	.p2align	4, 0x90
.LBB13_70:                              # %for.end1182
                                        #   in Loop: Header=BB13_52 Depth=2
	movslq	%edi, %rsi
	incl	-176(%rbp,%rsi,4)
	movslq	%r15d, %rdx
	movb	%sil, 1704(%r13,%rdx)
	cmpl	$6, %r14d
	jne	.LBB13_71
# BB#74:                                # %land.lhs.true1193
                                        #   in Loop: Header=BB13_52 Depth=2
	movl	%ecx, %edx
	subl	%r9d, %edx
	cmpl	$49, %edx
	jne	.LBB13_71
# BB#75:                                # %if.then1198
                                        #   in Loop: Header=BB13_52 Depth=2
	imulq	$1032, %rsi, %rsi       # imm = 0x408
	addq	%r13, %rsi
	movslq	%r9d, %rdx
	movzwl	(%r12,%rdx,2), %edi
	incl	45448(%rsi,%rdi,4)
	movzwl	2(%r12,%rdx,2), %edi
	incl	45448(%rsi,%rdi,4)
	movzwl	4(%r12,%rdx,2), %edi
	incl	45448(%rsi,%rdi,4)
	movzwl	6(%r12,%rdx,2), %edi
	incl	45448(%rsi,%rdi,4)
	movzwl	8(%r12,%rdx,2), %edi
	incl	45448(%rsi,%rdi,4)
	movzwl	10(%r12,%rdx,2), %edi
	incl	45448(%rsi,%rdi,4)
	movzwl	12(%r12,%rdx,2), %edi
	incl	45448(%rsi,%rdi,4)
	movzwl	14(%r12,%rdx,2), %edi
	incl	45448(%rsi,%rdi,4)
	movzwl	16(%r12,%rdx,2), %edi
	incl	45448(%rsi,%rdi,4)
	movzwl	18(%r12,%rdx,2), %edi
	incl	45448(%rsi,%rdi,4)
	movzwl	20(%r12,%rdx,2), %edi
	incl	45448(%rsi,%rdi,4)
	movzwl	22(%r12,%rdx,2), %edi
	incl	45448(%rsi,%rdi,4)
	movzwl	24(%r12,%rdx,2), %edi
	incl	45448(%rsi,%rdi,4)
	movzwl	26(%r12,%rdx,2), %edi
	incl	45448(%rsi,%rdi,4)
	movzwl	28(%r12,%rdx,2), %edi
	incl	45448(%rsi,%rdi,4)
	movzwl	30(%r12,%rdx,2), %edi
	incl	45448(%rsi,%rdi,4)
	movzwl	32(%r12,%rdx,2), %edi
	incl	45448(%rsi,%rdi,4)
	movzwl	34(%r12,%rdx,2), %edi
	incl	45448(%rsi,%rdi,4)
	movzwl	36(%r12,%rdx,2), %edi
	incl	45448(%rsi,%rdi,4)
	movzwl	38(%r12,%rdx,2), %edi
	incl	45448(%rsi,%rdi,4)
	movzwl	40(%r12,%rdx,2), %edi
	incl	45448(%rsi,%rdi,4)
	movzwl	42(%r12,%rdx,2), %edi
	incl	45448(%rsi,%rdi,4)
	movzwl	44(%r12,%rdx,2), %edi
	incl	45448(%rsi,%rdi,4)
	movzwl	46(%r12,%rdx,2), %edi
	incl	45448(%rsi,%rdi,4)
	movzwl	48(%r12,%rdx,2), %edi
	incl	45448(%rsi,%rdi,4)
	movzwl	50(%r12,%rdx,2), %edi
	incl	45448(%rsi,%rdi,4)
	movzwl	52(%r12,%rdx,2), %edi
	incl	45448(%rsi,%rdi,4)
	movzwl	54(%r12,%rdx,2), %edi
	incl	45448(%rsi,%rdi,4)
	movzwl	56(%r12,%rdx,2), %edi
	incl	45448(%rsi,%rdi,4)
	movzwl	58(%r12,%rdx,2), %edi
	incl	45448(%rsi,%rdi,4)
	movzwl	60(%r12,%rdx,2), %edi
	incl	45448(%rsi,%rdi,4)
	movzwl	62(%r12,%rdx,2), %edi
	incl	45448(%rsi,%rdi,4)
	movzwl	64(%r12,%rdx,2), %edi
	incl	45448(%rsi,%rdi,4)
	movzwl	66(%r12,%rdx,2), %edi
	incl	45448(%rsi,%rdi,4)
	movzwl	68(%r12,%rdx,2), %edi
	incl	45448(%rsi,%rdi,4)
	movzwl	70(%r12,%rdx,2), %edi
	incl	45448(%rsi,%rdi,4)
	movzwl	72(%r12,%rdx,2), %edi
	incl	45448(%rsi,%rdi,4)
	movzwl	74(%r12,%rdx,2), %edi
	incl	45448(%rsi,%rdi,4)
	movzwl	76(%r12,%rdx,2), %edi
	incl	45448(%rsi,%rdi,4)
	movzwl	78(%r12,%rdx,2), %edi
	incl	45448(%rsi,%rdi,4)
	movzwl	80(%r12,%rdx,2), %edi
	incl	45448(%rsi,%rdi,4)
	movzwl	82(%r12,%rdx,2), %edi
	incl	45448(%rsi,%rdi,4)
	movzwl	84(%r12,%rdx,2), %edi
	incl	45448(%rsi,%rdi,4)
	movzwl	86(%r12,%rdx,2), %edi
	incl	45448(%rsi,%rdi,4)
	movzwl	88(%r12,%rdx,2), %edi
	incl	45448(%rsi,%rdi,4)
	movzwl	90(%r12,%rdx,2), %edi
	incl	45448(%rsi,%rdi,4)
	movzwl	92(%r12,%rdx,2), %edi
	incl	45448(%rsi,%rdi,4)
	movzwl	94(%r12,%rdx,2), %edi
	incl	45448(%rsi,%rdi,4)
	movzwl	96(%r12,%rdx,2), %edi
	incl	45448(%rsi,%rdi,4)
	movzwl	98(%r12,%rdx,2), %edx
	incl	45448(%rsi,%rdx,4)
	jmp	.LBB13_76
	.p2align	4, 0x90
.LBB13_71:                              # %for.cond1650.preheader
                                        #   in Loop: Header=BB13_52 Depth=2
	movslq	%r9d, %rdx
	cmpl	%ecx, %edx
	jg	.LBB13_76
	.p2align	4, 0x90
.LBB13_73:                              # %for.body1653
                                        #   Parent Loop BB13_18 Depth=1
                                        #     Parent Loop BB13_52 Depth=2
                                        # =>    This Inner Loop Header: Depth=3
	imulq	$1032, %rsi, %rdi       # imm = 0x408
	addq	%r13, %rdi
	movzwl	(%r12,%rdx,2), %ebx
	incl	45448(%rdi,%rbx,4)
	incq	%rdx
	cmpl	%ecx, %edx
	jle	.LBB13_73
	jmp	.LBB13_76
	.p2align	4, 0x90
.LBB13_77:                              # %while.end1667
                                        #   in Loop: Header=BB13_18 Depth=1
	cmpl	$3, 656(%r13)
	jl	.LBB13_82
# BB#78:                                # %if.then1671
                                        #   in Loop: Header=BB13_18 Depth=1
	movq	stderr(%rip), %rdi
	movq	-72(%rbp), %rax         # 8-byte Reload
	leal	1(%rax), %edx
	movl	%r8d, %ecx
	sarl	$31, %ecx
	shrl	$29, %ecx
	addl	%r8d, %ecx
	sarl	$3, %ecx
	movl	$.L.str.57, %esi
	xorl	%eax, %eax
	callq	fprintf
	xorl	%ebx, %ebx
	jmp	.LBB13_79
	.p2align	4, 0x90
.LBB13_80:                              # %for.body1678
                                        #   in Loop: Header=BB13_79 Depth=2
	movl	-176(%rbp,%rbx,4), %edx
	movl	$.L.str.58, %esi
	xorl	%eax, %eax
	callq	fprintf
	incq	%rbx
.LBB13_79:                              # %for.cond1675
                                        #   Parent Loop BB13_18 Depth=1
                                        # =>  This Inner Loop Header: Depth=2
	movq	stderr(%rip), %rdi
	cmpl	%r14d, %ebx
	jl	.LBB13_80
# BB#81:                                # %for.end1684
                                        #   in Loop: Header=BB13_18 Depth=1
	movl	$.L.str.59, %esi
	xorl	%eax, %eax
	callq	fprintf
	movq	-80(%rbp), %r10         # 8-byte Reload
	movq	-56(%rbp), %r11         # 8-byte Reload
.LBB13_82:                              # %for.cond1687.preheader
                                        #   in Loop: Header=BB13_18 Depth=1
	movl	%r15d, -44(%rbp)        # 4-byte Spill
	xorl	%r12d, %r12d
	movq	%r11, %r15
	movq	-104(%rbp), %rbx        # 8-byte Reload
	cmpl	%r14d, %r12d
	jge	.LBB13_85
	.p2align	4, 0x90
.LBB13_84:                              # %for.body1690
                                        #   Parent Loop BB13_18 Depth=1
                                        # =>  This Inner Loop Header: Depth=2
	movl	$20, %ecx
	movq	%r15, %rdi
	movq	%rbx, %rsi
	movl	%r10d, %edx
	callq	BZ2_hbMakeCodeLengths
	movq	-56(%rbp), %r11         # 8-byte Reload
	movq	-80(%rbp), %r10         # 8-byte Reload
	incl	%r12d
	addq	$1032, %rbx             # imm = 0x408
	addq	$258, %r15              # imm = 0x102
	cmpl	%r14d, %r12d
	jl	.LBB13_84
	jmp	.LBB13_85
.LBB13_86:                              # %for.end1704
	cmpl	$8, %r14d
	jl	.LBB13_88
# BB#87:                                # %if.then1707
	movl	$3002, %edi             # imm = 0xBBA
	callq	BZ2_bz__AssertH__fail
.LBB13_88:                              # %if.end1708
	cmpl	$32767, %r15d           # imm = 0x7FFF
	jg	.LBB13_90
# BB#89:                                # %if.end1708
	cmpl	$18003, %r15d           # imm = 0x4653
	jl	.LBB13_91
.LBB13_90:                              # %if.then1714
	movl	$3003, %edi             # imm = 0xBBB
	callq	BZ2_bz__AssertH__fail
.LBB13_91:                              # %for.cond1716.preheader
	xorl	%eax, %eax
	movq	-56(%rbp), %r9          # 8-byte Reload
	cmpl	%r14d, %eax
	jge	.LBB13_93
	.p2align	4, 0x90
.LBB13_177:                             # %for.body1719
                                        # =>This Inner Loop Header: Depth=1
	movb	%al, -110(%rbp,%rax)
	incq	%rax
	cmpl	%r14d, %eax
	jl	.LBB13_177
.LBB13_93:                              # %for.cond1726.preheader
	xorl	%eax, %eax
	cmpl	%r15d, %eax
	jl	.LBB13_104
	jmp	.LBB13_95
	.p2align	4, 0x90
.LBB13_107:                             # %while.end1746
                                        #   in Loop: Header=BB13_104 Depth=1
	movb	%cl, -110(%rbp)
	movb	%dl, 19706(%r13,%r8)
	incl	%eax
	cmpl	%r15d, %eax
	jge	.LBB13_95
.LBB13_104:                             # %for.body1729
                                        # =>This Loop Header: Depth=1
                                        #     Child Loop BB13_105 Depth 2
	movslq	%eax, %r8
	movzbl	1704(%r13,%r8), %esi
	xorl	%edx, %edx
	movb	-110(%rbp), %cl
	jmp	.LBB13_105
	.p2align	4, 0x90
.LBB13_106:                             # %while.body1740
                                        #   in Loop: Header=BB13_105 Depth=2
	movslq	%edx, %rdi
	leaq	1(%rdi), %rdx
	movzbl	-109(%rbp,%rdi), %ebx
	movb	%cl, -109(%rbp,%rdi)
	movl	%ebx, %ecx
.LBB13_105:                             # %while.cond1735
                                        #   Parent Loop BB13_104 Depth=1
                                        # =>  This Inner Loop Header: Depth=2
	movzbl	%cl, %edi
	cmpl	%edi, %esi
	jne	.LBB13_106
	jmp	.LBB13_107
.LBB13_95:                              # %for.cond1754.preheader
	xorl	%r12d, %r12d
	movl	%r15d, -44(%rbp)        # 4-byte Spill
	cmpl	%r14d, %r12d
	jl	.LBB13_97
	jmp	.LBB13_113
	.p2align	4, 0x90
.LBB13_112:                             # %if.end1804
                                        #   in Loop: Header=BB13_97 Depth=1
	movl	-72(%rbp), %r12d        # 4-byte Reload
	movslq	%r12d, %rax
	imulq	$1032, %rax, %rcx       # imm = 0x408
	leaq	39256(%r13,%rcx), %rdi
	imulq	$258, %rax, %rax        # imm = 0x102
	leaq	37708(%r13,%rax), %rsi
	movl	%r15d, %edx
	movl	%ebx, %ecx
                                        # kill: %R8D<def> %R8D<kill> %R8<kill>
	callq	BZ2_hbAssignCodes
	incl	%r12d
	movq	-56(%rbp), %r9          # 8-byte Reload
	addq	$258, %r9               # imm = 0x102
	cmpl	%r14d, %r12d
	jge	.LBB13_113
.LBB13_97:                              # %for.cond1758.preheader
                                        # =>This Loop Header: Depth=1
                                        #     Child Loop BB13_99 Depth 2
	movl	%r12d, -72(%rbp)        # 4-byte Spill
	movl	$32, %r15d
	xorl	%ebx, %ebx
	movq	%r9, %rax
	xorl	%ecx, %ecx
	movq	-80(%rbp), %r8          # 8-byte Reload
	cmpl	%r8d, %ecx
	jl	.LBB13_99
	jmp	.LBB13_108
	.p2align	4, 0x90
.LBB13_103:                             # %for.inc1794
                                        #   in Loop: Header=BB13_99 Depth=2
	incl	%ecx
	incq	%rax
	cmpl	%r8d, %ecx
	jge	.LBB13_108
.LBB13_99:                              # %for.body1761
                                        #   Parent Loop BB13_97 Depth=1
                                        # =>  This Inner Loop Header: Depth=2
	movzbl	(%rax), %edx
	cmpl	%ebx, %edx
	jle	.LBB13_101
# BB#100:                               # %if.then1770
                                        #   in Loop: Header=BB13_99 Depth=2
	movzbl	(%rax), %ebx
.LBB13_101:                             # %if.end1777
                                        #   in Loop: Header=BB13_99 Depth=2
	movzbl	(%rax), %edx
	cmpl	%r15d, %edx
	jge	.LBB13_103
# BB#102:                               # %if.then1786
                                        #   in Loop: Header=BB13_99 Depth=2
	movzbl	(%rax), %r15d
	jmp	.LBB13_103
	.p2align	4, 0x90
.LBB13_108:                             # %for.end1796
                                        #   in Loop: Header=BB13_97 Depth=1
	movq	%r9, -56(%rbp)          # 8-byte Spill
	cmpl	$21, %ebx
	jl	.LBB13_110
# BB#109:                               # %if.then1799
                                        #   in Loop: Header=BB13_97 Depth=1
	movl	$3004, %edi             # imm = 0xBBC
	callq	BZ2_bz__AssertH__fail
	movq	-80(%rbp), %r8          # 8-byte Reload
.LBB13_110:                             # %if.end1800
                                        #   in Loop: Header=BB13_97 Depth=1
	testl	%r15d, %r15d
	jg	.LBB13_112
# BB#111:                               # %if.then1803
                                        #   in Loop: Header=BB13_97 Depth=1
	movl	$3005, %edi             # imm = 0xBBD
	callq	BZ2_bz__AssertH__fail
	movq	-80(%rbp), %r8          # 8-byte Reload
	jmp	.LBB13_112
.LBB13_113:                             # %for.cond1816.preheader
	movq	%r13, %rax
	subq	$-128, %rax
	xorl	%ecx, %ecx
	cmpl	$15, %ecx
	jle	.LBB13_115
	jmp	.LBB13_121
	.p2align	4, 0x90
.LBB13_120:                             # %for.inc1837
                                        #   in Loop: Header=BB13_115 Depth=1
	incl	%ecx
	addq	$16, %rax
	cmpl	$15, %ecx
	jg	.LBB13_121
.LBB13_115:                             # %for.body1819
                                        # =>This Loop Header: Depth=1
                                        #     Child Loop BB13_117 Depth 2
	movslq	%ecx, %rdx
	movb	$0, -144(%rbp,%rdx)
	xorl	%esi, %esi
	movq	%rax, %rdi
	cmpl	$15, %esi
	jle	.LBB13_117
	jmp	.LBB13_120
	.p2align	4, 0x90
.LBB13_119:                             # %for.inc1834
                                        #   in Loop: Header=BB13_117 Depth=2
	incl	%esi
	incq	%rdi
	cmpl	$15, %esi
	jg	.LBB13_120
.LBB13_117:                             # %for.body1825
                                        #   Parent Loop BB13_115 Depth=1
                                        # =>  This Inner Loop Header: Depth=2
	cmpb	$0, (%rdi)
	je	.LBB13_119
# BB#118:                               # %if.then1830
                                        #   in Loop: Header=BB13_117 Depth=2
	movb	$1, -144(%rbp,%rdx)
	jmp	.LBB13_119
.LBB13_121:                             # %for.end1839
	movl	116(%r13), %eax
	movl	%eax, -72(%rbp)         # 4-byte Spill
	xorl	%ebx, %ebx
	cmpl	$16, %ebx
	jl	.LBB13_130
	jmp	.LBB13_123
	.p2align	4, 0x90
.LBB13_132:                             # %for.cond1840
                                        #   in Loop: Header=BB13_130 Depth=1
	movq	%r13, %rdi
	callq	bsW
	incq	%rbx
	cmpl	$16, %ebx
	jge	.LBB13_123
.LBB13_130:                             # %for.body1843
                                        # =>This Inner Loop Header: Depth=1
	cmpb	$0, -144(%rbp,%rbx)
	je	.LBB13_133
# BB#131:                               # %if.then1847
                                        #   in Loop: Header=BB13_130 Depth=1
	movl	$1, %esi
	movl	$1, %edx
	jmp	.LBB13_132
	.p2align	4, 0x90
.LBB13_133:                             # %if.else1848
                                        #   in Loop: Header=BB13_130 Depth=1
	movl	$1, %esi
	xorl	%edx, %edx
	jmp	.LBB13_132
.LBB13_123:                             # %for.cond1853.preheader
	movq	%r13, %rax
	subq	$-128, %rax
	movq	%rax, -56(%rbp)         # 8-byte Spill
	xorl	%r15d, %r15d
	cmpl	$15, %r15d
	jle	.LBB13_125
	jmp	.LBB13_137
	.p2align	4, 0x90
.LBB13_136:                             # %for.inc1878
                                        #   in Loop: Header=BB13_125 Depth=1
	incl	%r15d
	addq	$16, -56(%rbp)          # 8-byte Folded Spill
	cmpl	$15, %r15d
	jg	.LBB13_137
.LBB13_125:                             # %for.body1856
                                        # =>This Loop Header: Depth=1
                                        #     Child Loop BB13_128 Depth 2
	movslq	%r15d, %rax
	cmpb	$0, -144(%rbp,%rax)
	je	.LBB13_136
# BB#126:                               # %for.cond1861.preheader
                                        #   in Loop: Header=BB13_125 Depth=1
	xorl	%ebx, %ebx
	movq	-56(%rbp), %r12         # 8-byte Reload
	cmpl	$15, %ebx
	jle	.LBB13_128
	jmp	.LBB13_136
	.p2align	4, 0x90
.LBB13_135:                             # %for.inc1874
                                        #   in Loop: Header=BB13_128 Depth=2
	movq	%r13, %rdi
	callq	bsW
	incl	%ebx
	incq	%r12
	cmpl	$15, %ebx
	jg	.LBB13_136
.LBB13_128:                             # %for.body1864
                                        #   Parent Loop BB13_125 Depth=1
                                        # =>  This Inner Loop Header: Depth=2
	cmpb	$0, (%r12)
	je	.LBB13_134
# BB#129:                               # %if.then1871
                                        #   in Loop: Header=BB13_128 Depth=2
	movl	$1, %esi
	movl	$1, %edx
	jmp	.LBB13_135
	.p2align	4, 0x90
.LBB13_134:                             # %if.else1872
                                        #   in Loop: Header=BB13_128 Depth=2
	movl	$1, %esi
	xorl	%edx, %edx
	jmp	.LBB13_135
.LBB13_137:                             # %for.end1880
	cmpl	$3, 656(%r13)
	jl	.LBB13_139
# BB#138:                               # %if.then1884
	movq	stderr(%rip), %rdi
	movl	116(%r13), %edx
	subl	-72(%rbp), %edx         # 4-byte Folded Reload
	movl	$.L.str.60, %esi
	xorl	%eax, %eax
	callq	fprintf
.LBB13_139:                             # %if.end1888
	movl	116(%r13), %r15d
	movl	$3, %esi
	movq	%r13, %rdi
	movl	%r14d, %edx
	callq	bsW
	movl	$15, %esi
	movq	%r13, %rdi
	movl	-44(%rbp), %edx         # 4-byte Reload
	callq	bsW
	xorl	%r14d, %r14d
	cmpl	-44(%rbp), %r14d        # 4-byte Folded Reload
	jl	.LBB13_141
	jmp	.LBB13_145
	.p2align	4, 0x90
.LBB13_144:                             # %for.end1904
                                        #   in Loop: Header=BB13_141 Depth=1
	xorl	%edx, %edx
	movq	%r13, %rdi
	callq	bsW
	incl	%r14d
	cmpl	-44(%rbp), %r14d        # 4-byte Folded Reload
	jge	.LBB13_145
.LBB13_141:                             # %for.cond1894.preheader
                                        # =>This Loop Header: Depth=1
                                        #     Child Loop BB13_142 Depth 2
	xorl	%ebx, %ebx
	jmp	.LBB13_142
	.p2align	4, 0x90
.LBB13_143:                             # %for.body1901
                                        #   in Loop: Header=BB13_142 Depth=2
	movl	$1, %edx
	movq	%r13, %rdi
	callq	bsW
	incl	%ebx
.LBB13_142:                             # %for.cond1894
                                        #   Parent Loop BB13_141 Depth=1
                                        # =>  This Inner Loop Header: Depth=2
	movslq	%r14d, %rax
	movzbl	19706(%r13,%rax), %eax
	movl	$1, %esi
	cmpl	%eax, %ebx
	jl	.LBB13_143
	jmp	.LBB13_144
.LBB13_145:                             # %for.end1907
	cmpl	$3, 656(%r13)
	jl	.LBB13_147
# BB#146:                               # %if.then1911
	movq	stderr(%rip), %rdi
	movl	116(%r13), %edx
	subl	%r15d, %edx
	movl	$.L.str.61, %esi
	xorl	%eax, %eax
	callq	fprintf
.LBB13_147:                             # %if.end1915
	movl	116(%r13), %eax
	movl	%eax, -104(%rbp)        # 4-byte Spill
	xorl	%eax, %eax
	movl	-60(%rbp), %r14d        # 4-byte Reload
	movl	-44(%rbp), %ebx         # 4-byte Reload
	cmpl	%r14d, %eax
	jl	.LBB13_149
	jmp	.LBB13_157
	.p2align	4, 0x90
.LBB13_156:                             # %for.inc1958
                                        #   in Loop: Header=BB13_149 Depth=1
	movl	-72(%rbp), %eax         # 4-byte Reload
	incl	%eax
	cmpl	%r14d, %eax
	jge	.LBB13_157
.LBB13_149:                             # %for.body1920
                                        # =>This Loop Header: Depth=1
                                        #     Child Loop BB13_151 Depth 2
                                        #       Child Loop BB13_153 Depth 3
	movl	%eax, -72(%rbp)         # 4-byte Spill
	cltq
	imulq	$258, %rax, %rax        # imm = 0x102
	movq	%rax, -56(%rbp)         # 8-byte Spill
	movzbl	37708(%r13,%rax), %r12d
	movl	$5, %esi
	movq	%r13, %rdi
	movl	%r12d, %edx
	callq	bsW
	xorl	%eax, %eax
	cmpl	-80(%rbp), %eax         # 4-byte Folded Reload
	jl	.LBB13_151
	jmp	.LBB13_156
.LBB13_155:                             # %while.end1954
                                        #   in Loop: Header=BB13_151 Depth=2
	movl	$1, %esi
	xorl	%edx, %edx
	movq	%rbx, %r13
	movq	%r13, %rdi
	callq	bsW
	movl	%r15d, %eax
	incl	%eax
	movl	-60(%rbp), %r14d        # 4-byte Reload
	movl	-44(%rbp), %ebx         # 4-byte Reload
	cmpl	-80(%rbp), %eax         # 4-byte Folded Reload
	jl	.LBB13_151
	jmp	.LBB13_156
	.p2align	4, 0x90
.LBB13_152:                             # %while.body1940
                                        #   in Loop: Header=BB13_151 Depth=2
	movl	$2, %esi
	movl	$2, %edx
	movq	%rbx, %rdi
	callq	bsW
	incl	%r12d
	movq	%rbx, %r13
	movl	%r15d, %eax
.LBB13_151:                             # %while.cond1931
                                        #   Parent Loop BB13_149 Depth=1
                                        # =>  This Loop Header: Depth=2
                                        #       Child Loop BB13_153 Depth 3
	movq	-56(%rbp), %rcx         # 8-byte Reload
	leaq	(%r13,%rcx), %r14
	movq	%r13, %rbx
	movl	%eax, %r15d
	movslq	%eax, %r13
	movzbl	37708(%r13,%r14), %eax
	cmpl	%eax, %r12d
	jl	.LBB13_152
	jmp	.LBB13_153
	.p2align	4, 0x90
.LBB13_154:                             # %while.body1952
                                        #   in Loop: Header=BB13_153 Depth=3
	movl	$2, %esi
	movl	$3, %edx
	movq	%rbx, %rdi
	callq	bsW
	decl	%r12d
.LBB13_153:                             # %while.cond1943
                                        #   Parent Loop BB13_149 Depth=1
                                        #     Parent Loop BB13_151 Depth=2
                                        # =>    This Inner Loop Header: Depth=3
	movzbl	37708(%r13,%r14), %eax
	cmpl	%eax, %r12d
	jg	.LBB13_154
	jmp	.LBB13_155
.LBB13_157:                             # %for.end1960
	cmpl	$3, 656(%r13)
	jl	.LBB13_159
# BB#158:                               # %if.then1964
	movq	stderr(%rip), %rdi
	movl	116(%r13), %edx
	subl	-104(%rbp), %edx        # 4-byte Folded Reload
	movl	$.L.str.62, %esi
	xorl	%eax, %eax
	callq	fprintf
.LBB13_159:                             # %if.end1968
	movl	116(%r13), %eax
	movl	%eax, -72(%rbp)         # 4-byte Spill
	xorl	%eax, %eax
	xorl	%r12d, %r12d
	cmpl	668(%r13), %r12d
	jl	.LBB13_161
	jmp	.LBB13_172
	.p2align	4, 0x90
.LBB13_171:                             # %if.end2448
                                        #   in Loop: Header=BB13_161 Depth=1
	incl	%r12d
	movl	-80(%rbp), %eax         # 4-byte Reload
	incl	%eax
                                        # kill: %R12D<def> %R12D<kill> %R12<def>
	movl	-60(%rbp), %r14d        # 4-byte Reload
	movl	-44(%rbp), %ebx         # 4-byte Reload
	cmpl	668(%r13), %r12d
	jge	.LBB13_172
.LBB13_161:                             # %if.end1976
                                        # =>This Loop Header: Depth=1
                                        #     Child Loop BB13_168 Depth 2
	leal	49(%r12), %ecx
	movl	%ecx, -56(%rbp)         # 4-byte Spill
	cmpl	668(%r13), %ecx
	jl	.LBB13_163
# BB#162:                               # %if.then1982
                                        #   in Loop: Header=BB13_161 Depth=1
	movl	668(%r13), %ecx
	decl	%ecx
	movl	%ecx, -56(%rbp)         # 4-byte Spill
.LBB13_163:                             # %if.end1985
                                        #   in Loop: Header=BB13_161 Depth=1
	movl	%eax, -80(%rbp)         # 4-byte Spill
	movslq	%eax, %r15
	movzbl	1704(%r13,%r15), %eax
	cmpl	%r14d, %eax
	jl	.LBB13_165
# BB#164:                               # %if.then1992
                                        #   in Loop: Header=BB13_161 Depth=1
	movl	$3006, %edi             # imm = 0xBBE
	callq	BZ2_bz__AssertH__fail
.LBB13_165:                             # %if.end1993
                                        #   in Loop: Header=BB13_161 Depth=1
	cmpl	$6, %r14d
	jne	.LBB13_166
# BB#169:                               # %land.lhs.true1996
                                        #   in Loop: Header=BB13_161 Depth=1
	movl	-56(%rbp), %eax         # 4-byte Reload
	subl	%r12d, %eax
	cmpl	$49, %eax
	jne	.LBB13_166
# BB#170:                               # %if.then2001
                                        #   in Loop: Header=BB13_161 Depth=1
	movzbl	1704(%r13,%r15), %eax
	imulq	$258, %rax, %r15        # imm = 0x102
	addq	%r13, %r15
	imulq	$1032, %rax, %rbx       # imm = 0x408
	addq	%r13, %rbx
	movslq	%r12d, %r12
	movq	-120(%rbp), %r14        # 8-byte Reload
	movzwl	(%r14,%r12,2), %eax
	movzbl	37708(%rax,%r15), %esi
	movl	39256(%rbx,%rax,4), %edx
	movq	%r13, %rdi
	callq	bsW
	movzwl	2(%r14,%r12,2), %eax
	movzbl	37708(%rax,%r15), %esi
	movl	39256(%rbx,%rax,4), %edx
	movq	%r13, %rdi
	callq	bsW
	movzwl	4(%r14,%r12,2), %eax
	movzbl	37708(%rax,%r15), %esi
	movl	39256(%rbx,%rax,4), %edx
	movq	%r13, %rdi
	callq	bsW
	movzwl	6(%r14,%r12,2), %eax
	movzbl	37708(%rax,%r15), %esi
	movl	39256(%rbx,%rax,4), %edx
	movq	%r13, %rdi
	callq	bsW
	movzwl	8(%r14,%r12,2), %eax
	movzbl	37708(%rax,%r15), %esi
	movl	39256(%rbx,%rax,4), %edx
	movq	%r13, %rdi
	callq	bsW
	movzwl	10(%r14,%r12,2), %eax
	movzbl	37708(%rax,%r15), %esi
	movl	39256(%rbx,%rax,4), %edx
	movq	%r13, %rdi
	callq	bsW
	movzwl	12(%r14,%r12,2), %eax
	movzbl	37708(%rax,%r15), %esi
	movl	39256(%rbx,%rax,4), %edx
	movq	%r13, %rdi
	callq	bsW
	movzwl	14(%r14,%r12,2), %eax
	movzbl	37708(%rax,%r15), %esi
	movl	39256(%rbx,%rax,4), %edx
	movq	%r13, %rdi
	callq	bsW
	movzwl	16(%r14,%r12,2), %eax
	movzbl	37708(%rax,%r15), %esi
	movl	39256(%rbx,%rax,4), %edx
	movq	%r13, %rdi
	callq	bsW
	movzwl	18(%r14,%r12,2), %eax
	movzbl	37708(%rax,%r15), %esi
	movl	39256(%rbx,%rax,4), %edx
	movq	%r13, %rdi
	callq	bsW
	movzwl	20(%r14,%r12,2), %eax
	movzbl	37708(%rax,%r15), %esi
	movl	39256(%rbx,%rax,4), %edx
	movq	%r13, %rdi
	callq	bsW
	movzwl	22(%r14,%r12,2), %eax
	movzbl	37708(%rax,%r15), %esi
	movl	39256(%rbx,%rax,4), %edx
	movq	%r13, %rdi
	callq	bsW
	movzwl	24(%r14,%r12,2), %eax
	movzbl	37708(%rax,%r15), %esi
	movl	39256(%rbx,%rax,4), %edx
	movq	%r13, %rdi
	callq	bsW
	movzwl	26(%r14,%r12,2), %eax
	movzbl	37708(%rax,%r15), %esi
	movl	39256(%rbx,%rax,4), %edx
	movq	%r13, %rdi
	callq	bsW
	movzwl	28(%r14,%r12,2), %eax
	movzbl	37708(%rax,%r15), %esi
	movl	39256(%rbx,%rax,4), %edx
	movq	%r13, %rdi
	callq	bsW
	movzwl	30(%r14,%r12,2), %eax
	movzbl	37708(%rax,%r15), %esi
	movl	39256(%rbx,%rax,4), %edx
	movq	%r13, %rdi
	callq	bsW
	movzwl	32(%r14,%r12,2), %eax
	movzbl	37708(%rax,%r15), %esi
	movl	39256(%rbx,%rax,4), %edx
	movq	%r13, %rdi
	callq	bsW
	movzwl	34(%r14,%r12,2), %eax
	movzbl	37708(%rax,%r15), %esi
	movl	39256(%rbx,%rax,4), %edx
	movq	%r13, %rdi
	callq	bsW
	movzwl	36(%r14,%r12,2), %eax
	movzbl	37708(%rax,%r15), %esi
	movl	39256(%rbx,%rax,4), %edx
	movq	%r13, %rdi
	callq	bsW
	movzwl	38(%r14,%r12,2), %eax
	movzbl	37708(%rax,%r15), %esi
	movl	39256(%rbx,%rax,4), %edx
	movq	%r13, %rdi
	callq	bsW
	movzwl	40(%r14,%r12,2), %eax
	movzbl	37708(%rax,%r15), %esi
	movl	39256(%rbx,%rax,4), %edx
	movq	%r13, %rdi
	callq	bsW
	movzwl	42(%r14,%r12,2), %eax
	movzbl	37708(%rax,%r15), %esi
	movl	39256(%rbx,%rax,4), %edx
	movq	%r13, %rdi
	callq	bsW
	movzwl	44(%r14,%r12,2), %eax
	movzbl	37708(%rax,%r15), %esi
	movl	39256(%rbx,%rax,4), %edx
	movq	%r13, %rdi
	callq	bsW
	movzwl	46(%r14,%r12,2), %eax
	movzbl	37708(%rax,%r15), %esi
	movl	39256(%rbx,%rax,4), %edx
	movq	%r13, %rdi
	callq	bsW
	movzwl	48(%r14,%r12,2), %eax
	movzbl	37708(%rax,%r15), %esi
	movl	39256(%rbx,%rax,4), %edx
	movq	%r13, %rdi
	callq	bsW
	movzwl	50(%r14,%r12,2), %eax
	movzbl	37708(%rax,%r15), %esi
	movl	39256(%rbx,%rax,4), %edx
	movq	%r13, %rdi
	callq	bsW
	movzwl	52(%r14,%r12,2), %eax
	movzbl	37708(%rax,%r15), %esi
	movl	39256(%rbx,%rax,4), %edx
	movq	%r13, %rdi
	callq	bsW
	movzwl	54(%r14,%r12,2), %eax
	movzbl	37708(%rax,%r15), %esi
	movl	39256(%rbx,%rax,4), %edx
	movq	%r13, %rdi
	callq	bsW
	movzwl	56(%r14,%r12,2), %eax
	movzbl	37708(%rax,%r15), %esi
	movl	39256(%rbx,%rax,4), %edx
	movq	%r13, %rdi
	callq	bsW
	movzwl	58(%r14,%r12,2), %eax
	movzbl	37708(%rax,%r15), %esi
	movl	39256(%rbx,%rax,4), %edx
	movq	%r13, %rdi
	callq	bsW
	movzwl	60(%r14,%r12,2), %eax
	movzbl	37708(%rax,%r15), %esi
	movl	39256(%rbx,%rax,4), %edx
	movq	%r13, %rdi
	callq	bsW
	movzwl	62(%r14,%r12,2), %eax
	movzbl	37708(%rax,%r15), %esi
	movl	39256(%rbx,%rax,4), %edx
	movq	%r13, %rdi
	callq	bsW
	movzwl	64(%r14,%r12,2), %eax
	movzbl	37708(%rax,%r15), %esi
	movl	39256(%rbx,%rax,4), %edx
	movq	%r13, %rdi
	callq	bsW
	movzwl	66(%r14,%r12,2), %eax
	movzbl	37708(%rax,%r15), %esi
	movl	39256(%rbx,%rax,4), %edx
	movq	%r13, %rdi
	callq	bsW
	movzwl	68(%r14,%r12,2), %eax
	movzbl	37708(%rax,%r15), %esi
	movl	39256(%rbx,%rax,4), %edx
	movq	%r13, %rdi
	callq	bsW
	movzwl	70(%r14,%r12,2), %eax
	movzbl	37708(%rax,%r15), %esi
	movl	39256(%rbx,%rax,4), %edx
	movq	%r13, %rdi
	callq	bsW
	movzwl	72(%r14,%r12,2), %eax
	movzbl	37708(%rax,%r15), %esi
	movl	39256(%rbx,%rax,4), %edx
	movq	%r13, %rdi
	callq	bsW
	movzwl	74(%r14,%r12,2), %eax
	movzbl	37708(%rax,%r15), %esi
	movl	39256(%rbx,%rax,4), %edx
	movq	%r13, %rdi
	callq	bsW
	movzwl	76(%r14,%r12,2), %eax
	movzbl	37708(%rax,%r15), %esi
	movl	39256(%rbx,%rax,4), %edx
	movq	%r13, %rdi
	callq	bsW
	movzwl	78(%r14,%r12,2), %eax
	movzbl	37708(%rax,%r15), %esi
	movl	39256(%rbx,%rax,4), %edx
	movq	%r13, %rdi
	callq	bsW
	movzwl	80(%r14,%r12,2), %eax
	movzbl	37708(%rax,%r15), %esi
	movl	39256(%rbx,%rax,4), %edx
	movq	%r13, %rdi
	callq	bsW
	movzwl	82(%r14,%r12,2), %eax
	movzbl	37708(%rax,%r15), %esi
	movl	39256(%rbx,%rax,4), %edx
	movq	%r13, %rdi
	callq	bsW
	movzwl	84(%r14,%r12,2), %eax
	movzbl	37708(%rax,%r15), %esi
	movl	39256(%rbx,%rax,4), %edx
	movq	%r13, %rdi
	callq	bsW
	movzwl	86(%r14,%r12,2), %eax
	movzbl	37708(%rax,%r15), %esi
	movl	39256(%rbx,%rax,4), %edx
	movq	%r13, %rdi
	callq	bsW
	movzwl	88(%r14,%r12,2), %eax
	movzbl	37708(%rax,%r15), %esi
	movl	39256(%rbx,%rax,4), %edx
	movq	%r13, %rdi
	callq	bsW
	movzwl	90(%r14,%r12,2), %eax
	movzbl	37708(%rax,%r15), %esi
	movl	39256(%rbx,%rax,4), %edx
	movq	%r13, %rdi
	callq	bsW
	movzwl	92(%r14,%r12,2), %eax
	movzbl	37708(%rax,%r15), %esi
	movl	39256(%rbx,%rax,4), %edx
	movq	%r13, %rdi
	callq	bsW
	movzwl	94(%r14,%r12,2), %eax
	movzbl	37708(%rax,%r15), %esi
	movl	39256(%rbx,%rax,4), %edx
	movq	%r13, %rdi
	callq	bsW
	movzwl	96(%r14,%r12,2), %eax
	movzbl	37708(%rax,%r15), %esi
	movl	39256(%rbx,%rax,4), %edx
	movq	%r13, %rdi
	callq	bsW
	movzwl	98(%r14,%r12,2), %eax
	movzbl	37708(%rax,%r15), %esi
	movl	39256(%rbx,%rax,4), %edx
	movq	%r13, %rdi
	callq	bsW
	movl	-56(%rbp), %r12d        # 4-byte Reload
	jmp	.LBB13_171
	.p2align	4, 0x90
.LBB13_166:                             # %for.cond2420.preheader
                                        #   in Loop: Header=BB13_161 Depth=1
	movslq	%r12d, %rbx
	movq	-120(%rbp), %r14        # 8-byte Reload
	movl	-56(%rbp), %r12d        # 4-byte Reload
	cmpl	%r12d, %ebx
	jg	.LBB13_171
	.p2align	4, 0x90
.LBB13_168:                             # %for.body2423
                                        #   Parent Loop BB13_161 Depth=1
                                        # =>  This Inner Loop Header: Depth=2
	movzbl	1704(%r13,%r15), %eax
	imulq	$258, %rax, %rcx        # imm = 0x102
	addq	%r13, %rcx
	movzwl	(%r14,%rbx,2), %edx
	movzbl	37708(%rdx,%rcx), %esi
	imulq	$1032, %rax, %rax       # imm = 0x408
	addq	%r13, %rax
	movl	39256(%rax,%rdx,4), %edx
	movq	%r13, %rdi
	callq	bsW
	incq	%rbx
	cmpl	%r12d, %ebx
	jle	.LBB13_168
	jmp	.LBB13_171
.LBB13_172:                             # %while.end2451
	cmpl	%ebx, %eax
	je	.LBB13_174
# BB#173:                               # %if.then2454
	movl	$3007, %edi             # imm = 0xBBF
	callq	BZ2_bz__AssertH__fail
.LBB13_174:                             # %if.end2455
	cmpl	$3, 656(%r13)
	jl	.LBB13_176
# BB#175:                               # %if.then2459
	movq	stderr(%rip), %rdi
	movl	116(%r13), %edx
	subl	-72(%rbp), %edx         # 4-byte Folded Reload
	movl	$.L.str.63, %esi
	xorl	%eax, %eax
	callq	fprintf
.LBB13_176:                             # %if.end2463
	addq	$136, %rsp
	popq	%rbx
	popq	%r12
	popq	%r13
	popq	%r14
	popq	%r15
	popq	%rbp
	retq
.Lfunc_end13:
	.size	sendMTFValues, .Lfunc_end13-sendMTFValues
	.cfi_endproc

	.p2align	4, 0x90
	.type	bsFinishWrite,@function
bsFinishWrite:                          # @bsFinishWrite
	.cfi_startproc
# BB#0:                                 # %entry
	pushq	%rbp
.Lcfi80:
	.cfi_def_cfa_offset 16
.Lcfi81:
	.cfi_offset %rbp, -16
	movq	%rsp, %rbp
.Lcfi82:
	.cfi_def_cfa_register %rbp
	cmpl	$0, 644(%rdi)
	jle	.LBB14_3
	.p2align	4, 0x90
.LBB14_2:                               # %while.body
                                        # =>This Inner Loop Header: Depth=1
	movzbl	643(%rdi), %eax
	movq	80(%rdi), %rcx
	movslq	116(%rdi), %rdx
	movb	%al, (%rcx,%rdx)
	incl	116(%rdi)
	shll	$8, 640(%rdi)
	addl	$-8, 644(%rdi)
	cmpl	$0, 644(%rdi)
	jg	.LBB14_2
.LBB14_3:                               # %while.end
	popq	%rbp
	retq
.Lfunc_end14:
	.size	bsFinishWrite, .Lfunc_end14-bsFinishWrite
	.cfi_endproc

	.globl	BZ2_decompress
	.p2align	4, 0x90
	.type	BZ2_decompress,@function
BZ2_decompress:                         # @BZ2_decompress
	.cfi_startproc
# BB#0:                                 # %entry
	pushq	%rbp
.Lcfi83:
	.cfi_def_cfa_offset 16
.Lcfi84:
	.cfi_offset %rbp, -16
	movq	%rsp, %rbp
.Lcfi85:
	.cfi_def_cfa_register %rbp
	pushq	%r15
	pushq	%r14
	pushq	%r13
	pushq	%r12
	pushq	%rbx
	subq	$168, %rsp
.Lcfi86:
	.cfi_offset %rbx, -56
.Lcfi87:
	.cfi_offset %r12, -48
.Lcfi88:
	.cfi_offset %r13, -40
.Lcfi89:
	.cfi_offset %r14, -32
.Lcfi90:
	.cfi_offset %r15, -24
	movq	%rdi, %r15
	movq	(%r15), %r14
	cmpl	$10, 8(%r15)
	jne	.LBB15_2
# BB#1:                                 # %if.then
	movl	$0, 64036(%r15)
	movl	$0, 64040(%r15)
	movl	$0, 64044(%r15)
	movl	$0, 64048(%r15)
	movl	$0, 64052(%r15)
	movl	$0, 64056(%r15)
	movl	$0, 64060(%r15)
	movl	$0, 64064(%r15)
	movl	$0, 64068(%r15)
	movl	$0, 64072(%r15)
	movl	$0, 64076(%r15)
	movl	$0, 64080(%r15)
	movl	$0, 64084(%r15)
	movl	$0, 64088(%r15)
	movl	$0, 64092(%r15)
	movl	$0, 64096(%r15)
	movl	$0, 64100(%r15)
	movl	$0, 64104(%r15)
	movl	$0, 64108(%r15)
	movl	$0, 64112(%r15)
	movl	$0, 64116(%r15)
	xorps	%xmm0, %xmm0
	movups	%xmm0, 64120(%r15)
	movq	$0, 64136(%r15)
.LBB15_2:                               # %if.end
	movl	64036(%r15), %r12d
	movl	64040(%r15), %eax
	movl	%eax, -92(%rbp)         # 4-byte Spill
	movl	64044(%r15), %eax
	movl	%eax, -124(%rbp)        # 4-byte Spill
	movl	64048(%r15), %eax
	movl	%eax, -156(%rbp)        # 4-byte Spill
	movl	64052(%r15), %r10d
	movl	64056(%r15), %r11d
	movl	64060(%r15), %eax
	movl	%eax, -116(%rbp)        # 4-byte Spill
	movl	64064(%r15), %edi
	movl	64068(%r15), %eax
	movl	%eax, -72(%rbp)         # 4-byte Spill
	movl	64072(%r15), %eax
	movq	%rax, -136(%rbp)        # 8-byte Spill
	movl	64076(%r15), %esi
	movl	64080(%r15), %r9d
	movl	8(%r15), %eax
	addl	$-10, %eax
	cmpl	$40, %eax
	movl	64084(%r15), %ecx
	movq	%rcx, -144(%rbp)        # 8-byte Spill
	movl	64088(%r15), %ecx
	movq	%rcx, -184(%rbp)        # 8-byte Spill
	movl	64092(%r15), %ecx
	movl	%ecx, -120(%rbp)        # 4-byte Spill
	movl	64096(%r15), %r8d
	movl	64100(%r15), %ebx
	movl	64104(%r15), %ecx
	movq	%rcx, -152(%rbp)        # 8-byte Spill
	movl	64108(%r15), %r13d
	movl	64112(%r15), %ecx
	movq	%rcx, -200(%rbp)        # 8-byte Spill
	movl	64116(%r15), %ecx
	movl	%ecx, -76(%rbp)         # 4-byte Spill
	movq	64120(%r15), %rcx
	movq	%rcx, -176(%rbp)        # 8-byte Spill
	movq	64128(%r15), %rcx
	movq	%rcx, -48(%rbp)         # 8-byte Spill
	movq	64136(%r15), %rcx
	movq	%rcx, -168(%rbp)        # 8-byte Spill
	ja	.LBB15_9
# BB#3:                                 # %if.end
	jmpq	*.LJTI15_0(,%rax,8)
.LBB15_4:                               # %sw.bb
	movl	$10, 8(%r15)
	cmpl	$8, 36(%r15)
	jl	.LBB15_7
	jmp	.LBB15_10
.LBB15_5:                               # %if.then53
                                        #   in Loop: Header=BB15_7 Depth=1
	movq	(%r15), %rax
	incl	16(%rax)
.LBB15_6:                               # %while.body
                                        #   in Loop: Header=BB15_7 Depth=1
	cmpl	$8, 36(%r15)
	jge	.LBB15_10
.LBB15_7:                               # %if.end33
                                        # =>This Inner Loop Header: Depth=1
	movq	(%r15), %rax
	cmpl	$0, 8(%rax)
	je	.LBB15_31
# BB#8:                                 # %if.end38
                                        #   in Loop: Header=BB15_7 Depth=1
	movl	32(%r15), %eax
	shll	$8, %eax
	movq	(%r15), %rcx
	movq	(%rcx), %rcx
	movzbl	(%rcx), %ecx
	orl	%eax, %ecx
	movl	%ecx, 32(%r15)
	addl	$8, 36(%r15)
	movq	(%r15), %rax
	incq	(%rax)
	movq	(%r15), %rax
	decl	8(%rax)
	movq	(%r15), %rax
	incl	12(%rax)
	movq	(%r15), %rax
	cmpl	$0, 12(%rax)
	jne	.LBB15_6
	jmp	.LBB15_5
.LBB15_9:                               # %sw.default
	movq	%rdi, %rax
	movl	$4001, %edi             # imm = 0xFA1
	movl	%r10d, -104(%rbp)       # 4-byte Spill
	movl	%r11d, -80(%rbp)        # 4-byte Spill
	movl	%r8d, -68(%rbp)         # 4-byte Spill
	movq	%r13, -88(%rbp)         # 8-byte Spill
	movq	%r12, -112(%rbp)        # 8-byte Spill
	movl	%ebx, -56(%rbp)         # 4-byte Spill
	movl	%esi, -52(%rbp)         # 4-byte Spill
	movq	%r9, %r14
	movq	%rax, %r13
	callq	BZ2_bz__AssertH__fail
	movl	$4002, %edi             # imm = 0xFA2
	callq	BZ2_bz__AssertH__fail
	movq	%r13, %rdi
	movq	%r14, %r9
	movl	-52(%rbp), %esi         # 4-byte Reload
	movl	-56(%rbp), %ebx         # 4-byte Reload
	movq	-112(%rbp), %r12        # 8-byte Reload
	movq	-88(%rbp), %r13         # 8-byte Reload
	movl	-68(%rbp), %r8d         # 4-byte Reload
	movl	-80(%rbp), %r11d        # 4-byte Reload
	movl	-104(%rbp), %r10d       # 4-byte Reload
	jmp	.LBB15_31
.LBB15_10:                              # %if.then29
	movl	32(%r15), %edx
	movl	36(%r15), %ecx
	addl	$-8, %ecx
	shrl	%cl, %edx
	movl	%ecx, 36(%r15)
	movl	$-5, %eax
	cmpb	$66, %dl
	je	.LBB15_12
# BB#11:
	movq	-48(%rbp), %r14         # 8-byte Reload
	jmp	.LBB15_488
.LBB15_12:                              # %sw.bb62
	movl	$11, 8(%r15)
	cmpl	$8, 36(%r15)
	jl	.LBB15_15
	jmp	.LBB15_17
	.p2align	4, 0x90
.LBB15_13:                              # %if.then107
                                        #   in Loop: Header=BB15_15 Depth=1
	movq	(%r15), %rax
	incl	16(%rax)
.LBB15_14:                              # %while.body64
                                        #   in Loop: Header=BB15_15 Depth=1
	cmpl	$8, 36(%r15)
	jge	.LBB15_17
.LBB15_15:                              # %if.end78
                                        # =>This Inner Loop Header: Depth=1
	movq	(%r15), %rax
	cmpl	$0, 8(%rax)
	je	.LBB15_31
# BB#16:                                # %if.end84
                                        #   in Loop: Header=BB15_15 Depth=1
	movl	32(%r15), %eax
	shll	$8, %eax
	movq	(%r15), %rcx
	movq	(%rcx), %rcx
	movzbl	(%rcx), %ecx
	orl	%eax, %ecx
	movl	%ecx, 32(%r15)
	addl	$8, 36(%r15)
	movq	(%r15), %rax
	incq	(%rax)
	movq	(%r15), %rax
	decl	8(%rax)
	movq	(%r15), %rax
	incl	12(%rax)
	movq	(%r15), %rax
	cmpl	$0, 12(%rax)
	jne	.LBB15_14
	jmp	.LBB15_13
.LBB15_17:                              # %if.then68
	movl	32(%r15), %edx
	movl	36(%r15), %ecx
	addl	$-8, %ecx
	shrl	%cl, %edx
	movl	%ecx, 36(%r15)
	movl	$-5, %eax
	cmpb	$90, %dl
	je	.LBB15_19
# BB#18:
	movq	-48(%rbp), %r14         # 8-byte Reload
	jmp	.LBB15_488
.LBB15_19:                              # %sw.bb118
	movl	$12, 8(%r15)
	cmpl	$8, 36(%r15)
	jl	.LBB15_22
	jmp	.LBB15_24
	.p2align	4, 0x90
.LBB15_20:                              # %if.then163
                                        #   in Loop: Header=BB15_22 Depth=1
	movq	(%r15), %rax
	incl	16(%rax)
.LBB15_21:                              # %while.body120
                                        #   in Loop: Header=BB15_22 Depth=1
	cmpl	$8, 36(%r15)
	jge	.LBB15_24
.LBB15_22:                              # %if.end134
                                        # =>This Inner Loop Header: Depth=1
	movq	(%r15), %rax
	cmpl	$0, 8(%rax)
	je	.LBB15_31
# BB#23:                                # %if.end140
                                        #   in Loop: Header=BB15_22 Depth=1
	movl	32(%r15), %eax
	shll	$8, %eax
	movq	(%r15), %rcx
	movq	(%rcx), %rcx
	movzbl	(%rcx), %ecx
	orl	%eax, %ecx
	movl	%ecx, 32(%r15)
	addl	$8, 36(%r15)
	movq	(%r15), %rax
	incq	(%rax)
	movq	(%r15), %rax
	decl	8(%rax)
	movq	(%r15), %rax
	incl	12(%rax)
	movq	(%r15), %rax
	cmpl	$0, 12(%rax)
	jne	.LBB15_21
	jmp	.LBB15_20
.LBB15_24:                              # %if.then124
	movl	32(%r15), %edx
	movl	36(%r15), %ecx
	addl	$-8, %ecx
	shrl	%cl, %edx
	movl	%ecx, 36(%r15)
	movl	$-5, %eax
	cmpb	$104, %dl
	je	.LBB15_26
# BB#25:
	movq	-48(%rbp), %r14         # 8-byte Reload
	jmp	.LBB15_488
.LBB15_26:                              # %sw.bb174
	movl	$13, 8(%r15)
	cmpl	$8, 36(%r15)
	jl	.LBB15_29
	jmp	.LBB15_32
	.p2align	4, 0x90
.LBB15_27:                              # %if.then218
                                        #   in Loop: Header=BB15_29 Depth=1
	movq	(%r15), %rax
	incl	16(%rax)
.LBB15_28:                              # %while.body176
                                        #   in Loop: Header=BB15_29 Depth=1
	cmpl	$8, 36(%r15)
	jge	.LBB15_32
.LBB15_29:                              # %if.end189
                                        # =>This Inner Loop Header: Depth=1
	movq	(%r15), %rax
	cmpl	$0, 8(%rax)
	je	.LBB15_31
# BB#30:                                # %if.end195
                                        #   in Loop: Header=BB15_29 Depth=1
	movl	32(%r15), %eax
	shll	$8, %eax
	movq	(%r15), %rcx
	movq	(%rcx), %rcx
	movzbl	(%rcx), %ecx
	orl	%eax, %ecx
	movl	%ecx, 32(%r15)
	addl	$8, 36(%r15)
	movq	(%r15), %rax
	incq	(%rax)
	movq	(%r15), %rax
	decl	8(%rax)
	movq	(%r15), %rax
	incl	12(%rax)
	movq	(%r15), %rax
	cmpl	$0, 12(%rax)
	jne	.LBB15_28
	jmp	.LBB15_27
.LBB15_31:
	xorl	%eax, %eax
	movq	-48(%rbp), %r14         # 8-byte Reload
	jmp	.LBB15_488
.LBB15_32:                              # %if.then180
	movl	32(%r15), %eax
	movl	36(%r15), %ecx
	addl	$-8, %ecx
	shrl	%cl, %eax
	movzbl	%al, %edx
	movl	%ecx, 36(%r15)
	movl	%edx, 40(%r15)
	movl	$-5, %eax
	cmpl	$49, %edx
	jge	.LBB15_34
# BB#33:
	movq	-48(%rbp), %r14         # 8-byte Reload
	jmp	.LBB15_488
.LBB15_34:                              # %lor.lhs.false
	cmpl	$57, 40(%r15)
	jle	.LBB15_36
# BB#35:
	movq	-48(%rbp), %r14         # 8-byte Reload
	jmp	.LBB15_488
.LBB15_36:                              # %if.end231
	movq	%r12, -112(%rbp)        # 8-byte Spill
	movq	%rdi, %r12
	movq	%r9, -104(%rbp)         # 8-byte Spill
	movl	%ebx, -56(%rbp)         # 4-byte Spill
	movl	%esi, -52(%rbp)         # 4-byte Spill
	movq	%r13, -88(%rbp)         # 8-byte Spill
	movl	%r8d, -68(%rbp)         # 4-byte Spill
	movl	%r11d, -80(%rbp)        # 4-byte Spill
	movl	%r10d, %ebx
	addl	$-48, 40(%r15)
	movq	56(%r14), %rax
	movq	72(%r14), %rdi
	movslq	40(%r15), %rcx
	imulq	$100000, %rcx, %rsi     # imm = 0x186A0
	cmpb	$0, 44(%r15)
	je	.LBB15_40
# BB#37:                                # %if.then234
	addl	%esi, %esi
	movl	$1, %edx
                                        # kill: %ESI<def> %ESI<kill> %RSI<kill>
	callq	*%rax
	movq	%rax, 3160(%r15)
	movq	72(%r14), %rdi
	imull	$100000, 40(%r15), %esi # imm = 0x186A0
	sarl	%esi
	movl	$1, %edx
	callq	*56(%r14)
	movq	%rax, 3168(%r15)
	movl	$-3, %eax
	cmpq	$0, 3160(%r15)
	je	.LBB15_217
# BB#38:                                # %lor.lhs.false252
	cmpq	$0, 3168(%r15)
	movl	%ebx, %r10d
	movl	-80(%rbp), %r11d        # 4-byte Reload
	movl	-68(%rbp), %r8d         # 4-byte Reload
	movq	-88(%rbp), %r13         # 8-byte Reload
	movl	-52(%rbp), %esi         # 4-byte Reload
	movl	-56(%rbp), %ebx         # 4-byte Reload
	movq	-104(%rbp), %r9         # 8-byte Reload
	movq	%r12, %rdi
	movq	-112(%rbp), %r12        # 8-byte Reload
	jne	.LBB15_41
# BB#39:
	movq	-48(%rbp), %r14         # 8-byte Reload
	jmp	.LBB15_488
.LBB15_40:                              # %if.else
	shll	$2, %esi
	movl	$1, %edx
                                        # kill: %ESI<def> %ESI<kill> %RSI<kill>
	callq	*%rax
	movq	%rax, 3152(%r15)
	testq	%rax, %rax
	movl	%ebx, %r10d
	movl	-80(%rbp), %r11d        # 4-byte Reload
	movl	-68(%rbp), %r8d         # 4-byte Reload
	movq	-88(%rbp), %r13         # 8-byte Reload
	movl	-52(%rbp), %esi         # 4-byte Reload
	movl	-56(%rbp), %ebx         # 4-byte Reload
	movq	-104(%rbp), %r9         # 8-byte Reload
	movq	%r12, %rdi
	movq	-112(%rbp), %r12        # 8-byte Reload
	je	.LBB15_218
.LBB15_41:                              # %sw.bb272
	movl	$14, 8(%r15)
	movq	-48(%rbp), %r14         # 8-byte Reload
	cmpl	$8, 36(%r15)
	jl	.LBB15_44
	jmp	.LBB15_46
.LBB15_42:                              # %if.then317
                                        #   in Loop: Header=BB15_44 Depth=1
	movq	(%r15), %rax
	incl	16(%rax)
.LBB15_43:                              # %while.body274
                                        #   in Loop: Header=BB15_44 Depth=1
	cmpl	$8, 36(%r15)
	jge	.LBB15_46
.LBB15_44:                              # %if.end288
                                        # =>This Inner Loop Header: Depth=1
	movq	(%r15), %rax
	cmpl	$0, 8(%rax)
	je	.LBB15_487
# BB#45:                                # %if.end294
                                        #   in Loop: Header=BB15_44 Depth=1
	movl	32(%r15), %eax
	shll	$8, %eax
	movq	(%r15), %rcx
	movq	(%rcx), %rcx
	movzbl	(%rcx), %ecx
	orl	%eax, %ecx
	movl	%ecx, 32(%r15)
	addl	$8, 36(%r15)
	movq	(%r15), %rax
	incq	(%rax)
	movq	(%r15), %rax
	decl	8(%rax)
	movq	(%r15), %rax
	incl	12(%rax)
	movq	(%r15), %rax
	cmpl	$0, 12(%rax)
	jne	.LBB15_43
	jmp	.LBB15_42
.LBB15_46:                              # %if.then278
	movl	32(%r15), %edx
	movl	36(%r15), %ecx
	addl	$-8, %ecx
	shrl	%cl, %edx
	movl	%ecx, 36(%r15)
	cmpb	$23, %dl
	jne	.LBB15_116
.LBB15_47:                              # %sw.bb2922
	movl	$42, 8(%r15)
	movq	-48(%rbp), %r14         # 8-byte Reload
	cmpl	$8, 36(%r15)
	jl	.LBB15_50
	jmp	.LBB15_52
	.p2align	4, 0x90
.LBB15_48:                              # %if.then2969
                                        #   in Loop: Header=BB15_50 Depth=1
	movq	(%r15), %rax
	incl	16(%rax)
.LBB15_49:                              # %while.body2925
                                        #   in Loop: Header=BB15_50 Depth=1
	cmpl	$8, 36(%r15)
	jge	.LBB15_52
.LBB15_50:                              # %if.end2940
                                        # =>This Inner Loop Header: Depth=1
	movq	(%r15), %rax
	cmpl	$0, 8(%rax)
	je	.LBB15_487
# BB#51:                                # %if.end2946
                                        #   in Loop: Header=BB15_50 Depth=1
	movl	32(%r15), %eax
	shll	$8, %eax
	movq	(%r15), %rcx
	movq	(%rcx), %rcx
	movzbl	(%rcx), %ecx
	orl	%eax, %ecx
	movl	%ecx, 32(%r15)
	addl	$8, 36(%r15)
	movq	(%r15), %rax
	incq	(%rax)
	movq	(%r15), %rax
	decl	8(%rax)
	movq	(%r15), %rax
	incl	12(%rax)
	movq	(%r15), %rax
	cmpl	$0, 12(%rax)
	jne	.LBB15_49
	jmp	.LBB15_48
.LBB15_52:                              # %if.then2929
	movl	32(%r15), %edx
	movl	36(%r15), %ecx
	addl	$-8, %ecx
	shrl	%cl, %edx
	movl	%ecx, 36(%r15)
	movl	$-4, %eax
	cmpb	$114, %dl
	je	.LBB15_54
# BB#53:
	movq	-48(%rbp), %r14         # 8-byte Reload
	jmp	.LBB15_488
.LBB15_54:                              # %sw.bb2980
	movl	$43, 8(%r15)
	movq	-48(%rbp), %r14         # 8-byte Reload
	cmpl	$8, 36(%r15)
	jl	.LBB15_57
	jmp	.LBB15_59
	.p2align	4, 0x90
.LBB15_55:                              # %if.then3027
                                        #   in Loop: Header=BB15_57 Depth=1
	movq	(%r15), %rax
	incl	16(%rax)
.LBB15_56:                              # %while.body2983
                                        #   in Loop: Header=BB15_57 Depth=1
	cmpl	$8, 36(%r15)
	jge	.LBB15_59
.LBB15_57:                              # %if.end2998
                                        # =>This Inner Loop Header: Depth=1
	movq	(%r15), %rax
	cmpl	$0, 8(%rax)
	je	.LBB15_487
# BB#58:                                # %if.end3004
                                        #   in Loop: Header=BB15_57 Depth=1
	movl	32(%r15), %eax
	shll	$8, %eax
	movq	(%r15), %rcx
	movq	(%rcx), %rcx
	movzbl	(%rcx), %ecx
	orl	%eax, %ecx
	movl	%ecx, 32(%r15)
	addl	$8, 36(%r15)
	movq	(%r15), %rax
	incq	(%rax)
	movq	(%r15), %rax
	decl	8(%rax)
	movq	(%r15), %rax
	incl	12(%rax)
	movq	(%r15), %rax
	cmpl	$0, 12(%rax)
	jne	.LBB15_56
	jmp	.LBB15_55
.LBB15_59:                              # %if.then2987
	movl	32(%r15), %edx
	movl	36(%r15), %ecx
	addl	$-8, %ecx
	shrl	%cl, %edx
	movl	%ecx, 36(%r15)
	movl	$-4, %eax
	cmpb	$69, %dl
	je	.LBB15_61
# BB#60:
	movq	-48(%rbp), %r14         # 8-byte Reload
	jmp	.LBB15_488
.LBB15_61:                              # %sw.bb3038
	movl	$44, 8(%r15)
	movq	-48(%rbp), %r14         # 8-byte Reload
	cmpl	$8, 36(%r15)
	jl	.LBB15_64
	jmp	.LBB15_66
	.p2align	4, 0x90
.LBB15_62:                              # %if.then3085
                                        #   in Loop: Header=BB15_64 Depth=1
	movq	(%r15), %rax
	incl	16(%rax)
.LBB15_63:                              # %while.body3041
                                        #   in Loop: Header=BB15_64 Depth=1
	cmpl	$8, 36(%r15)
	jge	.LBB15_66
.LBB15_64:                              # %if.end3056
                                        # =>This Inner Loop Header: Depth=1
	movq	(%r15), %rax
	cmpl	$0, 8(%rax)
	je	.LBB15_487
# BB#65:                                # %if.end3062
                                        #   in Loop: Header=BB15_64 Depth=1
	movl	32(%r15), %eax
	shll	$8, %eax
	movq	(%r15), %rcx
	movq	(%rcx), %rcx
	movzbl	(%rcx), %ecx
	orl	%eax, %ecx
	movl	%ecx, 32(%r15)
	addl	$8, 36(%r15)
	movq	(%r15), %rax
	incq	(%rax)
	movq	(%r15), %rax
	decl	8(%rax)
	movq	(%r15), %rax
	incl	12(%rax)
	movq	(%r15), %rax
	cmpl	$0, 12(%rax)
	jne	.LBB15_63
	jmp	.LBB15_62
.LBB15_66:                              # %if.then3045
	movl	32(%r15), %edx
	movl	36(%r15), %ecx
	addl	$-8, %ecx
	shrl	%cl, %edx
	movl	%ecx, 36(%r15)
	movl	$-4, %eax
	cmpb	$56, %dl
	je	.LBB15_68
# BB#67:
	movq	-48(%rbp), %r14         # 8-byte Reload
	jmp	.LBB15_488
.LBB15_68:                              # %sw.bb3096
	movl	$45, 8(%r15)
	movq	-48(%rbp), %r14         # 8-byte Reload
	cmpl	$8, 36(%r15)
	jl	.LBB15_71
	jmp	.LBB15_73
	.p2align	4, 0x90
.LBB15_69:                              # %if.then3143
                                        #   in Loop: Header=BB15_71 Depth=1
	movq	(%r15), %rax
	incl	16(%rax)
.LBB15_70:                              # %while.body3099
                                        #   in Loop: Header=BB15_71 Depth=1
	cmpl	$8, 36(%r15)
	jge	.LBB15_73
.LBB15_71:                              # %if.end3114
                                        # =>This Inner Loop Header: Depth=1
	movq	(%r15), %rax
	cmpl	$0, 8(%rax)
	je	.LBB15_487
# BB#72:                                # %if.end3120
                                        #   in Loop: Header=BB15_71 Depth=1
	movl	32(%r15), %eax
	shll	$8, %eax
	movq	(%r15), %rcx
	movq	(%rcx), %rcx
	movzbl	(%rcx), %ecx
	orl	%eax, %ecx
	movl	%ecx, 32(%r15)
	addl	$8, 36(%r15)
	movq	(%r15), %rax
	incq	(%rax)
	movq	(%r15), %rax
	decl	8(%rax)
	movq	(%r15), %rax
	incl	12(%rax)
	movq	(%r15), %rax
	cmpl	$0, 12(%rax)
	jne	.LBB15_70
	jmp	.LBB15_69
.LBB15_73:                              # %if.then3103
	movl	32(%r15), %edx
	movl	36(%r15), %ecx
	addl	$-8, %ecx
	shrl	%cl, %edx
	movl	%ecx, 36(%r15)
	movl	$-4, %eax
	cmpb	$80, %dl
	je	.LBB15_75
# BB#74:
	movq	-48(%rbp), %r14         # 8-byte Reload
	jmp	.LBB15_488
.LBB15_75:                              # %sw.bb3154
	movl	$46, 8(%r15)
	movq	-48(%rbp), %r14         # 8-byte Reload
	cmpl	$8, 36(%r15)
	jl	.LBB15_78
	jmp	.LBB15_80
	.p2align	4, 0x90
.LBB15_76:                              # %if.then3201
                                        #   in Loop: Header=BB15_78 Depth=1
	movq	(%r15), %rax
	incl	16(%rax)
.LBB15_77:                              # %while.body3157
                                        #   in Loop: Header=BB15_78 Depth=1
	cmpl	$8, 36(%r15)
	jge	.LBB15_80
.LBB15_78:                              # %if.end3172
                                        # =>This Inner Loop Header: Depth=1
	movq	(%r15), %rax
	cmpl	$0, 8(%rax)
	je	.LBB15_487
# BB#79:                                # %if.end3178
                                        #   in Loop: Header=BB15_78 Depth=1
	movl	32(%r15), %eax
	shll	$8, %eax
	movq	(%r15), %rcx
	movq	(%rcx), %rcx
	movzbl	(%rcx), %ecx
	orl	%eax, %ecx
	movl	%ecx, 32(%r15)
	addl	$8, 36(%r15)
	movq	(%r15), %rax
	incq	(%rax)
	movq	(%r15), %rax
	decl	8(%rax)
	movq	(%r15), %rax
	incl	12(%rax)
	movq	(%r15), %rax
	cmpl	$0, 12(%rax)
	jne	.LBB15_77
	jmp	.LBB15_76
.LBB15_80:                              # %if.then3161
	movl	32(%r15), %edx
	movl	36(%r15), %ecx
	addl	$-8, %ecx
	shrl	%cl, %edx
	movl	%ecx, 36(%r15)
	movl	$-4, %eax
	cmpb	$-112, %dl
	jne	.LBB15_488
# BB#81:                                # %if.end3211
	movl	$0, 3180(%r15)
.LBB15_82:                              # %sw.bb3212
	movl	$47, 8(%r15)
	movq	-48(%rbp), %r14         # 8-byte Reload
	cmpl	$8, 36(%r15)
	jl	.LBB15_85
	jmp	.LBB15_87
	.p2align	4, 0x90
.LBB15_83:                              # %if.then3259
                                        #   in Loop: Header=BB15_85 Depth=1
	movq	(%r15), %rax
	incl	16(%rax)
.LBB15_84:                              # %while.body3215
                                        #   in Loop: Header=BB15_85 Depth=1
	cmpl	$8, 36(%r15)
	jge	.LBB15_87
.LBB15_85:                              # %if.end3230
                                        # =>This Inner Loop Header: Depth=1
	movq	(%r15), %rax
	cmpl	$0, 8(%rax)
	je	.LBB15_487
# BB#86:                                # %if.end3236
                                        #   in Loop: Header=BB15_85 Depth=1
	movl	32(%r15), %eax
	shll	$8, %eax
	movq	(%r15), %rcx
	movq	(%rcx), %rcx
	movzbl	(%rcx), %ecx
	orl	%eax, %ecx
	movl	%ecx, 32(%r15)
	addl	$8, 36(%r15)
	movq	(%r15), %rax
	incq	(%rax)
	movq	(%r15), %rax
	decl	8(%rax)
	movq	(%r15), %rax
	incl	12(%rax)
	movq	(%r15), %rax
	cmpl	$0, 12(%rax)
	jne	.LBB15_84
	jmp	.LBB15_83
.LBB15_87:                              # %if.then3219
	movl	32(%r15), %eax
	movl	36(%r15), %ecx
	addl	$-8, %ecx
	shrl	%cl, %eax
	movl	%ecx, 36(%r15)
	movl	3180(%r15), %ecx
	shll	$8, %ecx
	movzbl	%al, %eax
	orl	%ecx, %eax
	movl	%eax, 3180(%r15)
.LBB15_88:                              # %sw.bb3270
	movl	$48, 8(%r15)
	movq	-48(%rbp), %r14         # 8-byte Reload
	cmpl	$8, 36(%r15)
	jl	.LBB15_91
	jmp	.LBB15_93
	.p2align	4, 0x90
.LBB15_89:                              # %if.then3317
                                        #   in Loop: Header=BB15_91 Depth=1
	movq	(%r15), %rax
	incl	16(%rax)
.LBB15_90:                              # %while.body3273
                                        #   in Loop: Header=BB15_91 Depth=1
	cmpl	$8, 36(%r15)
	jge	.LBB15_93
.LBB15_91:                              # %if.end3288
                                        # =>This Inner Loop Header: Depth=1
	movq	(%r15), %rax
	cmpl	$0, 8(%rax)
	je	.LBB15_487
# BB#92:                                # %if.end3294
                                        #   in Loop: Header=BB15_91 Depth=1
	movl	32(%r15), %eax
	shll	$8, %eax
	movq	(%r15), %rcx
	movq	(%rcx), %rcx
	movzbl	(%rcx), %ecx
	orl	%eax, %ecx
	movl	%ecx, 32(%r15)
	addl	$8, 36(%r15)
	movq	(%r15), %rax
	incq	(%rax)
	movq	(%r15), %rax
	decl	8(%rax)
	movq	(%r15), %rax
	incl	12(%rax)
	movq	(%r15), %rax
	cmpl	$0, 12(%rax)
	jne	.LBB15_90
	jmp	.LBB15_89
.LBB15_93:                              # %if.then3277
	movl	32(%r15), %eax
	movl	36(%r15), %ecx
	addl	$-8, %ecx
	shrl	%cl, %eax
	movl	%ecx, 36(%r15)
	movl	3180(%r15), %ecx
	shll	$8, %ecx
	movzbl	%al, %eax
	orl	%ecx, %eax
	movl	%eax, 3180(%r15)
.LBB15_94:                              # %sw.bb3328
	movl	$49, 8(%r15)
	movq	-48(%rbp), %r14         # 8-byte Reload
	cmpl	$8, 36(%r15)
	jl	.LBB15_97
	jmp	.LBB15_99
	.p2align	4, 0x90
.LBB15_95:                              # %if.then3375
                                        #   in Loop: Header=BB15_97 Depth=1
	movq	(%r15), %rax
	incl	16(%rax)
.LBB15_96:                              # %while.body3331
                                        #   in Loop: Header=BB15_97 Depth=1
	cmpl	$8, 36(%r15)
	jge	.LBB15_99
.LBB15_97:                              # %if.end3346
                                        # =>This Inner Loop Header: Depth=1
	movq	(%r15), %rax
	cmpl	$0, 8(%rax)
	je	.LBB15_487
# BB#98:                                # %if.end3352
                                        #   in Loop: Header=BB15_97 Depth=1
	movl	32(%r15), %eax
	shll	$8, %eax
	movq	(%r15), %rcx
	movq	(%rcx), %rcx
	movzbl	(%rcx), %ecx
	orl	%eax, %ecx
	movl	%ecx, 32(%r15)
	addl	$8, 36(%r15)
	movq	(%r15), %rax
	incq	(%rax)
	movq	(%r15), %rax
	decl	8(%rax)
	movq	(%r15), %rax
	incl	12(%rax)
	movq	(%r15), %rax
	cmpl	$0, 12(%rax)
	jne	.LBB15_96
	jmp	.LBB15_95
.LBB15_99:                              # %if.then3335
	movl	32(%r15), %eax
	movl	36(%r15), %ecx
	addl	$-8, %ecx
	shrl	%cl, %eax
	movl	%ecx, 36(%r15)
	movl	3180(%r15), %ecx
	shll	$8, %ecx
	movzbl	%al, %eax
	orl	%ecx, %eax
	movl	%eax, 3180(%r15)
.LBB15_100:                             # %sw.bb3386
	movl	$50, 8(%r15)
	movq	-48(%rbp), %r14         # 8-byte Reload
	cmpl	$8, 36(%r15)
	jl	.LBB15_103
	jmp	.LBB15_105
	.p2align	4, 0x90
.LBB15_101:                             # %if.then3433
                                        #   in Loop: Header=BB15_103 Depth=1
	movq	(%r15), %rax
	incl	16(%rax)
.LBB15_102:                             # %while.body3389
                                        #   in Loop: Header=BB15_103 Depth=1
	cmpl	$8, 36(%r15)
	jge	.LBB15_105
.LBB15_103:                             # %if.end3404
                                        # =>This Inner Loop Header: Depth=1
	movq	(%r15), %rax
	cmpl	$0, 8(%rax)
	je	.LBB15_487
# BB#104:                               # %if.end3410
                                        #   in Loop: Header=BB15_103 Depth=1
	movl	32(%r15), %eax
	shll	$8, %eax
	movq	(%r15), %rcx
	movq	(%rcx), %rcx
	movzbl	(%rcx), %ecx
	orl	%eax, %ecx
	movl	%ecx, 32(%r15)
	addl	$8, 36(%r15)
	movq	(%r15), %rax
	incq	(%rax)
	movq	(%r15), %rax
	decl	8(%rax)
	movq	(%r15), %rax
	incl	12(%rax)
	movq	(%r15), %rax
	cmpl	$0, 12(%rax)
	jne	.LBB15_102
	jmp	.LBB15_101
.LBB15_105:                             # %if.then3393
	movl	32(%r15), %eax
	movl	36(%r15), %ecx
	addl	$-8, %ecx
	shrl	%cl, %eax
	movl	%ecx, 36(%r15)
	movl	3180(%r15), %ecx
	shll	$8, %ecx
	movzbl	%al, %eax
	orl	%ecx, %eax
	movl	%eax, 3180(%r15)
	movl	$1, 8(%r15)
	movl	$4, %eax
	jmp	.LBB15_488
.LBB15_116:                             # %if.end327
	movl	$-4, %eax
	cmpb	$49, %dl
	je	.LBB15_118
# BB#117:
	movq	-48(%rbp), %r14         # 8-byte Reload
	jmp	.LBB15_488
.LBB15_118:                             # %sw.bb333
	movl	$15, 8(%r15)
	movq	-48(%rbp), %r14         # 8-byte Reload
	cmpl	$8, 36(%r15)
	jl	.LBB15_121
	jmp	.LBB15_123
	.p2align	4, 0x90
.LBB15_119:                             # %if.then378
                                        #   in Loop: Header=BB15_121 Depth=1
	movq	(%r15), %rax
	incl	16(%rax)
.LBB15_120:                             # %while.body335
                                        #   in Loop: Header=BB15_121 Depth=1
	cmpl	$8, 36(%r15)
	jge	.LBB15_123
.LBB15_121:                             # %if.end349
                                        # =>This Inner Loop Header: Depth=1
	movq	(%r15), %rax
	cmpl	$0, 8(%rax)
	je	.LBB15_487
# BB#122:                               # %if.end355
                                        #   in Loop: Header=BB15_121 Depth=1
	movl	32(%r15), %eax
	shll	$8, %eax
	movq	(%r15), %rcx
	movq	(%rcx), %rcx
	movzbl	(%rcx), %ecx
	orl	%eax, %ecx
	movl	%ecx, 32(%r15)
	addl	$8, 36(%r15)
	movq	(%r15), %rax
	incq	(%rax)
	movq	(%r15), %rax
	decl	8(%rax)
	movq	(%r15), %rax
	incl	12(%rax)
	movq	(%r15), %rax
	cmpl	$0, 12(%rax)
	jne	.LBB15_120
	jmp	.LBB15_119
.LBB15_123:                             # %if.then339
	movl	32(%r15), %edx
	movl	36(%r15), %ecx
	addl	$-8, %ecx
	shrl	%cl, %edx
	movl	%ecx, 36(%r15)
	movl	$-4, %eax
	cmpb	$65, %dl
	je	.LBB15_125
# BB#124:
	movq	-48(%rbp), %r14         # 8-byte Reload
	jmp	.LBB15_488
.LBB15_125:                             # %sw.bb389
	movl	$16, 8(%r15)
	movq	-48(%rbp), %r14         # 8-byte Reload
	cmpl	$8, 36(%r15)
	jl	.LBB15_128
	jmp	.LBB15_130
	.p2align	4, 0x90
.LBB15_126:                             # %if.then434
                                        #   in Loop: Header=BB15_128 Depth=1
	movq	(%r15), %rax
	incl	16(%rax)
.LBB15_127:                             # %while.body391
                                        #   in Loop: Header=BB15_128 Depth=1
	cmpl	$8, 36(%r15)
	jge	.LBB15_130
.LBB15_128:                             # %if.end405
                                        # =>This Inner Loop Header: Depth=1
	movq	(%r15), %rax
	cmpl	$0, 8(%rax)
	je	.LBB15_487
# BB#129:                               # %if.end411
                                        #   in Loop: Header=BB15_128 Depth=1
	movl	32(%r15), %eax
	shll	$8, %eax
	movq	(%r15), %rcx
	movq	(%rcx), %rcx
	movzbl	(%rcx), %ecx
	orl	%eax, %ecx
	movl	%ecx, 32(%r15)
	addl	$8, 36(%r15)
	movq	(%r15), %rax
	incq	(%rax)
	movq	(%r15), %rax
	decl	8(%rax)
	movq	(%r15), %rax
	incl	12(%rax)
	movq	(%r15), %rax
	cmpl	$0, 12(%rax)
	jne	.LBB15_127
	jmp	.LBB15_126
.LBB15_130:                             # %if.then395
	movl	32(%r15), %edx
	movl	36(%r15), %ecx
	addl	$-8, %ecx
	shrl	%cl, %edx
	movl	%ecx, 36(%r15)
	movl	$-4, %eax
	cmpb	$89, %dl
	je	.LBB15_132
# BB#131:
	movq	-48(%rbp), %r14         # 8-byte Reload
	jmp	.LBB15_488
.LBB15_132:                             # %sw.bb445
	movl	$17, 8(%r15)
	movq	-48(%rbp), %r14         # 8-byte Reload
	cmpl	$8, 36(%r15)
	jl	.LBB15_135
	jmp	.LBB15_137
	.p2align	4, 0x90
.LBB15_133:                             # %if.then490
                                        #   in Loop: Header=BB15_135 Depth=1
	movq	(%r15), %rax
	incl	16(%rax)
.LBB15_134:                             # %while.body447
                                        #   in Loop: Header=BB15_135 Depth=1
	cmpl	$8, 36(%r15)
	jge	.LBB15_137
.LBB15_135:                             # %if.end461
                                        # =>This Inner Loop Header: Depth=1
	movq	(%r15), %rax
	cmpl	$0, 8(%rax)
	je	.LBB15_487
# BB#136:                               # %if.end467
                                        #   in Loop: Header=BB15_135 Depth=1
	movl	32(%r15), %eax
	shll	$8, %eax
	movq	(%r15), %rcx
	movq	(%rcx), %rcx
	movzbl	(%rcx), %ecx
	orl	%eax, %ecx
	movl	%ecx, 32(%r15)
	addl	$8, 36(%r15)
	movq	(%r15), %rax
	incq	(%rax)
	movq	(%r15), %rax
	decl	8(%rax)
	movq	(%r15), %rax
	incl	12(%rax)
	movq	(%r15), %rax
	cmpl	$0, 12(%rax)
	jne	.LBB15_134
	jmp	.LBB15_133
.LBB15_137:                             # %if.then451
	movl	32(%r15), %edx
	movl	36(%r15), %ecx
	addl	$-8, %ecx
	shrl	%cl, %edx
	movl	%ecx, 36(%r15)
	movl	$-4, %eax
	cmpb	$38, %dl
	je	.LBB15_139
# BB#138:
	movq	-48(%rbp), %r14         # 8-byte Reload
	jmp	.LBB15_488
.LBB15_139:                             # %sw.bb501
	movl	$18, 8(%r15)
	movq	-48(%rbp), %r14         # 8-byte Reload
	cmpl	$8, 36(%r15)
	jl	.LBB15_142
	jmp	.LBB15_144
	.p2align	4, 0x90
.LBB15_140:                             # %if.then546
                                        #   in Loop: Header=BB15_142 Depth=1
	movq	(%r15), %rax
	incl	16(%rax)
.LBB15_141:                             # %while.body503
                                        #   in Loop: Header=BB15_142 Depth=1
	cmpl	$8, 36(%r15)
	jge	.LBB15_144
.LBB15_142:                             # %if.end517
                                        # =>This Inner Loop Header: Depth=1
	movq	(%r15), %rax
	cmpl	$0, 8(%rax)
	je	.LBB15_487
# BB#143:                               # %if.end523
                                        #   in Loop: Header=BB15_142 Depth=1
	movl	32(%r15), %eax
	shll	$8, %eax
	movq	(%r15), %rcx
	movq	(%rcx), %rcx
	movzbl	(%rcx), %ecx
	orl	%eax, %ecx
	movl	%ecx, 32(%r15)
	addl	$8, 36(%r15)
	movq	(%r15), %rax
	incq	(%rax)
	movq	(%r15), %rax
	decl	8(%rax)
	movq	(%r15), %rax
	incl	12(%rax)
	movq	(%r15), %rax
	cmpl	$0, 12(%rax)
	jne	.LBB15_141
	jmp	.LBB15_140
.LBB15_144:                             # %if.then507
	movl	32(%r15), %edx
	movl	36(%r15), %ecx
	addl	$-8, %ecx
	shrl	%cl, %edx
	movl	%ecx, 36(%r15)
	movl	$-4, %eax
	cmpb	$83, %dl
	je	.LBB15_146
# BB#145:
	movq	-48(%rbp), %r14         # 8-byte Reload
	jmp	.LBB15_488
.LBB15_146:                             # %sw.bb557
	movl	$19, 8(%r15)
	movq	-48(%rbp), %r14         # 8-byte Reload
	cmpl	$8, 36(%r15)
	jl	.LBB15_149
	jmp	.LBB15_151
	.p2align	4, 0x90
.LBB15_147:                             # %if.then602
                                        #   in Loop: Header=BB15_149 Depth=1
	movq	(%r15), %rax
	incl	16(%rax)
.LBB15_148:                             # %while.body559
                                        #   in Loop: Header=BB15_149 Depth=1
	cmpl	$8, 36(%r15)
	jge	.LBB15_151
.LBB15_149:                             # %if.end573
                                        # =>This Inner Loop Header: Depth=1
	movq	(%r15), %rax
	cmpl	$0, 8(%rax)
	je	.LBB15_487
# BB#150:                               # %if.end579
                                        #   in Loop: Header=BB15_149 Depth=1
	movl	32(%r15), %eax
	shll	$8, %eax
	movq	(%r15), %rcx
	movq	(%rcx), %rcx
	movzbl	(%rcx), %ecx
	orl	%eax, %ecx
	movl	%ecx, 32(%r15)
	addl	$8, 36(%r15)
	movq	(%r15), %rax
	incq	(%rax)
	movq	(%r15), %rax
	decl	8(%rax)
	movq	(%r15), %rax
	incl	12(%rax)
	movq	(%r15), %rax
	cmpl	$0, 12(%rax)
	jne	.LBB15_148
	jmp	.LBB15_147
.LBB15_151:                             # %if.then563
	movl	32(%r15), %edx
	movl	36(%r15), %ecx
	addl	$-8, %ecx
	shrl	%cl, %edx
	movl	%ecx, 36(%r15)
	movl	$-4, %eax
	cmpb	$89, %dl
	jne	.LBB15_488
# BB#152:                               # %if.end612
	incl	48(%r15)
	cmpl	$2, 52(%r15)
	jl	.LBB15_154
# BB#153:                               # %if.then616
	movq	%rdi, %rcx
	movq	stderr(%rip), %rdi
	movl	48(%r15), %edx
	movl	%esi, -52(%rbp)         # 4-byte Spill
	movl	$.L.str.4, %esi
	xorl	%eax, %eax
	movl	%r10d, -104(%rbp)       # 4-byte Spill
	movl	%r11d, -80(%rbp)        # 4-byte Spill
	movl	%ebx, -56(%rbp)         # 4-byte Spill
	movl	%r8d, %ebx
	movq	%r9, %r14
	movq	%rcx, -64(%rbp)         # 8-byte Spill
	movq	%r12, -112(%rbp)        # 8-byte Spill
	callq	fprintf
	movq	-112(%rbp), %r12        # 8-byte Reload
	movq	-64(%rbp), %rdi         # 8-byte Reload
	movq	%r14, %r9
	movl	-52(%rbp), %esi         # 4-byte Reload
	movl	%ebx, %r8d
	movl	-56(%rbp), %ebx         # 4-byte Reload
	movl	-80(%rbp), %r11d        # 4-byte Reload
	movl	-104(%rbp), %r10d       # 4-byte Reload
.LBB15_154:                             # %if.end619
	movl	$0, 3176(%r15)
.LBB15_155:                             # %sw.bb620
	movl	$20, 8(%r15)
	movq	-48(%rbp), %r14         # 8-byte Reload
	cmpl	$8, 36(%r15)
	jl	.LBB15_158
	jmp	.LBB15_160
	.p2align	4, 0x90
.LBB15_156:                             # %if.then665
                                        #   in Loop: Header=BB15_158 Depth=1
	movq	(%r15), %rax
	incl	16(%rax)
.LBB15_157:                             # %while.body622
                                        #   in Loop: Header=BB15_158 Depth=1
	cmpl	$8, 36(%r15)
	jge	.LBB15_160
.LBB15_158:                             # %if.end636
                                        # =>This Inner Loop Header: Depth=1
	movq	(%r15), %rax
	cmpl	$0, 8(%rax)
	je	.LBB15_487
# BB#159:                               # %if.end642
                                        #   in Loop: Header=BB15_158 Depth=1
	movl	32(%r15), %eax
	shll	$8, %eax
	movq	(%r15), %rcx
	movq	(%rcx), %rcx
	movzbl	(%rcx), %ecx
	orl	%eax, %ecx
	movl	%ecx, 32(%r15)
	addl	$8, 36(%r15)
	movq	(%r15), %rax
	incq	(%rax)
	movq	(%r15), %rax
	decl	8(%rax)
	movq	(%r15), %rax
	incl	12(%rax)
	movq	(%r15), %rax
	cmpl	$0, 12(%rax)
	jne	.LBB15_157
	jmp	.LBB15_156
.LBB15_160:                             # %if.then626
	movl	32(%r15), %eax
	movl	36(%r15), %ecx
	addl	$-8, %ecx
	shrl	%cl, %eax
	movl	%ecx, 36(%r15)
	movl	3176(%r15), %ecx
	shll	$8, %ecx
	movzbl	%al, %eax
	orl	%ecx, %eax
	movl	%eax, 3176(%r15)
.LBB15_161:                             # %sw.bb676
	movl	$21, 8(%r15)
	movq	-48(%rbp), %r14         # 8-byte Reload
	cmpl	$8, 36(%r15)
	jl	.LBB15_164
	jmp	.LBB15_166
	.p2align	4, 0x90
.LBB15_162:                             # %if.then721
                                        #   in Loop: Header=BB15_164 Depth=1
	movq	(%r15), %rax
	incl	16(%rax)
.LBB15_163:                             # %while.body678
                                        #   in Loop: Header=BB15_164 Depth=1
	cmpl	$8, 36(%r15)
	jge	.LBB15_166
.LBB15_164:                             # %if.end692
                                        # =>This Inner Loop Header: Depth=1
	movq	(%r15), %rax
	cmpl	$0, 8(%rax)
	je	.LBB15_487
# BB#165:                               # %if.end698
                                        #   in Loop: Header=BB15_164 Depth=1
	movl	32(%r15), %eax
	shll	$8, %eax
	movq	(%r15), %rcx
	movq	(%rcx), %rcx
	movzbl	(%rcx), %ecx
	orl	%eax, %ecx
	movl	%ecx, 32(%r15)
	addl	$8, 36(%r15)
	movq	(%r15), %rax
	incq	(%rax)
	movq	(%r15), %rax
	decl	8(%rax)
	movq	(%r15), %rax
	incl	12(%rax)
	movq	(%r15), %rax
	cmpl	$0, 12(%rax)
	jne	.LBB15_163
	jmp	.LBB15_162
.LBB15_166:                             # %if.then682
	movl	32(%r15), %eax
	movl	36(%r15), %ecx
	addl	$-8, %ecx
	shrl	%cl, %eax
	movl	%ecx, 36(%r15)
	movl	3176(%r15), %ecx
	shll	$8, %ecx
	movzbl	%al, %eax
	orl	%ecx, %eax
	movl	%eax, 3176(%r15)
.LBB15_167:                             # %sw.bb732
	movl	$22, 8(%r15)
	movq	-48(%rbp), %r14         # 8-byte Reload
	cmpl	$8, 36(%r15)
	jl	.LBB15_170
	jmp	.LBB15_172
	.p2align	4, 0x90
.LBB15_168:                             # %if.then777
                                        #   in Loop: Header=BB15_170 Depth=1
	movq	(%r15), %rax
	incl	16(%rax)
.LBB15_169:                             # %while.body734
                                        #   in Loop: Header=BB15_170 Depth=1
	cmpl	$8, 36(%r15)
	jge	.LBB15_172
.LBB15_170:                             # %if.end748
                                        # =>This Inner Loop Header: Depth=1
	movq	(%r15), %rax
	cmpl	$0, 8(%rax)
	je	.LBB15_487
# BB#171:                               # %if.end754
                                        #   in Loop: Header=BB15_170 Depth=1
	movl	32(%r15), %eax
	shll	$8, %eax
	movq	(%r15), %rcx
	movq	(%rcx), %rcx
	movzbl	(%rcx), %ecx
	orl	%eax, %ecx
	movl	%ecx, 32(%r15)
	addl	$8, 36(%r15)
	movq	(%r15), %rax
	incq	(%rax)
	movq	(%r15), %rax
	decl	8(%rax)
	movq	(%r15), %rax
	incl	12(%rax)
	movq	(%r15), %rax
	cmpl	$0, 12(%rax)
	jne	.LBB15_169
	jmp	.LBB15_168
.LBB15_172:                             # %if.then738
	movl	32(%r15), %eax
	movl	36(%r15), %ecx
	addl	$-8, %ecx
	shrl	%cl, %eax
	movl	%ecx, 36(%r15)
	movl	3176(%r15), %ecx
	shll	$8, %ecx
	movzbl	%al, %eax
	orl	%ecx, %eax
	movl	%eax, 3176(%r15)
.LBB15_173:                             # %sw.bb788
	movl	$23, 8(%r15)
	movq	-48(%rbp), %r14         # 8-byte Reload
	cmpl	$8, 36(%r15)
	jl	.LBB15_176
	jmp	.LBB15_178
	.p2align	4, 0x90
.LBB15_174:                             # %if.then833
                                        #   in Loop: Header=BB15_176 Depth=1
	movq	(%r15), %rax
	incl	16(%rax)
.LBB15_175:                             # %while.body790
                                        #   in Loop: Header=BB15_176 Depth=1
	cmpl	$8, 36(%r15)
	jge	.LBB15_178
.LBB15_176:                             # %if.end804
                                        # =>This Inner Loop Header: Depth=1
	movq	(%r15), %rax
	cmpl	$0, 8(%rax)
	je	.LBB15_487
# BB#177:                               # %if.end810
                                        #   in Loop: Header=BB15_176 Depth=1
	movl	32(%r15), %eax
	shll	$8, %eax
	movq	(%r15), %rcx
	movq	(%rcx), %rcx
	movzbl	(%rcx), %ecx
	orl	%eax, %ecx
	movl	%ecx, 32(%r15)
	addl	$8, 36(%r15)
	movq	(%r15), %rax
	incq	(%rax)
	movq	(%r15), %rax
	decl	8(%rax)
	movq	(%r15), %rax
	incl	12(%rax)
	movq	(%r15), %rax
	cmpl	$0, 12(%rax)
	jne	.LBB15_175
	jmp	.LBB15_174
.LBB15_178:                             # %if.then794
	movl	32(%r15), %eax
	movl	36(%r15), %ecx
	addl	$-8, %ecx
	shrl	%cl, %eax
	movl	%ecx, 36(%r15)
	movl	3176(%r15), %ecx
	shll	$8, %ecx
	movzbl	%al, %eax
	orl	%ecx, %eax
	movl	%eax, 3176(%r15)
.LBB15_179:                             # %sw.bb844
	movl	$24, 8(%r15)
	movq	-48(%rbp), %r14         # 8-byte Reload
	cmpl	$0, 36(%r15)
	jle	.LBB15_182
	jmp	.LBB15_184
	.p2align	4, 0x90
.LBB15_180:                             # %if.then889
                                        #   in Loop: Header=BB15_182 Depth=1
	movq	(%r15), %rax
	incl	16(%rax)
.LBB15_181:                             # %while.body846
                                        #   in Loop: Header=BB15_182 Depth=1
	cmpl	$0, 36(%r15)
	jg	.LBB15_184
.LBB15_182:                             # %if.end860
                                        # =>This Inner Loop Header: Depth=1
	movq	(%r15), %rax
	cmpl	$0, 8(%rax)
	je	.LBB15_487
# BB#183:                               # %if.end866
                                        #   in Loop: Header=BB15_182 Depth=1
	movl	32(%r15), %eax
	shll	$8, %eax
	movq	(%r15), %rcx
	movq	(%rcx), %rcx
	movzbl	(%rcx), %ecx
	orl	%eax, %ecx
	movl	%ecx, 32(%r15)
	addl	$8, 36(%r15)
	movq	(%r15), %rax
	incq	(%rax)
	movq	(%r15), %rax
	decl	8(%rax)
	movq	(%r15), %rax
	incl	12(%rax)
	movq	(%r15), %rax
	cmpl	$0, 12(%rax)
	jne	.LBB15_181
	jmp	.LBB15_180
.LBB15_184:                             # %if.then850
	movl	32(%r15), %eax
	movl	36(%r15), %ecx
	decl	%ecx
	shrl	%cl, %eax
	andl	$1, %eax
	movl	%ecx, 36(%r15)
	movb	%al, 20(%r15)
	movl	$0, 56(%r15)
.LBB15_185:                             # %sw.bb895
	movl	$25, 8(%r15)
	movq	-48(%rbp), %r14         # 8-byte Reload
	cmpl	$8, 36(%r15)
	jl	.LBB15_188
	jmp	.LBB15_190
	.p2align	4, 0x90
.LBB15_186:                             # %if.then940
                                        #   in Loop: Header=BB15_188 Depth=1
	movq	(%r15), %rax
	incl	16(%rax)
.LBB15_187:                             # %while.body897
                                        #   in Loop: Header=BB15_188 Depth=1
	cmpl	$8, 36(%r15)
	jge	.LBB15_190
.LBB15_188:                             # %if.end911
                                        # =>This Inner Loop Header: Depth=1
	movq	(%r15), %rax
	cmpl	$0, 8(%rax)
	je	.LBB15_487
# BB#189:                               # %if.end917
                                        #   in Loop: Header=BB15_188 Depth=1
	movl	32(%r15), %eax
	shll	$8, %eax
	movq	(%r15), %rcx
	movq	(%rcx), %rcx
	movzbl	(%rcx), %ecx
	orl	%eax, %ecx
	movl	%ecx, 32(%r15)
	addl	$8, 36(%r15)
	movq	(%r15), %rax
	incq	(%rax)
	movq	(%r15), %rax
	decl	8(%rax)
	movq	(%r15), %rax
	incl	12(%rax)
	movq	(%r15), %rax
	cmpl	$0, 12(%rax)
	jne	.LBB15_187
	jmp	.LBB15_186
.LBB15_190:                             # %if.then901
	movl	32(%r15), %eax
	movl	36(%r15), %ecx
	addl	$-8, %ecx
	shrl	%cl, %eax
	movl	%ecx, 36(%r15)
	movl	56(%r15), %ecx
	shll	$8, %ecx
	movzbl	%al, %eax
	orl	%ecx, %eax
	movl	%eax, 56(%r15)
.LBB15_191:                             # %sw.bb951
	movl	$26, 8(%r15)
	movq	-48(%rbp), %r14         # 8-byte Reload
	cmpl	$8, 36(%r15)
	jl	.LBB15_194
	jmp	.LBB15_196
	.p2align	4, 0x90
.LBB15_192:                             # %if.then996
                                        #   in Loop: Header=BB15_194 Depth=1
	movq	(%r15), %rax
	incl	16(%rax)
.LBB15_193:                             # %while.body953
                                        #   in Loop: Header=BB15_194 Depth=1
	cmpl	$8, 36(%r15)
	jge	.LBB15_196
.LBB15_194:                             # %if.end967
                                        # =>This Inner Loop Header: Depth=1
	movq	(%r15), %rax
	cmpl	$0, 8(%rax)
	je	.LBB15_487
# BB#195:                               # %if.end973
                                        #   in Loop: Header=BB15_194 Depth=1
	movl	32(%r15), %eax
	shll	$8, %eax
	movq	(%r15), %rcx
	movq	(%rcx), %rcx
	movzbl	(%rcx), %ecx
	orl	%eax, %ecx
	movl	%ecx, 32(%r15)
	addl	$8, 36(%r15)
	movq	(%r15), %rax
	incq	(%rax)
	movq	(%r15), %rax
	decl	8(%rax)
	movq	(%r15), %rax
	incl	12(%rax)
	movq	(%r15), %rax
	cmpl	$0, 12(%rax)
	jne	.LBB15_193
	jmp	.LBB15_192
.LBB15_196:                             # %if.then957
	movl	32(%r15), %eax
	movl	36(%r15), %ecx
	addl	$-8, %ecx
	shrl	%cl, %eax
	movl	%ecx, 36(%r15)
	movl	56(%r15), %ecx
	shll	$8, %ecx
	movzbl	%al, %eax
	orl	%ecx, %eax
	movl	%eax, 56(%r15)
.LBB15_197:                             # %sw.bb1007
	movl	$27, 8(%r15)
	movq	-48(%rbp), %r14         # 8-byte Reload
	cmpl	$8, 36(%r15)
	jl	.LBB15_200
	jmp	.LBB15_202
	.p2align	4, 0x90
.LBB15_198:                             # %if.then1052
                                        #   in Loop: Header=BB15_200 Depth=1
	movq	(%r15), %rax
	incl	16(%rax)
.LBB15_199:                             # %while.body1009
                                        #   in Loop: Header=BB15_200 Depth=1
	cmpl	$8, 36(%r15)
	jge	.LBB15_202
.LBB15_200:                             # %if.end1023
                                        # =>This Inner Loop Header: Depth=1
	movq	(%r15), %rax
	cmpl	$0, 8(%rax)
	je	.LBB15_487
# BB#201:                               # %if.end1029
                                        #   in Loop: Header=BB15_200 Depth=1
	movl	32(%r15), %eax
	shll	$8, %eax
	movq	(%r15), %rcx
	movq	(%rcx), %rcx
	movzbl	(%rcx), %ecx
	orl	%eax, %ecx
	movl	%ecx, 32(%r15)
	addl	$8, 36(%r15)
	movq	(%r15), %rax
	incq	(%rax)
	movq	(%r15), %rax
	decl	8(%rax)
	movq	(%r15), %rax
	incl	12(%rax)
	movq	(%r15), %rax
	cmpl	$0, 12(%rax)
	jne	.LBB15_199
	jmp	.LBB15_198
.LBB15_202:                             # %if.then1013
	movl	32(%r15), %eax
	movl	36(%r15), %ecx
	addl	$-8, %ecx
	shrl	%cl, %eax
	movl	%ecx, 36(%r15)
	movl	56(%r15), %ecx
	shll	$8, %ecx
	movzbl	%al, %edx
	orl	%ecx, %edx
	movl	%edx, 56(%r15)
	movl	$-4, %eax
	testl	%edx, %edx
	js	.LBB15_488
# BB#203:                               # %if.end1067
	imull	$100000, 40(%r15), %edx # imm = 0x186A0
	orl	$10, %edx
	xorl	%ecx, %ecx
	cmpl	%edx, 56(%r15)
	jg	.LBB15_488
	jmp	.LBB15_219
.LBB15_217:
	movl	%ebx, %r10d
	movl	-80(%rbp), %r11d        # 4-byte Reload
	movl	-68(%rbp), %r8d         # 4-byte Reload
	movq	-88(%rbp), %r13         # 8-byte Reload
	movq	-48(%rbp), %r14         # 8-byte Reload
	movl	-52(%rbp), %esi         # 4-byte Reload
	movl	-56(%rbp), %ebx         # 4-byte Reload
	movq	-104(%rbp), %r9         # 8-byte Reload
	movq	%r12, %rdi
	movq	-112(%rbp), %r12        # 8-byte Reload
	jmp	.LBB15_488
.LBB15_218:
	movl	$-3, %eax
	movq	-48(%rbp), %r14         # 8-byte Reload
	jmp	.LBB15_488
.LBB15_219:                             # %for.cond
	cmpl	$16, %ecx
	movl	%ecx, %r12d
	jge	.LBB15_226
.LBB15_220:                             # %sw.bb1078
	movl	$28, 8(%r15)
	movq	-48(%rbp), %r14         # 8-byte Reload
	cmpl	$0, 36(%r15)
	jle	.LBB15_223
	jmp	.LBB15_225
	.p2align	4, 0x90
.LBB15_221:                             # %if.then1123
                                        #   in Loop: Header=BB15_223 Depth=1
	movq	(%r15), %rax
	incl	16(%rax)
.LBB15_222:                             # %while.body1080
                                        #   in Loop: Header=BB15_223 Depth=1
	cmpl	$0, 36(%r15)
	jg	.LBB15_225
.LBB15_223:                             # %if.end1094
                                        # =>This Inner Loop Header: Depth=1
	movq	(%r15), %rax
	cmpl	$0, 8(%rax)
	je	.LBB15_487
# BB#224:                               # %if.end1100
                                        #   in Loop: Header=BB15_223 Depth=1
	movl	32(%r15), %eax
	shll	$8, %eax
	movq	(%r15), %rcx
	movq	(%rcx), %rcx
	movzbl	(%rcx), %ecx
	orl	%eax, %ecx
	movl	%ecx, 32(%r15)
	addl	$8, 36(%r15)
	movq	(%r15), %rax
	incq	(%rax)
	movq	(%r15), %rax
	decl	8(%rax)
	movq	(%r15), %rax
	incl	12(%rax)
	movq	(%r15), %rax
	cmpl	$0, 12(%rax)
	jne	.LBB15_222
	jmp	.LBB15_221
.LBB15_225:                             # %if.then1084
	movl	32(%r15), %eax
	movl	36(%r15), %ecx
	decl	%ecx
	shrl	%cl, %eax
	movl	%ecx, 36(%r15)
	movslq	%r12d, %rcx
	andb	$1, %al
	movb	%al, 3452(%r15,%rcx)
	incl	%ecx
	jmp	.LBB15_219
.LBB15_226:                             # %for.cond1139.preheader
	xorl	%r12d, %r12d
	xorl	%eax, %eax
	cmpl	$255, %eax
	jg	.LBB15_230
	.p2align	4, 0x90
.LBB15_227:                             # %for.body1142
                                        # =>This Inner Loop Header: Depth=1
	movb	$0, 3196(%r15,%rax)
	incq	%rax
	cmpl	$255, %eax
	jle	.LBB15_227
	jmp	.LBB15_230
.LBB15_229:                             # %for.inc1226
	incl	%r12d
.LBB15_230:                             # %for.cond1148
	cmpl	$15, %r12d
	jg	.LBB15_232
# BB#231:                               # %for.body1151
	movslq	%r12d, %rcx
	xorl	%eax, %eax
	cmpb	$0, 3452(%r15,%rcx)
	jne	.LBB15_273
	jmp	.LBB15_229
.LBB15_232:                             # %for.end1228
	movq	%r12, -112(%rbp)        # 8-byte Spill
	movq	%rdi, -64(%rbp)         # 8-byte Spill
	movq	%r9, -104(%rbp)         # 8-byte Spill
	movl	%ebx, -56(%rbp)         # 4-byte Spill
	movl	%esi, -52(%rbp)         # 4-byte Spill
	movl	%r8d, %r12d
	movl	%r11d, %r14d
	movl	%r10d, %ebx
	movq	%r15, %rdi
	callq	makeMaps_d
	cmpl	$0, 3192(%r15)
	je	.LBB15_269
# BB#233:                               # %if.end1232
	movl	3192(%r15), %eax
	addl	$2, %eax
	movl	%eax, -156(%rbp)        # 4-byte Spill
	movl	%ebx, %r10d
	movl	%r14d, %r11d
	movl	%r12d, %r8d
	movl	-52(%rbp), %esi         # 4-byte Reload
	movl	-56(%rbp), %ebx         # 4-byte Reload
	movq	-104(%rbp), %r9         # 8-byte Reload
	movq	-64(%rbp), %rdi         # 8-byte Reload
	movq	-112(%rbp), %r12        # 8-byte Reload
.LBB15_234:                             # %sw.bb1235
	movl	$30, 8(%r15)
	movq	-48(%rbp), %r14         # 8-byte Reload
	cmpl	$3, 36(%r15)
	jl	.LBB15_237
	jmp	.LBB15_239
	.p2align	4, 0x90
.LBB15_235:                             # %if.then1279
                                        #   in Loop: Header=BB15_237 Depth=1
	movq	(%r15), %rax
	incl	16(%rax)
.LBB15_236:                             # %while.body1237
                                        #   in Loop: Header=BB15_237 Depth=1
	cmpl	$3, 36(%r15)
	jge	.LBB15_239
.LBB15_237:                             # %if.end1250
                                        # =>This Inner Loop Header: Depth=1
	movq	(%r15), %rax
	cmpl	$0, 8(%rax)
	je	.LBB15_487
# BB#238:                               # %if.end1256
                                        #   in Loop: Header=BB15_237 Depth=1
	movl	32(%r15), %eax
	shll	$8, %eax
	movq	(%r15), %rcx
	movq	(%rcx), %rcx
	movzbl	(%rcx), %ecx
	orl	%eax, %ecx
	movl	%ecx, 32(%r15)
	addl	$8, 36(%r15)
	movq	(%r15), %rax
	incq	(%rax)
	movq	(%r15), %rax
	decl	8(%rax)
	movq	(%r15), %rax
	incl	12(%rax)
	movq	(%r15), %rax
	cmpl	$0, 12(%rax)
	jne	.LBB15_236
	jmp	.LBB15_235
.LBB15_239:                             # %if.then1241
	movl	32(%r15), %r10d
	movl	36(%r15), %ecx
	addl	$-3, %ecx
	shrl	%cl, %r10d
	andl	$7, %r10d
	movl	%ecx, 36(%r15)
	cmpl	$2, %r10d
	movl	$-4, %eax
	jl	.LBB15_488
# BB#240:                               # %if.then1241
	cmpl	$6, %r10d
	jg	.LBB15_271
.LBB15_241:                             # %sw.bb1292
	movl	$31, 8(%r15)
	movq	-48(%rbp), %r14         # 8-byte Reload
	cmpl	$15, 36(%r15)
	jl	.LBB15_244
	jmp	.LBB15_247
	.p2align	4, 0x90
.LBB15_242:                             # %if.then1336
                                        #   in Loop: Header=BB15_244 Depth=1
	movq	(%r15), %rax
	incl	16(%rax)
.LBB15_243:                             # %while.body1294
                                        #   in Loop: Header=BB15_244 Depth=1
	cmpl	$15, 36(%r15)
	jge	.LBB15_247
.LBB15_244:                             # %if.end1307
                                        # =>This Inner Loop Header: Depth=1
	movq	(%r15), %rax
	cmpl	$0, 8(%rax)
	je	.LBB15_487
# BB#245:                               # %if.end1313
                                        #   in Loop: Header=BB15_244 Depth=1
	movl	32(%r15), %eax
	shll	$8, %eax
	movq	(%r15), %rcx
	movq	(%rcx), %rcx
	movzbl	(%rcx), %ecx
	orl	%eax, %ecx
	movl	%ecx, 32(%r15)
	addl	$8, 36(%r15)
	movq	(%r15), %rax
	incq	(%rax)
	movq	(%r15), %rax
	decl	8(%rax)
	movq	(%r15), %rax
	incl	12(%rax)
	movq	(%r15), %rax
	cmpl	$0, 12(%rax)
	jne	.LBB15_243
	jmp	.LBB15_242
.LBB15_247:                             # %if.then1298
	movl	32(%r15), %r11d
	movl	36(%r15), %ecx
	addl	$-15, %ecx
	shrl	%cl, %r11d
	andl	$32767, %r11d           # imm = 0x7FFF
	movl	%ecx, 36(%r15)
	xorl	%eax, %eax
	testl	%r11d, %r11d
	jle	.LBB15_270
.LBB15_248:                             # %for.cond1346
	cmpl	%r11d, %eax
	movl	%r8d, -68(%rbp)         # 4-byte Spill
	movq	%r13, -88(%rbp)         # 8-byte Spill
	jge	.LBB15_260
# BB#249:
	movl	$0, -92(%rbp)           # 4-byte Folded Spill
	movl	%eax, %r12d
.LBB15_250:                             # %sw.bb1351
                                        # =>This Loop Header: Depth=1
                                        #     Child Loop BB15_253 Depth 2
	movl	$32, 8(%r15)
	movq	-48(%rbp), %r14         # 8-byte Reload
	cmpl	$0, 36(%r15)
	jle	.LBB15_253
	jmp	.LBB15_255
	.p2align	4, 0x90
.LBB15_251:                             # %if.then1397
                                        #   in Loop: Header=BB15_253 Depth=2
	movq	(%r15), %rax
	incl	16(%rax)
.LBB15_252:                             # %while.body1354
                                        #   in Loop: Header=BB15_253 Depth=2
	cmpl	$0, 36(%r15)
	jg	.LBB15_255
.LBB15_253:                             # %if.end1368
                                        #   Parent Loop BB15_250 Depth=1
                                        # =>  This Inner Loop Header: Depth=2
	movq	(%r15), %rax
	cmpl	$0, 8(%rax)
	je	.LBB15_487
# BB#254:                               # %if.end1374
                                        #   in Loop: Header=BB15_253 Depth=2
	movl	32(%r15), %eax
	shll	$8, %eax
	movq	(%r15), %rcx
	movq	(%rcx), %rcx
	movzbl	(%rcx), %ecx
	orl	%eax, %ecx
	movl	%ecx, 32(%r15)
	addl	$8, 36(%r15)
	movq	(%r15), %rax
	incq	(%rax)
	movq	(%r15), %rax
	decl	8(%rax)
	movq	(%r15), %rax
	incl	12(%rax)
	movq	(%r15), %rax
	cmpl	$0, 12(%rax)
	jne	.LBB15_252
	jmp	.LBB15_251
.LBB15_255:                             # %if.then1358
                                        #   in Loop: Header=BB15_250 Depth=1
	movl	32(%r15), %eax
	movl	36(%r15), %ecx
	decl	%ecx
	shrl	%cl, %eax
	movl	%ecx, 36(%r15)
	andb	$1, %al
	je	.LBB15_272
# BB#256:                               # %if.end1407
                                        #   in Loop: Header=BB15_250 Depth=1
	movl	-92(%rbp), %ecx         # 4-byte Reload
	incl	%ecx
	movl	$-4, %eax
	movl	%ecx, -92(%rbp)         # 4-byte Spill
	cmpl	%r10d, %ecx
	jl	.LBB15_250
# BB#257:
	movq	-48(%rbp), %r14         # 8-byte Reload
	jmp	.LBB15_488
.LBB15_260:                             # %for.cond1422.preheader
	xorl	%eax, %eax
	movl	-76(%rbp), %ecx         # 4-byte Reload
	jmp	.LBB15_262
	.p2align	4, 0x90
.LBB15_261:                             # %for.body1426
                                        #   in Loop: Header=BB15_262 Depth=1
	movb	%al, -190(%rbp,%rax)
	incb	%al
.LBB15_262:                             # %for.cond1422
                                        # =>This Inner Loop Header: Depth=1
	movzbl	%al, %eax
	cmpl	%r10d, %eax
	jl	.LBB15_261
# BB#263:                               # %for.cond1432.preheader
	xorl	%eax, %eax
	xorl	%r12d, %r12d
	cmpl	%r11d, %r12d
	jge	.LBB15_268
	.p2align	4, 0x90
.LBB15_265:                             # %for.body1435
                                        # =>This Loop Header: Depth=1
                                        #     Child Loop BB15_267 Depth 2
	movq	%rdi, %r13
	movq	%r12, %rax
	movq	%r9, %r12
	movl	%ebx, %r9d
	movl	%esi, %r14d
	movl	%ecx, %edi
	movq	%rax, %rsi
	cltq
	movzbl	25886(%r15,%rax), %ecx
	movb	-190(%rbp,%rcx), %dl
	jmp	.LBB15_267
	.p2align	4, 0x90
.LBB15_266:                             # %while.body1444
                                        #   in Loop: Header=BB15_267 Depth=2
	movzbl	-191(%rbp,%rcx), %ebx
	movb	%bl, -190(%rbp,%rcx)
	decb	%cl
.LBB15_267:                             # %while.cond
                                        #   Parent Loop BB15_265 Depth=1
                                        # =>  This Inner Loop Header: Depth=2
	movzbl	%cl, %ecx
	testl	%ecx, %ecx
	jg	.LBB15_266
# BB#264:                               # %while.end1452
                                        #   in Loop: Header=BB15_265 Depth=1
	movb	%dl, -190(%rbp)
	movb	%dl, 7884(%r15,%rax)
	movq	%rsi, %rax
	incl	%eax
	movl	%edi, %ecx
	xorl	%edx, %edx
	movl	%r14d, %esi
	movl	%r9d, %ebx
	movq	%r12, %r9
	movq	%rax, %r12
	movq	%r13, %rdi
	cmpl	%r11d, %r12d
	jl	.LBB15_265
.LBB15_268:
	movl	-68(%rbp), %r8d         # 4-byte Reload
	movq	-88(%rbp), %r13         # 8-byte Reload
	xorl	%eax, %eax
	cmpl	%r10d, %eax
	jge	.LBB15_311
	jmp	.LBB15_284
.LBB15_269:
	movl	$-4, %eax
	movl	%ebx, %r10d
	movl	%r14d, %r11d
	movl	%r12d, %r8d
	jmp	.LBB15_283
.LBB15_270:
	movl	$-4, %eax
	jmp	.LBB15_488
.LBB15_271:
	movq	-48(%rbp), %r14         # 8-byte Reload
	jmp	.LBB15_488
.LBB15_272:                             # %while.end1413
	movslq	%r12d, %rax
	movl	-92(%rbp), %ecx         # 4-byte Reload
	movb	%cl, 25886(%r15,%rax)
	incl	%eax
	jmp	.LBB15_248
.LBB15_273:                             # %for.cond1157
	cmpl	$15, %eax
	movl	%eax, -92(%rbp)         # 4-byte Spill
	jg	.LBB15_229
.LBB15_274:                             # %sw.bb1161
	movl	$29, 8(%r15)
	movq	-48(%rbp), %r14         # 8-byte Reload
	cmpl	$0, 36(%r15)
	jle	.LBB15_277
	jmp	.LBB15_279
	.p2align	4, 0x90
.LBB15_275:                             # %if.then1206
                                        #   in Loop: Header=BB15_277 Depth=1
	movq	(%r15), %rax
	incl	16(%rax)
.LBB15_276:                             # %while.body1163
                                        #   in Loop: Header=BB15_277 Depth=1
	cmpl	$0, 36(%r15)
	jg	.LBB15_279
.LBB15_277:                             # %if.end1177
                                        # =>This Inner Loop Header: Depth=1
	movq	(%r15), %rax
	cmpl	$0, 8(%rax)
	je	.LBB15_487
# BB#278:                               # %if.end1183
                                        #   in Loop: Header=BB15_277 Depth=1
	movl	32(%r15), %eax
	shll	$8, %eax
	movq	(%r15), %rcx
	movq	(%rcx), %rcx
	movzbl	(%rcx), %ecx
	orl	%eax, %ecx
	movl	%ecx, 32(%r15)
	addl	$8, 36(%r15)
	movq	(%r15), %rax
	incq	(%rax)
	movq	(%r15), %rax
	decl	8(%rax)
	movq	(%r15), %rax
	incl	12(%rax)
	movq	(%r15), %rax
	cmpl	$0, 12(%rax)
	jne	.LBB15_276
	jmp	.LBB15_275
.LBB15_279:                             # %if.then1167
	movl	32(%r15), %eax
	movl	36(%r15), %ecx
	decl	%ecx
	movl	%ecx, 36(%r15)
	btl	%ecx, %eax
	movl	-92(%rbp), %ecx         # 4-byte Reload
	jae	.LBB15_281
# BB#280:                               # %if.then1215
	movl	%r12d, %eax
	shll	$4, %eax
	addl	%ecx, %eax
	cltq
	movb	$1, 3196(%r15,%rax)
.LBB15_281:                             # %for.inc1222
	incl	%ecx
	movl	%ecx, %eax
	jmp	.LBB15_273
.LBB15_284:
	movl	%eax, -124(%rbp)        # 4-byte Spill
.LBB15_285:                             # %sw.bb1463
	movl	$33, 8(%r15)
	movq	-48(%rbp), %r14         # 8-byte Reload
	cmpl	$5, 36(%r15)
	jl	.LBB15_288
	jmp	.LBB15_290
	.p2align	4, 0x90
.LBB15_286:                             # %if.then1509
                                        #   in Loop: Header=BB15_288 Depth=1
	movq	(%r15), %rax
	incl	16(%rax)
.LBB15_287:                             # %while.body1466
                                        #   in Loop: Header=BB15_288 Depth=1
	cmpl	$5, 36(%r15)
	jge	.LBB15_290
.LBB15_288:                             # %if.end1480
                                        # =>This Inner Loop Header: Depth=1
	movq	(%r15), %rax
	cmpl	$0, 8(%rax)
	je	.LBB15_487
# BB#289:                               # %if.end1486
                                        #   in Loop: Header=BB15_288 Depth=1
	movl	32(%r15), %eax
	shll	$8, %eax
	movq	(%r15), %rcx
	movq	(%rcx), %rcx
	movzbl	(%rcx), %ecx
	orl	%eax, %ecx
	movl	%ecx, 32(%r15)
	addl	$8, 36(%r15)
	movq	(%r15), %rax
	incq	(%rax)
	movq	(%r15), %rax
	decl	8(%rax)
	movq	(%r15), %rax
	incl	12(%rax)
	movq	(%r15), %rax
	cmpl	$0, 12(%rax)
	jne	.LBB15_287
	jmp	.LBB15_286
.LBB15_290:                             # %if.then1470
	movl	32(%r15), %eax
	movl	36(%r15), %ecx
	addl	$-5, %ecx
	shrl	%cl, %eax
	andl	$31, %eax
	movl	%eax, -120(%rbp)        # 4-byte Spill
	movl	%ecx, 36(%r15)
	xorl	%r12d, %r12d
	cmpl	-156(%rbp), %r12d       # 4-byte Folded Reload
	jge	.LBB15_310
.LBB15_292:                             # %while.body1520
	cmpl	$0, -120(%rbp)          # 4-byte Folded Reload
	movl	$-4, %eax
	jle	.LBB15_488
# BB#293:                               # %while.body1520
	cmpl	$20, -120(%rbp)         # 4-byte Folded Reload
	jg	.LBB15_308
.LBB15_294:                             # %sw.bb1528
	movl	$34, 8(%r15)
	movq	-48(%rbp), %r14         # 8-byte Reload
	cmpl	$0, 36(%r15)
	jle	.LBB15_297
	jmp	.LBB15_299
	.p2align	4, 0x90
.LBB15_295:                             # %if.then1575
                                        #   in Loop: Header=BB15_297 Depth=1
	movq	(%r15), %rax
	incl	16(%rax)
.LBB15_296:                             # %while.body1531
                                        #   in Loop: Header=BB15_297 Depth=1
	cmpl	$0, 36(%r15)
	jg	.LBB15_299
.LBB15_297:                             # %if.end1546
                                        # =>This Inner Loop Header: Depth=1
	movq	(%r15), %rax
	cmpl	$0, 8(%rax)
	je	.LBB15_487
# BB#298:                               # %if.end1552
                                        #   in Loop: Header=BB15_297 Depth=1
	movl	32(%r15), %eax
	shll	$8, %eax
	movq	(%r15), %rcx
	movq	(%rcx), %rcx
	movzbl	(%rcx), %ecx
	orl	%eax, %ecx
	movl	%ecx, 32(%r15)
	addl	$8, 36(%r15)
	movq	(%r15), %rax
	incq	(%rax)
	movq	(%r15), %rax
	decl	8(%rax)
	movq	(%r15), %rax
	incl	12(%rax)
	movq	(%r15), %rax
	cmpl	$0, 12(%rax)
	jne	.LBB15_296
	jmp	.LBB15_295
.LBB15_299:                             # %if.then1535
	movl	32(%r15), %eax
	movl	36(%r15), %ecx
	decl	%ecx
	shrl	%cl, %eax
	movl	%ecx, 36(%r15)
	andb	$1, %al
	je	.LBB15_309
.LBB15_300:                             # %sw.bb1586
	movl	$35, 8(%r15)
	movq	-48(%rbp), %r14         # 8-byte Reload
	cmpl	$0, 36(%r15)
	jle	.LBB15_303
	jmp	.LBB15_305
	.p2align	4, 0x90
.LBB15_301:                             # %if.then1633
                                        #   in Loop: Header=BB15_303 Depth=1
	movq	(%r15), %rax
	incl	16(%rax)
.LBB15_302:                             # %while.body1589
                                        #   in Loop: Header=BB15_303 Depth=1
	cmpl	$0, 36(%r15)
	jg	.LBB15_305
.LBB15_303:                             # %if.end1604
                                        # =>This Inner Loop Header: Depth=1
	movq	(%r15), %rax
	cmpl	$0, 8(%rax)
	je	.LBB15_487
# BB#304:                               # %if.end1610
                                        #   in Loop: Header=BB15_303 Depth=1
	movl	32(%r15), %eax
	shll	$8, %eax
	movq	(%r15), %rcx
	movq	(%rcx), %rcx
	movzbl	(%rcx), %ecx
	orl	%eax, %ecx
	movl	%ecx, 32(%r15)
	addl	$8, 36(%r15)
	movq	(%r15), %rax
	incq	(%rax)
	movq	(%r15), %rax
	decl	8(%rax)
	movq	(%r15), %rax
	incl	12(%rax)
	movq	(%r15), %rax
	cmpl	$0, 12(%rax)
	jne	.LBB15_302
	jmp	.LBB15_301
.LBB15_305:                             # %if.then1593
	movl	32(%r15), %eax
	movl	36(%r15), %ecx
	decl	%ecx
	shrl	%cl, %eax
	movl	%ecx, 36(%r15)
	andb	$1, %al
	cmpb	$1, %al
	sbbl	%eax, %eax
	notl	%eax
	orl	$1, %eax
	addl	%eax, -120(%rbp)        # 4-byte Folded Spill
	jmp	.LBB15_292
.LBB15_308:
	movq	-48(%rbp), %r14         # 8-byte Reload
	jmp	.LBB15_488
.LBB15_309:                             # %while.end1647
	movslq	-124(%rbp), %rax        # 4-byte Folded Reload
	imulq	$258, %rax, %rax        # imm = 0x102
	addq	%r15, %rax
	movslq	%r12d, %r12
	movl	-120(%rbp), %ecx        # 4-byte Reload
	movb	%cl, 43888(%r12,%rax)
	incl	%r12d
	cmpl	-156(%rbp), %r12d       # 4-byte Folded Reload
	jl	.LBB15_292
.LBB15_310:                             # %for.inc1656
	movl	-124(%rbp), %eax        # 4-byte Reload
	incl	%eax
	cmpl	%r10d, %eax
	jl	.LBB15_284
.LBB15_311:                             # %for.cond1659.preheader
	movl	%r11d, -80(%rbp)        # 4-byte Spill
	leaq	43888(%r15), %rdx
	xorl	%edi, %edi
	movl	%r8d, -68(%rbp)         # 4-byte Spill
	movq	%r13, -88(%rbp)         # 8-byte Spill
	movl	%ebx, -56(%rbp)         # 4-byte Spill
	jmp	.LBB15_313
	.p2align	4, 0x90
.LBB15_312:                             # %for.end1701
                                        #   in Loop: Header=BB15_313 Depth=1
	movslq	%edi, %r13
	imulq	$1032, %r13, %rax       # imm = 0x408
	leaq	45436(%r15,%rax), %rdi
	leaq	51628(%r15,%rax), %rsi
	leaq	57820(%r15,%rax), %rdx
	imulq	$258, %r13, %rax        # imm = 0x102
	leaq	43888(%r15,%rax), %rcx
	movl	%r8d, (%rsp)
	movl	%ebx, %r8d
	movl	%r10d, %r12d
	callq	BZ2_hbCreateDecodeTables
	movl	-124(%rbp), %edi        # 4-byte Reload
	movl	%r12d, %r10d
	movl	%ebx, 64012(%r15,%r13,4)
	incl	%edi
	movq	%r14, %rdx
	addq	$258, %rdx              # imm = 0x102
	movl	-68(%rbp), %r8d         # 4-byte Reload
.LBB15_313:                             # %for.cond1659
                                        # =>This Loop Header: Depth=1
                                        #     Child Loop BB15_316 Depth 2
	cmpl	%r10d, %edi
	movl	%edi, -124(%rbp)        # 4-byte Spill
	jge	.LBB15_320
# BB#314:                               # %for.cond1663.preheader
                                        #   in Loop: Header=BB15_313 Depth=1
	movl	$32, %ebx
	xorl	%eax, %eax
	movq	%rdx, %r14
	movq	%rdx, %rcx
	xorl	%r9d, %r9d
	movl	-156(%rbp), %r8d        # 4-byte Reload
	cmpl	%r8d, %eax
	jge	.LBB15_312
	.p2align	4, 0x90
.LBB15_316:                             # %for.body1666
                                        #   Parent Loop BB15_313 Depth=1
                                        # =>  This Inner Loop Header: Depth=2
	movzbl	(%rcx), %edx
	cmpl	%r9d, %edx
	jle	.LBB15_318
# BB#317:                               # %if.then1675
                                        #   in Loop: Header=BB15_316 Depth=2
	movzbl	(%rcx), %r9d
.LBB15_318:                             # %if.end1682
                                        #   in Loop: Header=BB15_316 Depth=2
	movzbl	(%rcx), %edx
	cmpl	%ebx, %edx
	jge	.LBB15_315
# BB#319:                               # %if.then1691
                                        #   in Loop: Header=BB15_316 Depth=2
	movzbl	(%rcx), %ebx
.LBB15_315:                             # %for.inc1699
                                        #   in Loop: Header=BB15_316 Depth=2
	incl	%eax
	incq	%rcx
	cmpl	%r8d, %eax
	jl	.LBB15_316
	jmp	.LBB15_312
.LBB15_320:                             # %for.end1719
	movl	3192(%r15), %eax
	incl	%eax
	movl	%eax, -116(%rbp)        # 4-byte Spill
	imull	$100000, 40(%r15), %eax # imm = 0x186A0
	xorl	%r12d, %r12d
	movl	-80(%rbp), %r11d        # 4-byte Reload
	cmpl	$256, %r12d             # imm = 0x100
	jge	.LBB15_322
	.p2align	4, 0x90
.LBB15_321:                             # %for.body1727
                                        # =>This Inner Loop Header: Depth=1
	movl	$0, 68(%r15,%r12,4)
	incq	%r12
	cmpl	$256, %r12d             # imm = 0x100
	jl	.LBB15_321
.LBB15_322:                             # %for.cond1736.preheader
	movl	%eax, -52(%rbp)         # 4-byte Spill
	movl	%r8d, %r14d
	leaq	3724(%r15), %r8
	movl	$4095, %esi             # imm = 0xFFF
	movl	$15, %ecx
	movb	$-1, %r9b
	testl	%ecx, %ecx
	js	.LBB15_327
	.p2align	4, 0x90
.LBB15_324:                             # %for.cond1740.preheader
                                        # =>This Loop Header: Depth=1
                                        #     Child Loop BB15_326 Depth 2
	movslq	%esi, %rbx
	addq	%r8, %rbx
	xorl	%edi, %edi
	movl	%r9d, %edx
	jmp	.LBB15_326
	.p2align	4, 0x90
.LBB15_325:                             # %for.body1743
                                        #   in Loop: Header=BB15_326 Depth=2
	movb	%dl, (%rbx,%rdi)
	decb	%dl
	decq	%rdi
.LBB15_326:                             # %for.cond1740
                                        #   Parent Loop BB15_324 Depth=1
                                        # =>  This Inner Loop Header: Depth=2
	movl	%edi, %eax
	addl	$15, %eax
	jns	.LBB15_325
# BB#323:                               # %for.end1752
                                        #   in Loop: Header=BB15_324 Depth=1
	leal	1(%rsi,%rdi), %eax
	leal	(%rsi,%rdi), %edx
	movslq	%ecx, %rsi
	movl	%eax, 7820(%r15,%rsi,4)
	decl	%ecx
	addb	$-16, %r9b
	movl	%edx, %esi
	testl	%ecx, %ecx
	jns	.LBB15_324
.LBB15_327:                             # %if.then1761
	testl	%r11d, %r11d
	jg	.LBB15_329
# BB#328:                               # %if.then1761.save_state_and_return_crit_edge
	movl	$-4, %eax
	xorl	%r9d, %r9d
	movl	$0, -72(%rbp)           # 4-byte Folded Spill
	xorl	%edi, %edi
	movl	%r14d, %r8d
	movq	-88(%rbp), %r13         # 8-byte Reload
	movq	-48(%rbp), %r14         # 8-byte Reload
	movl	-52(%rbp), %esi         # 4-byte Reload
	movl	-56(%rbp), %ebx         # 4-byte Reload
	jmp	.LBB15_488
.LBB15_329:                             # %if.end1766
	movzbl	7884(%r15), %eax
	movl	64012(%r15,%rax,4), %ebx
	movq	%rax, -200(%rbp)        # 8-byte Spill
	imulq	$1032, %rax, %rax       # imm = 0x408
	leaq	45436(%r15,%rax), %rcx
	movq	%rcx, -176(%rbp)        # 8-byte Spill
	leaq	57820(%r15,%rax), %rcx
	movq	%rcx, -168(%rbp)        # 8-byte Spill
	leaq	51628(%r15,%rax), %rax
	movq	%rax, -48(%rbp)         # 8-byte Spill
	movl	$49, -72(%rbp)          # 4-byte Folded Spill
	xorl	%r9d, %r9d
	movl	%ebx, -76(%rbp)         # 4-byte Spill
	xorl	%edi, %edi
	movl	%r14d, %r8d
	movq	-88(%rbp), %r13         # 8-byte Reload
	movl	-52(%rbp), %esi         # 4-byte Reload
.LBB15_330:                             # %sw.bb1788
	movl	$36, 8(%r15)
	movq	-48(%rbp), %r14         # 8-byte Reload
	cmpl	%ebx, 36(%r15)
	jl	.LBB15_333
	jmp	.LBB15_335
	.p2align	4, 0x90
.LBB15_331:                             # %if.then1836
                                        #   in Loop: Header=BB15_333 Depth=1
	movq	(%r15), %rax
	incl	16(%rax)
.LBB15_332:                             # %while.body1791
                                        #   in Loop: Header=BB15_333 Depth=1
	cmpl	%ebx, 36(%r15)
	jge	.LBB15_335
.LBB15_333:                             # %if.end1807
                                        # =>This Inner Loop Header: Depth=1
	movq	(%r15), %rax
	cmpl	$0, 8(%rax)
	je	.LBB15_487
# BB#334:                               # %if.end1813
                                        #   in Loop: Header=BB15_333 Depth=1
	movl	32(%r15), %eax
	shll	$8, %eax
	movq	(%r15), %rcx
	movq	(%rcx), %rcx
	movzbl	(%rcx), %ecx
	orl	%eax, %ecx
	movl	%ecx, 32(%r15)
	addl	$8, 36(%r15)
	movq	(%r15), %rax
	incq	(%rax)
	movq	(%r15), %rax
	decl	8(%rax)
	movq	(%r15), %rax
	incl	12(%rax)
	movq	(%r15), %rax
	cmpl	$0, 12(%rax)
	jne	.LBB15_332
	jmp	.LBB15_331
.LBB15_335:                             # %if.then1795
	movq	%rdi, -64(%rbp)         # 8-byte Spill
	movl	32(%r15), %edx
	movl	36(%r15), %eax
	subl	%ebx, %eax
	movl	%eax, %ecx
	shrl	%cl, %edx
	movl	$1, %edi
	movl	%ebx, %ecx
	shll	%cl, %edi
	movq	%rdi, %rcx
	decl	%ecx
	andl	%edx, %ecx
	movl	%eax, 36(%r15)
	jmp	.LBB15_337
.LBB15_283:                             # %save_state_and_return
	movq	-48(%rbp), %r14         # 8-byte Reload
	movl	-52(%rbp), %esi         # 4-byte Reload
	movl	-56(%rbp), %ebx         # 4-byte Reload
	movq	-104(%rbp), %r9         # 8-byte Reload
	movq	-64(%rbp), %rdi         # 8-byte Reload
	movq	-112(%rbp), %r12        # 8-byte Reload
	jmp	.LBB15_488
.LBB15_337:                             # %while.body1843
	movl	$-4, %eax
	cmpl	$20, %ebx
	jle	.LBB15_339
# BB#338:
	movq	%rcx, -152(%rbp)        # 8-byte Spill
	movq	-64(%rbp), %rdi         # 8-byte Reload
	jmp	.LBB15_488
.LBB15_339:                             # %if.end1847
	movslq	%ebx, %rdi
	movq	-176(%rbp), %rdx        # 8-byte Reload
	cmpl	(%rdx,%rdi,4), %ecx
	movq	%rcx, -152(%rbp)        # 8-byte Spill
	jg	.LBB15_343
# BB#340:                               # %while.end1909
	cmpl	(%r14,%rdi,4), %ecx
	js	.LBB15_351
# BB#341:                               # %lor.lhs.false1915
	movl	%ecx, %edx
	subl	(%r14,%rdi,4), %edx
	cmpl	$257, %edx              # imm = 0x101
	jle	.LBB15_489
# BB#342:
	movq	-64(%rbp), %rdi         # 8-byte Reload
	jmp	.LBB15_488
.LBB15_343:                             # %if.end1853
	movq	%r14, -48(%rbp)         # 8-byte Spill
	incl	%ebx
	movq	-64(%rbp), %rdi         # 8-byte Reload
.LBB15_344:                             # %sw.bb1855
	movl	$37, 8(%r15)
	movq	-48(%rbp), %r14         # 8-byte Reload
	cmpl	$0, 36(%r15)
	jle	.LBB15_347
	jmp	.LBB15_349
	.p2align	4, 0x90
.LBB15_345:                             # %if.then1901
                                        #   in Loop: Header=BB15_347 Depth=1
	movq	(%r15), %rax
	incl	16(%rax)
.LBB15_346:                             # %while.body1858
                                        #   in Loop: Header=BB15_347 Depth=1
	cmpl	$0, 36(%r15)
	jg	.LBB15_349
.LBB15_347:                             # %if.end1872
                                        # =>This Inner Loop Header: Depth=1
	movq	(%r15), %rax
	cmpl	$0, 8(%rax)
	je	.LBB15_487
# BB#348:                               # %if.end1878
                                        #   in Loop: Header=BB15_347 Depth=1
	movl	32(%r15), %eax
	shll	$8, %eax
	movq	(%r15), %rcx
	movq	(%rcx), %rcx
	movzbl	(%rcx), %ecx
	orl	%eax, %ecx
	movl	%ecx, 32(%r15)
	addl	$8, 36(%r15)
	movq	(%r15), %rax
	incq	(%rax)
	movq	(%r15), %rax
	decl	8(%rax)
	movq	(%r15), %rax
	incl	12(%rax)
	movq	(%r15), %rax
	cmpl	$0, 12(%rax)
	jne	.LBB15_346
	jmp	.LBB15_345
.LBB15_349:                             # %if.then1862
	movq	%rdi, -64(%rbp)         # 8-byte Spill
	movl	32(%r15), %r13d
	movl	36(%r15), %ecx
	decl	%ecx
	shrl	%cl, %r13d
	andl	$1, %r13d
	movl	%ecx, 36(%r15)
	movq	-152(%rbp), %rcx        # 8-byte Reload
	leal	(%r13,%rcx,2), %ecx
	jmp	.LBB15_337
.LBB15_351:
	movq	-64(%rbp), %rdi         # 8-byte Reload
	jmp	.LBB15_488
.LBB15_352:                             # %while.body1929.loopexit16
	movl	-116(%rbp), %eax        # 4-byte Reload
.LBB15_353:                             # %while.body1929
	cmpl	%eax, -136(%rbp)        # 4-byte Folded Reload
	movl	-76(%rbp), %ecx         # 4-byte Reload
	movq	%r14, -48(%rbp)         # 8-byte Spill
	movl	%eax, -116(%rbp)        # 4-byte Spill
	movl	%esi, -52(%rbp)         # 4-byte Spill
	movl	%ebx, -56(%rbp)         # 4-byte Spill
	movq	%r13, -88(%rbp)         # 8-byte Spill
	movq	%rdi, -64(%rbp)         # 8-byte Spill
	jne	.LBB15_372
# BB#354:                               # %while.end2549
	movl	$-4, %eax
	cmpl	$0, 56(%r15)
	js	.LBB15_488
# BB#355:                               # %lor.lhs.false2553
	cmpl	%r9d, 56(%r15)
	jge	.LBB15_488
# BB#356:                               # %if.end2558
	movl	$0, 16(%r15)
	movb	$0, 12(%r15)
	movl	$-1, 3184(%r15)
	movl	$2, 8(%r15)
	cmpl	$2, 52(%r15)
	movq	%r9, -104(%rbp)         # 8-byte Spill
	jl	.LBB15_358
# BB#357:                               # %if.then2563
	movq	stderr(%rip), %rdi
	movl	$.L.str.5, %esi
	xorl	%eax, %eax
	movl	%r10d, %r12d
	movl	%r11d, %r14d
	movl	%r8d, %ebx
	callq	fprintf
	movq	-64(%rbp), %rdi         # 8-byte Reload
	movq	-104(%rbp), %r9         # 8-byte Reload
	movl	%ebx, %r8d
	movl	-56(%rbp), %ebx         # 4-byte Reload
	movl	-76(%rbp), %ecx         # 4-byte Reload
	movl	%r14d, %r11d
	movq	-48(%rbp), %r14         # 8-byte Reload
	movl	%r12d, %r10d
.LBB15_358:                             # %if.end2565
	movl	%ecx, -76(%rbp)         # 4-byte Spill
	movl	$0, 1096(%r15)
	movl	$275, %eax              # imm = 0x113
	jmp	.LBB15_360
.LBB15_359:                             # %for.body2570
                                        #   in Loop: Header=BB15_360 Depth=1
	movl	-1032(%r15,%rax,4), %ecx
	movl	%ecx, (%r15,%rax,4)
	incq	%rax
.LBB15_360:                             # %for.cond2567
                                        # =>This Inner Loop Header: Depth=1
	leal	-274(%rax), %ecx
	cmpl	$257, %ecx              # imm = 0x101
	jl	.LBB15_359
# BB#361:                               # %for.cond2581.preheader
	movl	$275, %eax              # imm = 0x113
	jmp	.LBB15_363
.LBB15_362:                             # %for.body2584
                                        #   in Loop: Header=BB15_363 Depth=1
	movl	-4(%r15,%rax,4), %ecx
	addl	%ecx, (%r15,%rax,4)
	incq	%rax
.LBB15_363:                             # %for.cond2581
                                        # =>This Inner Loop Header: Depth=1
	leal	-274(%rax), %ecx
	cmpl	$256, %ecx              # imm = 0x100
	jle	.LBB15_362
# BB#364:                               # %for.end2595
	cmpb	$0, 44(%r15)
	je	.LBB15_421
# BB#365:                               # %for.cond2599.preheader
	xorl	%eax, %eax
	cmpl	$257, %eax              # imm = 0x101
	jge	.LBB15_367
.LBB15_366:                             # %for.body2602
                                        # =>This Inner Loop Header: Depth=1
	movl	1096(%r15,%rax,4), %ecx
	movl	%ecx, 2124(%r15,%rax,4)
	incq	%rax
	cmpl	$257, %eax              # imm = 0x101
	jl	.LBB15_366
.LBB15_367:                             # %for.cond2611.preheader
	xorl	%eax, %eax
	cmpl	%r9d, %eax
	jge	.LBB15_400
.LBB15_369:                             # %for.body2614
                                        # =>This Inner Loop Header: Depth=1
	movq	3160(%r15), %rdx
	movzbl	(%rdx,%rax,2), %ecx
	movzwl	2124(%r15,%rcx,4), %esi
	movw	%si, (%rdx,%rax,2)
	movq	3168(%r15), %rdx
	movl	%eax, %esi
	sarl	%esi
	movslq	%esi, %rsi
	movzbl	(%rdx,%rsi), %edx
	testb	$1, %al
	jne	.LBB15_371
# BB#370:                               # %if.then2630
                                        #   in Loop: Header=BB15_369 Depth=1
	andl	$240, %edx
	movzbl	%cl, %esi
	movl	2124(%r15,%rsi,4), %esi
	sarl	$16, %esi
	orl	%edx, %esi
	jmp	.LBB15_368
.LBB15_371:                             # %if.else2647
                                        #   in Loop: Header=BB15_369 Depth=1
	andl	$15, %edx
	movzbl	%cl, %esi
	movl	2124(%r15,%rsi,4), %esi
	sarl	$16, %esi
	shll	$4, %esi
	orl	%edx, %esi
.LBB15_368:                             # %if.end2665
                                        #   in Loop: Header=BB15_369 Depth=1
	movq	3168(%r15), %rdx
	movl	%eax, %edi
	sarl	%edi
	movslq	%edi, %rdi
	movb	%sil, (%rdx,%rdi)
	movzbl	%cl, %ecx
	incl	2124(%r15,%rcx,4)
	incq	%rax
	cmpl	%r9d, %eax
	jl	.LBB15_369
.LBB15_400:                             # %for.end2672
	movl	%r11d, %r12d
	movslq	56(%r15), %rax
	movq	3160(%r15), %rcx
	movq	3168(%r15), %rdx
	movzwl	(%rcx,%rax,2), %esi
	movl	%eax, %ecx
	sarl	%ecx
	movslq	%ecx, %rcx
	movzbl	(%rdx,%rcx), %ebx
	movl	%eax, %ecx
	shlb	$2, %cl
	andb	$4, %cl
	shrl	%cl, %ebx
	andl	$15, %ebx
	shll	$16, %ebx
	orl	%esi, %ebx
.LBB15_401:                             # %do.body2689
                                        # =>This Inner Loop Header: Depth=1
	movl	%ebx, %r14d
	movslq	%r14d, %rdi
	movq	3160(%r15), %r11
	movq	3168(%r15), %rcx
	movzwl	(%r11,%rdi,2), %ebx
	movl	%edi, %edx
	sarl	%edx
	movslq	%edx, %rdx
	movzbl	(%rcx,%rdx), %esi
	movl	%edi, %ecx
	shlb	$2, %cl
	andb	$4, %cl
	shrl	%cl, %esi
	andl	$15, %esi
	shll	$16, %esi
	movw	%ax, (%r11,%rdi,2)
	movq	3168(%r15), %rcx
	movzbl	(%rcx,%rdx), %ecx
	testb	$1, %dil
	jne	.LBB15_403
# BB#402:                               # %if.then2715
                                        #   in Loop: Header=BB15_401 Depth=1
	andl	$240, %ecx
	sarl	$16, %eax
	orl	%ecx, %eax
	jmp	.LBB15_404
.LBB15_403:                             # %if.else2729
                                        #   in Loop: Header=BB15_401 Depth=1
	andl	$15, %ecx
	sarl	$16, %eax
	shll	$4, %eax
	orl	%ecx, %eax
.LBB15_404:                             # %if.end2744
                                        #   in Loop: Header=BB15_401 Depth=1
	orl	%esi, %ebx
	movq	3168(%r15), %rcx
	movb	%al, (%rcx,%rdx)
	cmpl	56(%r15), %r14d
	movl	%r14d, %eax
	jne	.LBB15_401
# BB#405:                               # %do.end2749
	movq	%r14, -112(%rbp)        # 8-byte Spill
	movl	%ebx, -92(%rbp)         # 4-byte Spill
	movl	%r8d, -68(%rbp)         # 4-byte Spill
	movl	%r10d, %ebx
	movl	56(%r15), %eax
	movl	%eax, 60(%r15)
	movl	$0, 1092(%r15)
	cmpb	$0, 20(%r15)
	je	.LBB15_429
# BB#406:                               # %if.then2753
	movq	$0, 24(%r15)
	movl	60(%r15), %edi
	leaq	1096(%r15), %rsi
	callq	BZ2_indexIntoF
	movl	%eax, 64(%r15)
	movq	3160(%r15), %rax
	movl	60(%r15), %ecx
	movzwl	(%rax,%rcx,2), %eax
	movq	3168(%r15), %rdx
	movl	%ecx, %esi
	shrl	%esi
	movzbl	(%rdx,%rsi), %edx
	shlb	$2, %cl
	andb	$4, %cl
                                        # kill: %CL<def> %CL<kill> %RCX<kill>
	shrl	%cl, %edx
	andl	$15, %edx
	shll	$16, %edx
	orl	%eax, %edx
	movl	%edx, 60(%r15)
	incl	1092(%r15)
	cmpl	$0, 24(%r15)
	jne	.LBB15_409
# BB#407:                               # %if.then2781
	movslq	28(%r15), %rax
	movl	BZ2_rNums(,%rax,4), %eax
	movl	%eax, 24(%r15)
	movl	28(%r15), %eax
	incl	%eax
	movl	%eax, 28(%r15)
	cmpl	$512, %eax              # imm = 0x200
	jne	.LBB15_409
# BB#408:                               # %if.then2791
	movl	$0, 28(%r15)
.LBB15_409:                             # %if.end2794
	movl	24(%r15), %eax
	decl	%eax
	movl	%eax, 24(%r15)
	xorl	%ecx, %ecx
	cmpl	$1, %eax
	sete	%cl
	xorl	%ecx, 64(%r15)
	jmp	.LBB15_430
.LBB15_372:                             # %if.end1933
	cmpl	$1, -136(%rbp)          # 4-byte Folded Reload
	ja	.LBB15_392
# BB#373:
	movl	$-1, %eax
	movq	%rax, -144(%rbp)        # 8-byte Spill
	movl	$1, %eax
	movq	%rax, -184(%rbp)        # 8-byte Spill
	movl	-72(%rbp), %eax         # 4-byte Reload
.LBB15_374:                             # %do.body
	cmpl	$1, -136(%rbp)          # 4-byte Folded Reload
	movq	%r14, -48(%rbp)         # 8-byte Spill
	movl	%ecx, -76(%rbp)         # 4-byte Spill
	je	.LBB15_377
# BB#375:                               # %do.body
	cmpl	$0, -136(%rbp)          # 4-byte Folded Reload
	jne	.LBB15_379
# BB#376:                               # %if.then1942
	movq	-184(%rbp), %rcx        # 8-byte Reload
	movq	-144(%rbp), %rdx        # 8-byte Reload
	addl	%ecx, %edx
	jmp	.LBB15_378
.LBB15_377:                             # %if.then1948
	movq	-184(%rbp), %rcx        # 8-byte Reload
	movq	-144(%rbp), %rdx        # 8-byte Reload
	leal	(%rdx,%rcx,2), %edx
.LBB15_378:                             # %if.end1952
	movq	%rdx, -144(%rbp)        # 8-byte Spill
	jmp	.LBB15_380
.LBB15_379:
	movq	-184(%rbp), %rcx        # 8-byte Reload
.LBB15_380:                             # %if.end1952
	addl	%ecx, %ecx
	movq	%rcx, -184(%rbp)        # 8-byte Spill
	testl	%eax, %eax
	je	.LBB15_382
# BB#381:
	movl	-76(%rbp), %ebx         # 4-byte Reload
	jmp	.LBB15_384
.LBB15_382:                             # %if.then1956
	movl	%eax, -72(%rbp)         # 4-byte Spill
	movslq	%edi, %rdi
	incq	%rdi
	movl	$-4, %eax
	cmpl	%r11d, %edi
	jge	.LBB15_488
# BB#383:                               # %if.end1961
	movzbl	7884(%r15,%rdi), %eax
	movl	64012(%r15,%rax,4), %ebx
	movq	%rax, -200(%rbp)        # 8-byte Spill
	imulq	$1032, %rax, %rax       # imm = 0x408
	leaq	45436(%r15,%rax), %rcx
	movq	%rcx, -176(%rbp)        # 8-byte Spill
	leaq	57820(%r15,%rax), %rcx
	movq	%rcx, -168(%rbp)        # 8-byte Spill
	leaq	51628(%r15,%rax), %rax
	movq	%rax, -48(%rbp)         # 8-byte Spill
	movl	$50, %eax
.LBB15_384:                             # %if.end1981
	decl	%eax
	movl	%eax, -72(%rbp)         # 4-byte Spill
	movl	%ebx, -76(%rbp)         # 4-byte Spill
.LBB15_385:                             # %sw.bb1983
	movl	$38, 8(%r15)
	movq	-48(%rbp), %r14         # 8-byte Reload
	cmpl	%ebx, 36(%r15)
	jl	.LBB15_388
	jmp	.LBB15_390
.LBB15_386:                             # %if.then2031
                                        #   in Loop: Header=BB15_388 Depth=1
	movq	(%r15), %rax
	incl	16(%rax)
.LBB15_387:                             # %while.body1986
                                        #   in Loop: Header=BB15_388 Depth=1
	cmpl	%ebx, 36(%r15)
	jge	.LBB15_390
.LBB15_388:                             # %if.end2002
                                        # =>This Inner Loop Header: Depth=1
	movq	(%r15), %rax
	cmpl	$0, 8(%rax)
	je	.LBB15_487
# BB#389:                               # %if.end2008
                                        #   in Loop: Header=BB15_388 Depth=1
	movl	32(%r15), %eax
	shll	$8, %eax
	movq	(%r15), %rcx
	movq	(%rcx), %rcx
	movzbl	(%rcx), %ecx
	orl	%eax, %ecx
	movl	%ecx, 32(%r15)
	addl	$8, 36(%r15)
	movq	(%r15), %rax
	incq	(%rax)
	movq	(%r15), %rax
	decl	8(%rax)
	movq	(%r15), %rax
	incl	12(%rax)
	movq	(%r15), %rax
	cmpl	$0, 12(%rax)
	jne	.LBB15_387
	jmp	.LBB15_386
.LBB15_390:                             # %if.then1990
	movl	32(%r15), %edx
	movl	36(%r15), %eax
	subl	%ebx, %eax
	movl	%eax, %ecx
	shrl	%cl, %edx
	movl	%r8d, -68(%rbp)         # 4-byte Spill
	movq	%rdi, %r8
	movq	%r13, -88(%rbp)         # 8-byte Spill
	movl	%r10d, %r13d
	movl	%r11d, %r10d
	movq	%r9, %r11
	movl	%ebx, %r9d
	movq	%r12, %rbx
	movl	%esi, %r12d
	movl	$1, %edi
	movl	%r9d, %ecx
	shll	%cl, %edi
	movq	%rdi, %rcx
	movq	%rbx, %r12
	movl	%r9d, %ebx
	movq	%r11, %r9
	movl	%r10d, %r11d
	movl	%r13d, %r10d
	movq	-88(%rbp), %r13         # 8-byte Reload
	movq	%r8, %rdi
	movl	-68(%rbp), %r8d         # 4-byte Reload
	decl	%ecx
	andl	%edx, %ecx
	movl	%eax, 36(%r15)
	jmp	.LBB15_448
.LBB15_392:                             # %if.else2174
	movl	$-4, %eax
	cmpl	%esi, %r9d
	jge	.LBB15_488
# BB#393:                               # %if.end2178
	movq	-136(%rbp), %rcx        # 8-byte Reload
	leal	-1(%rcx), %esi
	cmpl	$15, %esi
	ja	.LBB15_410
# BB#394:                               # %if.then2192
	movl	%r11d, -80(%rbp)        # 4-byte Spill
	movq	%r9, %r11
	movl	%r8d, %r14d
	movslq	7820(%r15), %r9
	leal	(%r9,%rsi), %ecx
	movb	3724(%r15,%rcx), %r8b
	movq	-136(%rbp), %rcx        # 8-byte Reload
	leal	-1(%rcx,%r9), %ecx
	xorl	%edi, %edi
	jmp	.LBB15_396
.LBB15_395:                             # %while.body2202
                                        #   in Loop: Header=BB15_396 Depth=1
	leal	(%rcx,%rdi), %ebx
	leal	-1(%rcx,%rdi), %edx
	movslq	%edx, %rdx
	movzbl	3724(%r15,%rdx), %edx
	movslq	%ebx, %rbx
	movb	%dl, 3724(%r15,%rbx)
	leal	-2(%rcx,%rdi), %edx
	movslq	%edx, %rdx
	movzbl	3724(%r15,%rdx), %edx
	leal	-1(%rcx,%rdi), %ebx
	movslq	%ebx, %rbx
	movb	%dl, 3724(%r15,%rbx)
	leal	-3(%rcx,%rdi), %edx
	movslq	%edx, %rdx
	movzbl	3724(%r15,%rdx), %edx
	leal	-2(%rcx,%rdi), %ebx
	movslq	%ebx, %rbx
	movb	%dl, 3724(%r15,%rbx)
	leal	-4(%rcx,%rdi), %edx
	movslq	%edx, %rdx
	movzbl	3724(%r15,%rdx), %edx
	leal	-3(%rcx,%rdi), %ebx
	movslq	%ebx, %rbx
	movb	%dl, 3724(%r15,%rbx)
	addl	$-4, %edi
.LBB15_396:                             # %while.cond2199
                                        # =>This Inner Loop Header: Depth=1
	leal	(%rsi,%rdi), %ebx
	cmpl	$3, %ebx
	ja	.LBB15_395
# BB#397:                               # %while.cond2238.preheader
	movq	-136(%rbp), %rcx        # 8-byte Reload
	movq	%rcx, %rdx
	leal	(%rdx,%r9), %ecx
	leal	-1(%rdi,%rcx), %esi
	leal	-1(%rdx,%rdi), %ecx
	testl	%ecx, %ecx
	je	.LBB15_399
.LBB15_398:                             # %while.body2241
                                        # =>This Inner Loop Header: Depth=1
	movl	%esi, %edx
	leal	-1(%rsi), %esi
	movzbl	3724(%r15,%rsi), %ebx
	movb	%bl, 3724(%r15,%rdx)
	decl	%ecx
                                        # kill: %ESI<def> %ESI<kill> %RSI<kill> %RSI<def>
	testl	%ecx, %ecx
	jne	.LBB15_398
.LBB15_399:                             # %while.end2252
	movb	%r8b, 3724(%r15,%r9)
	movl	-56(%rbp), %ebx         # 4-byte Reload
	movq	%r11, %r9
	movq	-64(%rbp), %rdi         # 8-byte Reload
	movl	-80(%rbp), %r11d        # 4-byte Reload
	jmp	.LBB15_432
.LBB15_410:                             # %if.else2256
	movq	%rdi, %r13
	movl	%r8d, %r14d
	movl	%esi, %edx
	shrl	$4, %edx
	andl	$15, %esi
	movl	7820(%r15,%rdx,4), %edi
	leal	(%rdi,%rsi), %ecx
	movslq	%ecx, %rcx
	movb	3724(%r15,%rcx), %r8b
	leaq	3724(%r15,%rcx), %rcx
	leal	-1(%rdi,%rsi), %esi
	jmp	.LBB15_412
.LBB15_411:                             # %while.body2270
                                        #   in Loop: Header=BB15_412 Depth=1
	movslq	%esi, %rdi
	movzbl	3724(%r15,%rdi), %ebx
	movb	%bl, (%rcx)
	movl	-56(%rbp), %ebx         # 4-byte Reload
	decq	%rcx
	decl	%esi
.LBB15_412:                             # %while.cond2264
                                        # =>This Inner Loop Header: Depth=1
	leal	1(%rsi), %edi
	cmpl	7820(%r15,%rdx,4), %edi
	jg	.LBB15_411
# BB#413:                               # %while.end2279
	incl	7820(%r15,%rdx,4)
	movq	%r13, %rdi
	testl	%edx, %edx
	jle	.LBB15_415
.LBB15_414:                             # %while.body2287
                                        # =>This Inner Loop Header: Depth=1
	decl	7820(%r15,%rdx,4)
	movslq	7816(%r15,%rdx,4), %rcx
	movzbl	3739(%r15,%rcx), %ecx
	movslq	7820(%r15,%rdx,4), %rsi
	movb	%cl, 3724(%r15,%rsi)
	decq	%rdx
	testl	%edx, %edx
	jg	.LBB15_414
.LBB15_415:                             # %while.end2308
	decl	7820(%r15)
	movslq	7820(%r15), %rcx
	movb	%r8b, 3724(%r15,%rcx)
	cmpl	$0, 7820(%r15)
	jne	.LBB15_432
# BB#416:                               # %for.cond2322.preheader
	movq	%r12, -112(%rbp)        # 8-byte Spill
	movq	%rdi, %r12
	movq	%r9, -104(%rbp)         # 8-byte Spill
	leaq	3724(%r15), %r9
	movl	$4095, %esi             # imm = 0xFFF
	movl	$15, %ecx
	testl	%ecx, %ecx
	js	.LBB15_431
.LBB15_418:                             # %for.cond2326.preheader
                                        # =>This Loop Header: Depth=1
                                        #     Child Loop BB15_420 Depth 2
	movslq	%esi, %rdx
	addq	%r9, %rdx
	xorl	%edi, %edi
	jmp	.LBB15_420
	.p2align	4, 0x90
.LBB15_419:                             # %for.body2329
                                        #   in Loop: Header=BB15_420 Depth=2
	movslq	%ecx, %rbx
	movl	7820(%r15,%rbx,4), %ebx
	leal	15(%rdi,%rbx), %ebx
	movslq	%ebx, %rbx
	movzbl	3724(%r15,%rbx), %ebx
	movb	%bl, (%rdx,%rdi)
	decq	%rdi
.LBB15_420:                             # %for.cond2326
                                        #   Parent Loop BB15_418 Depth=1
                                        # =>  This Inner Loop Header: Depth=2
	movl	%edi, %ebx
	addl	$15, %ebx
	jns	.LBB15_419
# BB#417:                               # %for.end2343
                                        #   in Loop: Header=BB15_418 Depth=1
	leal	1(%rsi,%rdi), %edx
	leal	(%rsi,%rdi), %esi
	movslq	%ecx, %rdi
	movl	%edx, 7820(%r15,%rdi,4)
	decl	%ecx
                                        # kill: %ESI<def> %ESI<kill> %RSI<def>
	movl	-56(%rbp), %ebx         # 4-byte Reload
	testl	%ecx, %ecx
	jns	.LBB15_418
.LBB15_431:
	movq	-104(%rbp), %r9         # 8-byte Reload
	movq	%r12, %rdi
	movq	-112(%rbp), %r12        # 8-byte Reload
.LBB15_432:                             # %if.end2352
	movzbl	%r8b, %ecx
	movzbl	3468(%r15,%rcx), %edx
	incl	68(%r15,%rdx,4)
	movzbl	3468(%r15,%rcx), %ecx
	cmpb	$0, 44(%r15)
	je	.LBB15_434
# BB#433:                               # %if.then2362
	movq	3160(%r15), %rdx
	movslq	%r9d, %rsi
	movw	%cx, (%rdx,%rsi,2)
	jmp	.LBB15_435
.LBB15_421:                             # %for.cond2830.preheader
	xorl	%eax, %eax
	xorl	%r12d, %r12d
	jmp	.LBB15_423
.LBB15_422:                             # %for.body2833
                                        #   in Loop: Header=BB15_423 Depth=1
	movq	3152(%r15), %rdx
	movzbl	(%rcx,%r12,4), %ecx
	movslq	1096(%r15,%rcx,4), %rsi
	orl	%eax, (%rdx,%rsi,4)
	incl	1096(%r15,%rcx,4)
	incq	%r12
	addl	$256, %eax              # imm = 0x100
.LBB15_423:                             # %for.cond2830
                                        # =>This Inner Loop Header: Depth=1
	movq	3152(%r15), %rcx
	cmpl	%r9d, %r12d
	jl	.LBB15_422
# BB#424:                               # %for.end2853
	movslq	56(%r15), %rax
	movl	(%rcx,%rax,4), %eax
	shrl	$8, %eax
	movl	%eax, 60(%r15)
	movl	$0, 1092(%r15)
	cmpb	$0, 20(%r15)
	je	.LBB15_447
# BB#425:                               # %if.then2863
	movq	$0, 24(%r15)
	movq	3152(%r15), %rax
	movl	60(%r15), %ecx
	movl	(%rax,%rcx,4), %eax
	movl	%eax, 60(%r15)
	movzbl	60(%r15), %eax
	movl	%eax, 64(%r15)
	shrl	$8, 60(%r15)
	incl	1092(%r15)
	cmpl	$0, 24(%r15)
	movl	-52(%rbp), %esi         # 4-byte Reload
	jne	.LBB15_428
# BB#426:                               # %if.then2883
	movslq	28(%r15), %rax
	movl	BZ2_rNums(,%rax,4), %eax
	movl	%eax, 24(%r15)
	movl	28(%r15), %eax
	incl	%eax
	movl	%eax, 28(%r15)
	cmpl	$512, %eax              # imm = 0x200
	jne	.LBB15_428
# BB#427:                               # %if.then2893
	movl	$0, 28(%r15)
.LBB15_428:                             # %if.end2896
	movl	24(%r15), %eax
	decl	%eax
	movl	%eax, 24(%r15)
	xorl	%ecx, %ecx
	cmpl	$1, %eax
	sete	%cl
	xorl	%ecx, 64(%r15)
	jmp	.LBB15_487
.LBB15_434:                             # %if.else2370
	movzwl	%cx, %ecx
	movq	3152(%r15), %rdx
	movslq	%r9d, %rsi
	movl	%ecx, (%rdx,%rsi,4)
.LBB15_435:                             # %if.end2378
	movq	-88(%rbp), %r13         # 8-byte Reload
	movl	-72(%rbp), %ecx         # 4-byte Reload
	movl	%r14d, %r8d
	incl	%r9d
	movl	%ecx, -72(%rbp)         # 4-byte Spill
	testl	%ecx, %ecx
	movl	-52(%rbp), %esi         # 4-byte Reload
	movq	-48(%rbp), %r14         # 8-byte Reload
	je	.LBB15_437
# BB#436:
	movl	-72(%rbp), %eax         # 4-byte Reload
	movl	-76(%rbp), %ebx         # 4-byte Reload
	jmp	.LBB15_439
.LBB15_437:                             # %if.then2382
	movslq	%edi, %rdi
	incq	%rdi
	cmpl	%r11d, %edi
	jge	.LBB15_488
# BB#438:                               # %if.end2387
	movzbl	7884(%r15,%rdi), %eax
	movl	64012(%r15,%rax,4), %ebx
	movq	%rax, -200(%rbp)        # 8-byte Spill
	imulq	$1032, %rax, %rax       # imm = 0x408
	leaq	45436(%r15,%rax), %rcx
	movq	%rcx, -176(%rbp)        # 8-byte Spill
	leaq	57820(%r15,%rax), %rcx
	movq	%rcx, -168(%rbp)        # 8-byte Spill
	leaq	51628(%r15,%rax), %rax
	movq	%rax, -48(%rbp)         # 8-byte Spill
	movl	$50, %eax
.LBB15_439:                             # %if.end2407
	decl	%eax
	movl	%eax, -72(%rbp)         # 4-byte Spill
	movl	%ebx, -76(%rbp)         # 4-byte Spill
.LBB15_440:                             # %sw.bb2409
	movl	$40, 8(%r15)
	movq	-48(%rbp), %r14         # 8-byte Reload
	movq	%rdi, -64(%rbp)         # 8-byte Spill
	cmpl	%ebx, 36(%r15)
	jl	.LBB15_443
	jmp	.LBB15_445
.LBB15_441:                             # %if.then2457
                                        #   in Loop: Header=BB15_443 Depth=1
	movq	(%r15), %rax
	incl	16(%rax)
.LBB15_442:                             # %while.body2412
                                        #   in Loop: Header=BB15_443 Depth=1
	cmpl	%ebx, 36(%r15)
	jge	.LBB15_445
.LBB15_443:                             # %if.end2428
                                        # =>This Inner Loop Header: Depth=1
	movq	(%r15), %rax
	cmpl	$0, 8(%rax)
	je	.LBB15_487
# BB#444:                               # %if.end2434
                                        #   in Loop: Header=BB15_443 Depth=1
	movl	32(%r15), %eax
	shll	$8, %eax
	movq	(%r15), %rcx
	movq	(%rcx), %rcx
	movzbl	(%rcx), %ecx
	orl	%eax, %ecx
	movl	%ecx, 32(%r15)
	addl	$8, 36(%r15)
	movq	(%r15), %rax
	incq	(%rax)
	movq	(%r15), %rax
	decl	8(%rax)
	movq	(%r15), %rax
	incl	12(%rax)
	movq	(%r15), %rax
	cmpl	$0, 12(%rax)
	jne	.LBB15_442
	jmp	.LBB15_441
.LBB15_445:                             # %if.then2416
	movl	32(%r15), %edx
	movl	36(%r15), %eax
	subl	%ebx, %eax
	movl	%eax, %ecx
	shrl	%cl, %edx
	movl	%ebx, %ecx
	movl	%esi, %ebx
	movl	$1, %edi
	shll	%cl, %edi
	movl	%ecx, %ebx
	decl	%edi
	andl	%edx, %edi
	movl	%eax, 36(%r15)
	jmp	.LBB15_474
.LBB15_429:                             # %if.else2801
	movl	60(%r15), %edi
	leaq	1096(%r15), %rsi
	callq	BZ2_indexIntoF
	movl	%eax, 64(%r15)
	movq	3160(%r15), %rax
	movl	60(%r15), %ecx
	movzwl	(%rax,%rcx,2), %eax
	movq	3168(%r15), %rdx
	movl	%ecx, %esi
	shrl	%esi
	movzbl	(%rdx,%rsi), %edx
	shlb	$2, %cl
	andb	$4, %cl
                                        # kill: %CL<def> %CL<kill> %RCX<kill>
	shrl	%cl, %edx
	andl	$15, %edx
	shll	$16, %edx
	orl	%eax, %edx
	movl	%edx, 60(%r15)
	incl	1092(%r15)
.LBB15_430:                             # %save_state_and_return
	xorl	%eax, %eax
	movl	%ebx, %r10d
	movl	%r12d, %r11d
	movl	-68(%rbp), %r8d         # 4-byte Reload
	movq	-88(%rbp), %r13         # 8-byte Reload
	jmp	.LBB15_283
.LBB15_447:                             # %if.else2905
	movq	3152(%r15), %rax
	movl	60(%r15), %ecx
	movl	(%rax,%rcx,4), %eax
	movl	%eax, 60(%r15)
	movzbl	60(%r15), %eax
	movl	%eax, 64(%r15)
	shrl	$8, 60(%r15)
	incl	1092(%r15)
	xorl	%eax, %eax
	movl	-52(%rbp), %esi         # 4-byte Reload
	jmp	.LBB15_488
.LBB15_448:                             # %while.body2038
	movl	$-4, %eax
	cmpl	$20, %ebx
	jle	.LBB15_450
# BB#449:
	movq	%rcx, -152(%rbp)        # 8-byte Spill
	jmp	.LBB15_488
.LBB15_450:                             # %if.end2042
	movq	%r14, -48(%rbp)         # 8-byte Spill
	movq	%rdi, -64(%rbp)         # 8-byte Spill
	movslq	%ebx, %rdi
	movq	-176(%rbp), %rdx        # 8-byte Reload
	cmpl	(%rdx,%rdi,4), %ecx
	movq	%rcx, -152(%rbp)        # 8-byte Spill
	jg	.LBB15_454
# BB#451:                               # %while.end2104
	movq	-48(%rbp), %r14         # 8-byte Reload
	cmpl	(%r14,%rdi,4), %ecx
	js	.LBB15_462
# BB#452:                               # %lor.lhs.false2110
	movl	%ecx, %edx
	subl	(%r14,%rdi,4), %edx
	cmpl	$257, %edx              # imm = 0x101
	jle	.LBB15_463
# BB#453:
	movq	-64(%rbp), %rdi         # 8-byte Reload
	movq	-48(%rbp), %r14         # 8-byte Reload
	jmp	.LBB15_488
.LBB15_454:                             # %if.end2048
	incl	%ebx
	movq	-64(%rbp), %rdi         # 8-byte Reload
.LBB15_455:                             # %sw.bb2050
	movl	$39, 8(%r15)
	movq	-48(%rbp), %r14         # 8-byte Reload
	cmpl	$0, 36(%r15)
	jle	.LBB15_458
	jmp	.LBB15_460
.LBB15_456:                             # %if.then2096
                                        #   in Loop: Header=BB15_458 Depth=1
	movq	(%r15), %rax
	incl	16(%rax)
.LBB15_457:                             # %while.body2053
                                        #   in Loop: Header=BB15_458 Depth=1
	cmpl	$0, 36(%r15)
	jg	.LBB15_460
.LBB15_458:                             # %if.end2067
                                        # =>This Inner Loop Header: Depth=1
	movq	(%r15), %rax
	cmpl	$0, 8(%rax)
	je	.LBB15_487
# BB#459:                               # %if.end2073
                                        #   in Loop: Header=BB15_458 Depth=1
	movl	32(%r15), %eax
	shll	$8, %eax
	movq	(%r15), %rcx
	movq	(%rcx), %rcx
	movzbl	(%rcx), %ecx
	orl	%eax, %ecx
	movl	%ecx, 32(%r15)
	addl	$8, 36(%r15)
	movq	(%r15), %rax
	incq	(%rax)
	movq	(%r15), %rax
	decl	8(%rax)
	movq	(%r15), %rax
	incl	12(%rax)
	movq	(%r15), %rax
	cmpl	$0, 12(%rax)
	jne	.LBB15_457
	jmp	.LBB15_456
.LBB15_460:                             # %if.then2057
	movl	32(%r15), %r13d
	movl	36(%r15), %ecx
	decl	%ecx
	shrl	%cl, %r13d
	andl	$1, %r13d
	movl	%ecx, 36(%r15)
	movq	-152(%rbp), %rcx        # 8-byte Reload
	leal	(%r13,%rcx,2), %ecx
	jmp	.LBB15_448
.LBB15_462:
	movq	-64(%rbp), %rdi         # 8-byte Reload
	jmp	.LBB15_488
.LBB15_463:                             # %if.end2117
	movq	-48(%rbp), %rdx         # 8-byte Reload
	movslq	(%rdx,%rdi,4), %rdi
	movslq	%ecx, %rdx
	subq	%rdi, %rdx
	movq	-168(%rbp), %rcx        # 8-byte Reload
	movl	(%rcx,%rdx,4), %edx
	testl	%edx, %edx
	sete	%cl
	movq	%rdx, -136(%rbp)        # 8-byte Spill
	cmpl	$1, %edx
	sete	%dl
	orb	%cl, %dl
	je	.LBB15_465
# BB#464:
	movq	-64(%rbp), %rdi         # 8-byte Reload
	movl	-72(%rbp), %eax         # 4-byte Reload
	movl	-76(%rbp), %ecx         # 4-byte Reload
	movq	-48(%rbp), %r14         # 8-byte Reload
	jmp	.LBB15_374
.LBB15_465:                             # %do.end
	movq	-144(%rbp), %rdi        # 8-byte Reload
	incl	%edi
	movslq	7820(%r15), %rcx
	movzbl	3724(%r15,%rcx), %ecx
	movzbl	3468(%r15,%rcx), %ecx
	movq	%rdi, %rdx
	addl	%edi, 68(%r15,%rcx,4)
	cmpb	$0, 44(%r15)
	je	.LBB15_470
# BB#466:                               # %while.cond2142.preheader
	movslq	%r9d, %r9
	movq	-64(%rbp), %rdi         # 8-byte Reload
	movq	-48(%rbp), %r14         # 8-byte Reload
	jmp	.LBB15_468
.LBB15_467:                             # %if.end2149
                                        #   in Loop: Header=BB15_468 Depth=1
	movq	3160(%r15), %rdx
	movw	%cx, (%rdx,%r9,2)
	movq	-144(%rbp), %rdx        # 8-byte Reload
	decl	%edx
	incq	%r9
.LBB15_468:                             # %while.cond2142
                                        # =>This Inner Loop Header: Depth=1
	movq	%rdx, -144(%rbp)        # 8-byte Spill
	testl	%edx, %edx
	jle	.LBB15_352
# BB#469:                               # %while.body2145
                                        #   in Loop: Header=BB15_468 Depth=1
	cmpl	%esi, %r9d
	jl	.LBB15_467
	jmp	.LBB15_488
.LBB15_470:                             # %while.cond2158.preheader
	movslq	%r9d, %r9
	movzwl	%cx, %ecx
	movq	-64(%rbp), %rdi         # 8-byte Reload
	movq	-48(%rbp), %r14         # 8-byte Reload
	jmp	.LBB15_472
.LBB15_471:                             # %if.end2165
                                        #   in Loop: Header=BB15_472 Depth=1
	movq	3152(%r15), %rdx
	movl	%ecx, (%rdx,%r9,4)
	movq	-144(%rbp), %rdx        # 8-byte Reload
	decl	%edx
	incq	%r9
.LBB15_472:                             # %while.cond2158
                                        # =>This Inner Loop Header: Depth=1
	movq	%rdx, -144(%rbp)        # 8-byte Spill
	testl	%edx, %edx
	jle	.LBB15_352
# BB#473:                               # %while.body2161
                                        #   in Loop: Header=BB15_472 Depth=1
	cmpl	%esi, %r9d
	jl	.LBB15_471
	jmp	.LBB15_488
.LBB15_487:
	xorl	%eax, %eax
.LBB15_488:                             # %save_state_and_return
	movl	%r12d, 64036(%r15)
	movl	-92(%rbp), %ecx         # 4-byte Reload
	movl	%ecx, 64040(%r15)
	movl	-124(%rbp), %ecx        # 4-byte Reload
	movl	%ecx, 64044(%r15)
	movl	-156(%rbp), %ecx        # 4-byte Reload
	movl	%ecx, 64048(%r15)
	movl	%r10d, 64052(%r15)
	movl	%r11d, 64056(%r15)
	movl	-116(%rbp), %ecx        # 4-byte Reload
	movl	%ecx, 64060(%r15)
	movl	%edi, 64064(%r15)
	movl	-72(%rbp), %ecx         # 4-byte Reload
	movl	%ecx, 64068(%r15)
	movq	-136(%rbp), %rcx        # 8-byte Reload
	movl	%ecx, 64072(%r15)
	movl	%esi, 64076(%r15)
	movl	%r9d, 64080(%r15)
	movq	-144(%rbp), %rcx        # 8-byte Reload
	movl	%ecx, 64084(%r15)
	movq	-184(%rbp), %rcx        # 8-byte Reload
	movl	%ecx, 64088(%r15)
	movl	-120(%rbp), %ecx        # 4-byte Reload
	movl	%ecx, 64092(%r15)
	movl	%r8d, 64096(%r15)
	movl	%ebx, 64100(%r15)
	movq	-152(%rbp), %rcx        # 8-byte Reload
	movl	%ecx, 64104(%r15)
	movl	%r13d, 64108(%r15)
	movq	-200(%rbp), %rcx        # 8-byte Reload
	movl	%ecx, 64112(%r15)
	movl	-76(%rbp), %ecx         # 4-byte Reload
	movl	%ecx, 64116(%r15)
	movq	-176(%rbp), %rcx        # 8-byte Reload
	movq	%rcx, 64120(%r15)
	movq	%r14, 64128(%r15)
	movq	-168(%rbp), %rcx        # 8-byte Reload
	movq	%rcx, 64136(%r15)
	addq	$168, %rsp
	popq	%rbx
	popq	%r12
	popq	%r13
	popq	%r14
	popq	%r15
	popq	%rbp
	retq
.LBB15_474:                             # %while.body2464
	movl	$-4, %eax
	cmpl	$20, %ebx
	jle	.LBB15_476
# BB#475:
	movq	%rdi, -152(%rbp)        # 8-byte Spill
	movq	-64(%rbp), %rdi         # 8-byte Reload
	jmp	.LBB15_488
.LBB15_476:                             # %if.end2468
	movq	%rdi, %rcx
	movslq	%ebx, %rdi
	movq	-176(%rbp), %rdx        # 8-byte Reload
	cmpl	(%rdx,%rdi,4), %ecx
	movq	%rcx, -152(%rbp)        # 8-byte Spill
	jg	.LBB15_480
# BB#477:                               # %while.end2530
	cmpl	(%r14,%rdi,4), %ecx
	js	.LBB15_490
# BB#478:                               # %lor.lhs.false2536
	movl	%ecx, %edx
	subl	(%r14,%rdi,4), %edx
	cmpl	$257, %edx              # imm = 0x101
	jle	.LBB15_489
# BB#479:
	movq	-64(%rbp), %rdi         # 8-byte Reload
	jmp	.LBB15_488
.LBB15_480:                             # %if.end2474
	movq	%r14, -48(%rbp)         # 8-byte Spill
	incl	%ebx
	movq	-64(%rbp), %rdi         # 8-byte Reload
.LBB15_481:                             # %sw.bb2476
	movl	$41, 8(%r15)
	movq	-48(%rbp), %r14         # 8-byte Reload
	cmpl	$0, 36(%r15)
	jle	.LBB15_484
	jmp	.LBB15_486
.LBB15_482:                             # %if.then2522
                                        #   in Loop: Header=BB15_484 Depth=1
	movq	(%r15), %rax
	incl	16(%rax)
.LBB15_483:                             # %while.body2479
                                        #   in Loop: Header=BB15_484 Depth=1
	cmpl	$0, 36(%r15)
	jg	.LBB15_486
.LBB15_484:                             # %if.end2493
                                        # =>This Inner Loop Header: Depth=1
	movq	(%r15), %rax
	cmpl	$0, 8(%rax)
	je	.LBB15_487
# BB#485:                               # %if.end2499
                                        #   in Loop: Header=BB15_484 Depth=1
	movl	32(%r15), %eax
	shll	$8, %eax
	movq	(%r15), %rcx
	movq	(%rcx), %rcx
	movzbl	(%rcx), %ecx
	orl	%eax, %ecx
	movl	%ecx, 32(%r15)
	addl	$8, 36(%r15)
	movq	(%r15), %rax
	incq	(%rax)
	movq	(%r15), %rax
	decl	8(%rax)
	movq	(%r15), %rax
	incl	12(%rax)
	movq	(%r15), %rax
	cmpl	$0, 12(%rax)
	jne	.LBB15_483
	jmp	.LBB15_482
.LBB15_486:                             # %if.then2483
	movq	%rdi, -64(%rbp)         # 8-byte Spill
	movl	32(%r15), %r13d
	movl	36(%r15), %ecx
	decl	%ecx
	shrl	%cl, %r13d
	andl	$1, %r13d
	movl	%ecx, 36(%r15)
	movq	-152(%rbp), %rdi        # 8-byte Reload
	leal	(%r13,%rdi,2), %edi
	jmp	.LBB15_474
.LBB15_489:                             # %if.end1922
	movslq	(%r14,%rdi,4), %rax
	movslq	%ecx, %rcx
	subq	%rax, %rcx
	movq	-168(%rbp), %rax        # 8-byte Reload
	movl	(%rax,%rcx,4), %eax
	movq	%rax, -136(%rbp)        # 8-byte Spill
	movl	-116(%rbp), %eax        # 4-byte Reload
	movq	-64(%rbp), %rdi         # 8-byte Reload
	jmp	.LBB15_353
.LBB15_490:
	movq	-64(%rbp), %rdi         # 8-byte Reload
	jmp	.LBB15_488
.Lfunc_end15:
	.size	BZ2_decompress, .Lfunc_end15-BZ2_decompress
	.cfi_endproc
	.section	.rodata,"a",@progbits
	.p2align	3
.LJTI15_0:
	.quad	.LBB15_4
	.quad	.LBB15_12
	.quad	.LBB15_19
	.quad	.LBB15_26
	.quad	.LBB15_41
	.quad	.LBB15_118
	.quad	.LBB15_125
	.quad	.LBB15_132
	.quad	.LBB15_139
	.quad	.LBB15_146
	.quad	.LBB15_155
	.quad	.LBB15_161
	.quad	.LBB15_167
	.quad	.LBB15_173
	.quad	.LBB15_179
	.quad	.LBB15_185
	.quad	.LBB15_191
	.quad	.LBB15_197
	.quad	.LBB15_220
	.quad	.LBB15_274
	.quad	.LBB15_234
	.quad	.LBB15_241
	.quad	.LBB15_250
	.quad	.LBB15_285
	.quad	.LBB15_294
	.quad	.LBB15_300
	.quad	.LBB15_330
	.quad	.LBB15_344
	.quad	.LBB15_385
	.quad	.LBB15_455
	.quad	.LBB15_440
	.quad	.LBB15_481
	.quad	.LBB15_47
	.quad	.LBB15_54
	.quad	.LBB15_61
	.quad	.LBB15_68
	.quad	.LBB15_75
	.quad	.LBB15_82
	.quad	.LBB15_88
	.quad	.LBB15_94
	.quad	.LBB15_100

	.text
	.p2align	4, 0x90
	.type	makeMaps_d,@function
makeMaps_d:                             # @makeMaps_d
	.cfi_startproc
# BB#0:                                 # %entry
	pushq	%rbp
.Lcfi91:
	.cfi_def_cfa_offset 16
.Lcfi92:
	.cfi_offset %rbp, -16
	movq	%rsp, %rbp
.Lcfi93:
	.cfi_def_cfa_register %rbp
	movl	$0, 3192(%rdi)
	xorl	%eax, %eax
	cmpl	$255, %eax
	jle	.LBB16_2
	jmp	.LBB16_5
	.p2align	4, 0x90
.LBB16_4:                               # %for.inc
                                        #   in Loop: Header=BB16_2 Depth=1
	incq	%rax
	cmpl	$255, %eax
	jg	.LBB16_5
.LBB16_2:                               # %for.body
                                        # =>This Inner Loop Header: Depth=1
	cmpb	$0, 3196(%rdi,%rax)
	je	.LBB16_4
# BB#3:                                 # %if.then
                                        #   in Loop: Header=BB16_2 Depth=1
	movslq	3192(%rdi), %rcx
	movb	%al, 3468(%rdi,%rcx)
	incl	3192(%rdi)
	jmp	.LBB16_4
.LBB16_5:                               # %for.end
	popq	%rbp
	retq
.Lfunc_end16:
	.size	makeMaps_d, .Lfunc_end16-makeMaps_d
	.cfi_endproc

	.globl	BZ2_indexIntoF
	.p2align	4, 0x90
	.type	BZ2_indexIntoF,@function
BZ2_indexIntoF:                         # @BZ2_indexIntoF
	.cfi_startproc
# BB#0:                                 # %entry
	pushq	%rbp
.Lcfi94:
	.cfi_def_cfa_offset 16
.Lcfi95:
	.cfi_offset %rbp, -16
	movq	%rsp, %rbp
.Lcfi96:
	.cfi_def_cfa_register %rbp
	movl	$256, %ecx              # imm = 0x100
	xorl	%eax, %eax
	.p2align	4, 0x90
.LBB17_1:                               # %do.body
                                        # =>This Inner Loop Header: Depth=1
	leal	(%rax,%rcx), %edx
	sarl	%edx
	movslq	%edx, %rdx
	cmpl	(%rsi,%rdx,4), %edi
	cmovgel	%edx, %eax
	cmovll	%edx, %ecx
	movl	%ecx, %edx
	subl	%eax, %edx
	cmpl	$1, %edx
	jne	.LBB17_1
# BB#2:                                 # %do.end
                                        # kill: %EAX<def> %EAX<kill> %RAX<kill>
	popq	%rbp
	retq
.Lfunc_end17:
	.size	BZ2_indexIntoF, .Lfunc_end17-BZ2_indexIntoF
	.cfi_endproc

	.globl	BZ2_bzlibVersion
	.p2align	4, 0x90
	.type	BZ2_bzlibVersion,@function
BZ2_bzlibVersion:                       # @BZ2_bzlibVersion
	.cfi_startproc
# BB#0:                                 # %entry
	pushq	%rbp
.Lcfi97:
	.cfi_def_cfa_offset 16
.Lcfi98:
	.cfi_offset %rbp, -16
	movq	%rsp, %rbp
.Lcfi99:
	.cfi_def_cfa_register %rbp
	movl	$.L.str.11, %eax
	popq	%rbp
	retq
.Lfunc_end18:
	.size	BZ2_bzlibVersion, .Lfunc_end18-BZ2_bzlibVersion
	.cfi_endproc

	.globl	BZ2_bzCompressInit
	.p2align	4, 0x90
	.type	BZ2_bzCompressInit,@function
BZ2_bzCompressInit:                     # @BZ2_bzCompressInit
	.cfi_startproc
# BB#0:                                 # %entry
	pushq	%rbp
.Lcfi100:
	.cfi_def_cfa_offset 16
.Lcfi101:
	.cfi_offset %rbp, -16
	movq	%rsp, %rbp
.Lcfi102:
	.cfi_def_cfa_register %rbp
	pushq	%r15
	pushq	%r14
	pushq	%r13
	pushq	%r12
	pushq	%rbx
	pushq	%rax
.Lcfi103:
	.cfi_offset %rbx, -56
.Lcfi104:
	.cfi_offset %r12, -48
.Lcfi105:
	.cfi_offset %r13, -40
.Lcfi106:
	.cfi_offset %r14, -32
.Lcfi107:
	.cfi_offset %r15, -24
	movl	%ecx, %ebx
	movl	%edx, %r12d
	movl	%esi, %r13d
	movq	%rdi, %r15
	callq	bz_config_ok
	testl	%eax, %eax
	je	.LBB19_1
# BB#2:                                 # %if.end
	testq	%r15, %r15
	movl	$-2, %r14d
	je	.LBB19_24
# BB#3:                                 # %if.end
	testl	%r13d, %r13d
	jle	.LBB19_24
# BB#4:                                 # %if.end
	cmpl	$9, %r13d
	jg	.LBB19_24
# BB#5:                                 # %if.end
	testl	%ebx, %ebx
	js	.LBB19_24
# BB#6:                                 # %if.end
	cmpl	$250, %ebx
	jg	.LBB19_24
# BB#7:                                 # %if.end9
	testl	%ebx, %ebx
	movl	$30, %eax
	cmovnel	%ebx, %eax
	movl	%eax, -48(%rbp)         # 4-byte Spill
	cmpq	$0, 56(%r15)
	jne	.LBB19_9
# BB#8:                                 # %if.then14
	movq	$default_bzalloc, 56(%r15)
.LBB19_9:                               # %if.end16
	cmpq	$0, 64(%r15)
	jne	.LBB19_11
# BB#10:                                # %if.then18
	movq	$default_bzfree, 64(%r15)
.LBB19_11:                              # %if.end20
	movq	72(%r15), %rdi
	movl	$55768, %esi            # imm = 0xD9D8
	movl	$1, %edx
	callq	*56(%r15)
	movq	%rax, %rbx
	movl	$-3, %r14d
	testq	%rbx, %rbx
	je	.LBB19_24
# BB#12:                                # %if.end25
	movl	%r12d, -44(%rbp)        # 4-byte Spill
	movq	%r15, (%rbx)
	movq	$0, 24(%rbx)
	movq	$0, 32(%rbx)
	movq	$0, 40(%rbx)
	movq	72(%r15), %rdi
	imull	$400000, %r13d, %r12d   # imm = 0x61A80
	movl	$1, %edx
	movl	%r12d, %esi
	callq	*56(%r15)
	movq	%rax, 24(%rbx)
	movq	72(%r15), %rdi
	addl	$136, %r12d
	movl	$1, %edx
	movl	%r12d, %esi
	callq	*56(%r15)
	movq	%rax, 32(%rbx)
	movq	72(%r15), %rdi
	movl	$262148, %esi           # imm = 0x40004
	movl	$1, %edx
	callq	*56(%r15)
	movq	%rax, 40(%rbx)
	cmpq	$0, 24(%rbx)
	je	.LBB19_15
# BB#13:                                # %lor.lhs.false47
	cmpq	$0, 32(%rbx)
	je	.LBB19_15
# BB#14:                                # %lor.lhs.false51
	cmpq	$0, 40(%rbx)
	je	.LBB19_15
# BB#23:                                # %if.end86
	movl	$0, 660(%rbx)
	movl	$2, 12(%rbx)
	movl	$2, 8(%rbx)
	movl	$0, 652(%rbx)
	movl	%r13d, 664(%rbx)
	imull	$100000, %r13d, %eax    # imm = 0x186A0
	addl	$-19, %eax
	movl	%eax, 112(%rbx)
	movl	-44(%rbp), %eax         # 4-byte Reload
	movl	%eax, 656(%rbx)
	movl	-48(%rbp), %eax         # 4-byte Reload
	movl	%eax, 88(%rbx)
	movq	32(%rbx), %rax
	movq	%rax, 64(%rbx)
	movq	24(%rbx), %rax
	movq	%rax, 72(%rbx)
	movq	$0, 80(%rbx)
	movq	24(%rbx), %rax
	movq	%rax, 56(%rbx)
	movq	%rbx, 48(%r15)
	movq	$0, 12(%r15)
	movq	$0, 36(%r15)
	movq	%rbx, %rdi
	callq	init_RL
	movq	%rbx, %rdi
	callq	prepare_new_block
	xorl	%r14d, %r14d
	jmp	.LBB19_24
.LBB19_1:
	movl	$-9, %r14d
.LBB19_24:                              # %return
	movl	%r14d, %eax
	addq	$8, %rsp
	popq	%rbx
	popq	%r12
	popq	%r13
	popq	%r14
	popq	%r15
	popq	%rbp
	retq
.LBB19_15:                              # %if.then55
	cmpq	$0, 24(%rbx)
	je	.LBB19_17
# BB#16:                                # %if.then59
	movq	72(%r15), %rdi
	movq	24(%rbx), %rsi
	callq	*64(%r15)
.LBB19_17:                              # %if.end63
	cmpq	$0, 32(%rbx)
	je	.LBB19_19
# BB#18:                                # %if.then67
	movq	72(%r15), %rdi
	movq	32(%rbx), %rsi
	callq	*64(%r15)
.LBB19_19:                              # %if.end71
	cmpq	$0, 40(%rbx)
	je	.LBB19_21
# BB#20:                                # %if.then75
	movq	72(%r15), %rdi
	movq	40(%rbx), %rsi
	callq	*64(%r15)
.LBB19_21:                              # %if.end79
	testq	%rbx, %rbx
	je	.LBB19_24
# BB#22:                                # %if.then82
	movq	72(%r15), %rdi
	movq	%rbx, %rsi
	callq	*64(%r15)
	jmp	.LBB19_24
.Lfunc_end19:
	.size	BZ2_bzCompressInit, .Lfunc_end19-BZ2_bzCompressInit
	.cfi_endproc

	.p2align	4, 0x90
	.type	bz_config_ok,@function
bz_config_ok:                           # @bz_config_ok
	.cfi_startproc
# BB#0:                                 # %entry
	pushq	%rbp
.Lcfi108:
	.cfi_def_cfa_offset 16
.Lcfi109:
	.cfi_offset %rbp, -16
	movq	%rsp, %rbp
.Lcfi110:
	.cfi_def_cfa_register %rbp
	movl	$1, %eax
	popq	%rbp
	retq
.Lfunc_end20:
	.size	bz_config_ok, .Lfunc_end20-bz_config_ok
	.cfi_endproc

	.p2align	4, 0x90
	.type	default_bzalloc,@function
default_bzalloc:                        # @default_bzalloc
	.cfi_startproc
# BB#0:                                 # %entry
	pushq	%rbp
.Lcfi111:
	.cfi_def_cfa_offset 16
.Lcfi112:
	.cfi_offset %rbp, -16
	movq	%rsp, %rbp
.Lcfi113:
	.cfi_def_cfa_register %rbp
	imull	%edx, %esi
	movslq	%esi, %rdi
	callq	malloc
	popq	%rbp
	retq
.Lfunc_end21:
	.size	default_bzalloc, .Lfunc_end21-default_bzalloc
	.cfi_endproc

	.p2align	4, 0x90
	.type	default_bzfree,@function
default_bzfree:                         # @default_bzfree
	.cfi_startproc
# BB#0:                                 # %entry
	testq	%rsi, %rsi
	je	.LBB22_2
# BB#1:                                 # %if.then
	pushq	%rbp
.Lcfi114:
	.cfi_def_cfa_offset 16
.Lcfi115:
	.cfi_offset %rbp, -16
	movq	%rsp, %rbp
.Lcfi116:
	.cfi_def_cfa_register %rbp
	movq	%rsi, %rdi
	callq	free
	popq	%rbp
.LBB22_2:                               # %if.end
	retq
.Lfunc_end22:
	.size	default_bzfree, .Lfunc_end22-default_bzfree
	.cfi_endproc

	.p2align	4, 0x90
	.type	init_RL,@function
init_RL:                                # @init_RL
	.cfi_startproc
# BB#0:                                 # %entry
	pushq	%rbp
.Lcfi117:
	.cfi_def_cfa_offset 16
.Lcfi118:
	.cfi_offset %rbp, -16
	movq	%rsp, %rbp
.Lcfi119:
	.cfi_def_cfa_register %rbp
	movq	$256, 92(%rdi)          # imm = 0x100
	popq	%rbp
	retq
.Lfunc_end23:
	.size	init_RL, .Lfunc_end23-init_RL
	.cfi_endproc

	.p2align	4, 0x90
	.type	prepare_new_block,@function
prepare_new_block:                      # @prepare_new_block
	.cfi_startproc
# BB#0:                                 # %entry
	pushq	%rbp
.Lcfi120:
	.cfi_def_cfa_offset 16
.Lcfi121:
	.cfi_offset %rbp, -16
	movq	%rsp, %rbp
.Lcfi122:
	.cfi_def_cfa_register %rbp
	movl	$0, 108(%rdi)
	movl	$0, 116(%rdi)
	movl	$0, 120(%rdi)
	movl	$-1, 648(%rdi)
	xorl	%eax, %eax
	cmpl	$255, %eax
	jg	.LBB24_3
	.p2align	4, 0x90
.LBB24_2:                               # %for.body
                                        # =>This Inner Loop Header: Depth=1
	movb	$0, 128(%rdi,%rax)
	incq	%rax
	cmpl	$255, %eax
	jle	.LBB24_2
.LBB24_3:                               # %for.end
	incl	660(%rdi)
	popq	%rbp
	retq
.Lfunc_end24:
	.size	prepare_new_block, .Lfunc_end24-prepare_new_block
	.cfi_endproc

	.globl	BZ2_bzCompress
	.p2align	4, 0x90
	.type	BZ2_bzCompress,@function
BZ2_bzCompress:                         # @BZ2_bzCompress
	.cfi_startproc
# BB#0:                                 # %entry
	pushq	%rbp
.Lcfi123:
	.cfi_def_cfa_offset 16
.Lcfi124:
	.cfi_offset %rbp, -16
	movq	%rsp, %rbp
.Lcfi125:
	.cfi_def_cfa_register %rbp
	pushq	%r14
	pushq	%rbx
.Lcfi126:
	.cfi_offset %rbx, -32
.Lcfi127:
	.cfi_offset %r14, -24
	movl	$-2, %r14d
	testq	%rdi, %rdi
	je	.LBB25_26
# BB#1:                                 # %if.end
	movq	48(%rdi), %rbx
	testq	%rbx, %rbx
	je	.LBB25_26
# BB#2:                                 # %if.end3
	cmpq	%rdi, (%rbx)
	je	.LBB25_3
.LBB25_26:                              # %return
	movl	%r14d, %eax
	popq	%rbx
	popq	%r14
	popq	%rbp
	retq
.LBB25_3:
	movl	$-1, %r14d
	jmp	.LBB25_6
	.p2align	4, 0x90
.LBB25_5:                               # %preswitch.sink.split
                                        #   in Loop: Header=BB25_6 Depth=1
	movl	8(%rdi), %ecx
	movl	%ecx, 16(%rbx)
	movl	%eax, 8(%rbx)
.LBB25_6:                               # %preswitch
                                        # =>This Inner Loop Header: Depth=1
	movl	8(%rbx), %eax
	decl	%eax
	cmpl	$3, %eax
	ja	.LBB25_25
# BB#7:                                 # %preswitch
                                        #   in Loop: Header=BB25_6 Depth=1
	jmpq	*.LJTI25_0(,%rax,8)
.LBB25_8:                               # %sw.bb8
                                        #   in Loop: Header=BB25_6 Depth=1
	cmpl	$1, %esi
	je	.LBB25_4
# BB#9:                                 # %sw.bb8
                                        #   in Loop: Header=BB25_6 Depth=1
	movl	$4, %eax
	cmpl	$2, %esi
	je	.LBB25_5
	jmp	.LBB25_10
	.p2align	4, 0x90
.LBB25_4:                               # %if.then13
                                        #   in Loop: Header=BB25_6 Depth=1
	movl	$3, %eax
	jmp	.LBB25_5
.LBB25_10:                              # %sw.bb8
	testl	%esi, %esi
	movl	$-2, %r14d
	jne	.LBB25_26
# BB#11:                                # %if.then10
	callq	handle_compress
	testb	%al, %al
	movl	$1, %eax
	movl	$-2, %r14d
	cmovnel	%eax, %r14d
	jmp	.LBB25_26
.LBB25_25:                              # %sw.epilog
	xorl	%r14d, %r14d
	jmp	.LBB25_26
.LBB25_12:                              # %sw.bb23
	cmpl	$1, %esi
	jne	.LBB25_26
# BB#13:                                # %if.end27
	movl	16(%rbx), %eax
	movq	(%rbx), %rcx
	cmpl	8(%rcx), %eax
	jne	.LBB25_26
# BB#14:                                # %if.end34
	callq	handle_compress
	movl	$2, %r14d
	cmpl	$0, 16(%rbx)
	jne	.LBB25_26
# BB#15:                                # %lor.lhs.false
	movq	%rbx, %rdi
	callq	isempty_RL
	testb	%al, %al
	je	.LBB25_26
# BB#16:                                # %lor.lhs.false41
	movl	120(%rbx), %eax
	cmpl	116(%rbx), %eax
	jl	.LBB25_26
# BB#17:                                # %if.end45
	movl	$2, 8(%rbx)
	movl	$1, %r14d
	jmp	.LBB25_26
.LBB25_18:                              # %sw.bb47
	cmpl	$2, %esi
	jne	.LBB25_26
# BB#19:                                # %if.end51
	movl	16(%rbx), %eax
	movq	(%rbx), %rcx
	cmpl	8(%rcx), %eax
	jne	.LBB25_26
# BB#20:                                # %if.end58
	callq	handle_compress
	testb	%al, %al
	je	.LBB25_26
# BB#21:                                # %if.end62
	movl	$3, %r14d
	cmpl	$0, 16(%rbx)
	jne	.LBB25_26
# BB#22:                                # %lor.lhs.false66
	movq	%rbx, %rdi
	callq	isempty_RL
	testb	%al, %al
	je	.LBB25_26
# BB#23:                                # %lor.lhs.false69
	movl	120(%rbx), %eax
	cmpl	116(%rbx), %eax
	jl	.LBB25_26
# BB#24:                                # %if.end75
	movl	$1, 8(%rbx)
	movl	$4, %r14d
	jmp	.LBB25_26
.Lfunc_end25:
	.size	BZ2_bzCompress, .Lfunc_end25-BZ2_bzCompress
	.cfi_endproc
	.section	.rodata,"a",@progbits
	.p2align	3
.LJTI25_0:
	.quad	.LBB25_26
	.quad	.LBB25_8
	.quad	.LBB25_12
	.quad	.LBB25_18

	.text
	.p2align	4, 0x90
	.type	handle_compress,@function
handle_compress:                        # @handle_compress
	.cfi_startproc
# BB#0:                                 # %entry
	pushq	%rbp
.Lcfi128:
	.cfi_def_cfa_offset 16
.Lcfi129:
	.cfi_offset %rbp, -16
	movq	%rsp, %rbp
.Lcfi130:
	.cfi_def_cfa_register %rbp
	pushq	%r15
	pushq	%r14
	pushq	%rbx
	pushq	%rax
.Lcfi131:
	.cfi_offset %rbx, -40
.Lcfi132:
	.cfi_offset %r14, -32
.Lcfi133:
	.cfi_offset %r15, -24
	movq	48(%rdi), %rbx
	xorl	%r14d, %r14d
	xorl	%r15d, %r15d
	cmpl	$1, 12(%rbx)
	jne	.LBB26_9
	jmp	.LBB26_2
.LBB26_15:                              # %while.body.outer
                                        #   in Loop: Header=BB26_9 Depth=1
	movq	%rbx, %rdi
	callq	BZ2_compressBlock
	movl	$1, 12(%rbx)
	.p2align	4, 0x90
.LBB26_1:                               # %while.body
                                        #   in Loop: Header=BB26_9 Depth=1
	cmpl	$1, 12(%rbx)
	jne	.LBB26_9
.LBB26_2:                               # %if.then
	movq	%rbx, %rdi
	callq	copy_output_until_stop
	orb	%al, %r15b
	movl	120(%rbx), %eax
	cmpl	116(%rbx), %eax
	jl	.LBB26_17
# BB#3:                                 # %if.end
	cmpl	$4, 8(%rbx)
	jne	.LBB26_6
# BB#4:                                 # %land.lhs.true
	cmpl	$0, 16(%rbx)
	jne	.LBB26_6
# BB#5:                                 # %land.lhs.true11
	movq	%rbx, %rdi
	callq	isempty_RL
	testb	%al, %al
	jne	.LBB26_17
	.p2align	4, 0x90
.LBB26_6:                               # %if.end15
	movq	%rbx, %rdi
	callq	prepare_new_block
	movl	$2, 12(%rbx)
	cmpl	$3, 8(%rbx)
	jne	.LBB26_9
# BB#7:                                 # %land.lhs.true20
	cmpl	$0, 16(%rbx)
	jne	.LBB26_9
# BB#8:                                 # %land.lhs.true24
	movq	%rbx, %rdi
	callq	isempty_RL
	testb	%al, %al
	jne	.LBB26_17
	.p2align	4, 0x90
.LBB26_9:                               # %if.end30
                                        # =>This Inner Loop Header: Depth=1
	cmpl	$2, 12(%rbx)
	jne	.LBB26_1
# BB#10:                                # %if.then34
                                        #   in Loop: Header=BB26_9 Depth=1
	movq	%rbx, %rdi
	callq	copy_input_until_stop
	orb	%al, %r14b
	cmpl	$2, 8(%rbx)
	je	.LBB26_13
# BB#11:                                # %land.lhs.true43
