	.text
	.file	"gzip.opt0.bc"
	.globl	bi_init
	.p2align	4, 0x90
	.type	bi_init,@function
bi_init:                                # @bi_init
	.cfi_startproc
# BB#0:                                 # %entry
	pushq	%rbp
.Lcfi0:
	.cfi_def_cfa_offset 16
.Lcfi1:
	.cfi_offset %rbp, -16
	movq	%rsp, %rbp
.Lcfi2:
	.cfi_def_cfa_register %rbp
	movl	%edi, -4(%rbp)
	movl	%edi, zfile(%rip)
	movw	$0, bi_buf(%rip)
	movl	$0, bi_valid(%rip)
	cmpl	$-1, zfile(%rip)
	je	.LBB0_2
# BB#1:                                 # %if.then
	movq	$file_read, read_buf(%rip)
.LBB0_2:                                # %if.end
	popq	%rbp
	retq
.Lfunc_end0:
	.size	bi_init, .Lfunc_end0-bi_init
	.cfi_endproc

	.globl	file_read
	.p2align	4, 0x90
	.type	file_read,@function
file_read:                              # @file_read
	.cfi_startproc
# BB#0:                                 # %entry
	pushq	%rbp
.Lcfi3:
	.cfi_def_cfa_offset 16
.Lcfi4:
	.cfi_offset %rbp, -16
	movq	%rsp, %rbp
.Lcfi5:
	.cfi_def_cfa_register %rbp
	subq	$32, %rsp
	movq	%rdi, -24(%rbp)
	movl	%esi, -12(%rbp)
	movl	ifd(%rip), %edi
	movq	-24(%rbp), %rsi
	movl	-12(%rbp), %edx
	callq	read
	movl	%eax, -4(%rbp)
	testl	%eax, %eax
	je	.LBB1_4
# BB#1:                                 # %if.end
	cmpl	$-1, -4(%rbp)
	je	.LBB1_2
# BB#3:                                 # %if.end6
	movq	-24(%rbp), %rdi
	movl	-4(%rbp), %esi
	callq	updcrc
	movq	%rax, crc(%rip)
	movl	-4(%rbp), %eax
	addq	%rax, bytes_in(%rip)
.LBB1_4:                                # %return
	movl	-4(%rbp), %eax
	movl	%eax, -8(%rbp)
	jmp	.LBB1_5
.LBB1_2:                                # %if.then5
	callq	read_error
	movl	$-1, -8(%rbp)
.LBB1_5:                                # %return
	movl	-8(%rbp), %eax
	addq	$32, %rsp
	popq	%rbp
	retq
.Lfunc_end1:
	.size	file_read, .Lfunc_end1-file_read
	.cfi_endproc

	.globl	send_bits
	.p2align	4, 0x90
	.type	send_bits,@function
send_bits:                              # @send_bits
	.cfi_startproc
# BB#0:                                 # %entry
	pushq	%rbp
.Lcfi6:
	.cfi_def_cfa_offset 16
.Lcfi7:
	.cfi_offset %rbp, -16
	movq	%rsp, %rbp
.Lcfi8:
	.cfi_def_cfa_register %rbp
	subq	$16, %rsp
	movl	%edi, -4(%rbp)
	movl	%esi, -8(%rbp)
	movl	$16, %eax
	subl	%esi, %eax
	cmpl	%eax, bi_valid(%rip)
	jle	.LBB2_8
# BB#1:                                 # %if.then
	movl	-4(%rbp), %eax
	movb	bi_valid(%rip), %cl
	shll	%cl, %eax
	movzwl	bi_buf(%rip), %ecx
	orl	%eax, %ecx
	movw	%cx, bi_buf(%rip)
	cmpl	$16381, outcnt(%rip)    # imm = 0x3FFD
	ja	.LBB2_3
# BB#2:                                 # %if.then4
	movb	bi_buf(%rip), %al
	movl	outcnt(%rip), %ecx
	leal	1(%rcx), %edx
	movl	%edx, outcnt(%rip)
	movb	%al, outbuf(%rcx)
	movb	bi_buf+1(%rip), %al
	movl	outcnt(%rip), %ecx
	leal	1(%rcx), %edx
	movl	%edx, outcnt(%rip)
	movb	%al, outbuf(%rcx)
	jmp	.LBB2_7
.LBB2_8:                                # %if.else42
	movl	-4(%rbp), %eax
	movb	bi_valid(%rip), %cl
	shll	%cl, %eax
	movzwl	bi_buf(%rip), %ecx
	orl	%eax, %ecx
	movw	%cx, bi_buf(%rip)
	movl	-8(%rbp), %eax
	addl	%eax, bi_valid(%rip)
	jmp	.LBB2_9
.LBB2_3:                                # %if.else
	movb	bi_buf(%rip), %al
	movl	outcnt(%rip), %ecx
	leal	1(%rcx), %edx
	movl	%edx, outcnt(%rip)
	movb	%al, outbuf(%rcx)
	cmpl	$16384, outcnt(%rip)    # imm = 0x4000
	jne	.LBB2_5
# BB#4:                                 # %if.then20
	callq	flush_outbuf
.LBB2_5:                                # %if.end
	movb	bi_buf+1(%rip), %al
	movl	outcnt(%rip), %ecx
	leal	1(%rcx), %edx
	movl	%edx, outcnt(%rip)
	movb	%al, outbuf(%rcx)
	cmpl	$16384, outcnt(%rip)    # imm = 0x4000
	jne	.LBB2_7
# BB#6:                                 # %if.then29
	callq	flush_outbuf
.LBB2_7:                                # %if.end31
	movzwl	-4(%rbp), %eax
	movl	$16, %ecx
	subl	bi_valid(%rip), %ecx
                                        # kill: %CL<def> %CL<kill> %ECX<kill>
	shrl	%cl, %eax
	movw	%ax, bi_buf(%rip)
	movl	-8(%rbp), %eax
	movl	bi_valid(%rip), %ecx
	leal	-16(%rcx,%rax), %eax
	movl	%eax, bi_valid(%rip)
.LBB2_9:                                # %if.end48
	addq	$16, %rsp
	popq	%rbp
	retq
.Lfunc_end2:
	.size	send_bits, .Lfunc_end2-send_bits
	.cfi_endproc

	.globl	flush_outbuf
	.p2align	4, 0x90
	.type	flush_outbuf,@function
flush_outbuf:                           # @flush_outbuf
	.cfi_startproc
# BB#0:                                 # %entry
	cmpl	$0, outcnt(%rip)
	je	.LBB3_2
# BB#1:                                 # %if.end
	pushq	%rbp
.Lcfi9:
	.cfi_def_cfa_offset 16
.Lcfi10:
	.cfi_offset %rbp, -16
	movq	%rsp, %rbp
.Lcfi11:
	.cfi_def_cfa_register %rbp
	movl	ofd(%rip), %edi
	movl	outcnt(%rip), %edx
	movl	$outbuf, %esi
	callq	write_buf
	movl	outcnt(%rip), %eax
	addq	%rax, bytes_out(%rip)
	movl	$0, outcnt(%rip)
	popq	%rbp
.LBB3_2:                                # %return
	retq
.Lfunc_end3:
	.size	flush_outbuf, .Lfunc_end3-flush_outbuf
	.cfi_endproc

	.globl	bi_reverse
	.p2align	4, 0x90
	.type	bi_reverse,@function
bi_reverse:                             # @bi_reverse
	.cfi_startproc
# BB#0:                                 # %entry
	pushq	%rbp
.Lcfi12:
	.cfi_def_cfa_offset 16
.Lcfi13:
	.cfi_offset %rbp, -16
	movq	%rsp, %rbp
.Lcfi14:
	.cfi_def_cfa_register %rbp
	movl	%edi, -8(%rbp)
	movl	%esi, -12(%rbp)
	movl	$0, -4(%rbp)
	.p2align	4, 0x90
.LBB4_1:                                # %do.cond
                                        # =>This Inner Loop Header: Depth=1
	movl	-8(%rbp), %eax
	andl	$1, %eax
	orl	%eax, -4(%rbp)
	shrl	-8(%rbp)
	shll	-4(%rbp)
	decl	-12(%rbp)
	jg	.LBB4_1
# BB#2:                                 # %do.end
	movl	-4(%rbp), %eax
	shrl	%eax
	popq	%rbp
	retq
.Lfunc_end4:
	.size	bi_reverse, .Lfunc_end4-bi_reverse
	.cfi_endproc

	.globl	bi_windup
	.p2align	4, 0x90
	.type	bi_windup,@function
bi_windup:                              # @bi_windup
	.cfi_startproc
# BB#0:                                 # %entry
	pushq	%rbp
.Lcfi15:
	.cfi_def_cfa_offset 16
.Lcfi16:
	.cfi_offset %rbp, -16
	movq	%rsp, %rbp
.Lcfi17:
	.cfi_def_cfa_register %rbp
	cmpl	$9, bi_valid(%rip)
	jl	.LBB5_6
# BB#1:                                 # %if.then
	cmpl	$16381, outcnt(%rip)    # imm = 0x3FFD
	ja	.LBB5_3
# BB#2:                                 # %if.then2
	movb	bi_buf(%rip), %al
	movl	outcnt(%rip), %ecx
	leal	1(%rcx), %edx
	movl	%edx, outcnt(%rip)
	movb	%al, outbuf(%rcx)
	movb	bi_buf+1(%rip), %al
	movl	outcnt(%rip), %ecx
	leal	1(%rcx), %edx
	movl	%edx, outcnt(%rip)
	movb	%al, outbuf(%rcx)
	jmp	.LBB5_10
.LBB5_6:                                # %if.else29
	cmpl	$0, bi_valid(%rip)
	jle	.LBB5_10
# BB#7:                                 # %if.then32
	movb	bi_buf(%rip), %al
	jmp	.LBB5_8
.LBB5_3:                                # %if.else
	movb	bi_buf(%rip), %al
	movl	outcnt(%rip), %ecx
	leal	1(%rcx), %edx
	movl	%edx, outcnt(%rip)
	movb	%al, outbuf(%rcx)
	cmpl	$16384, outcnt(%rip)    # imm = 0x4000
	jne	.LBB5_5
# BB#4:                                 # %if.then17
	callq	flush_outbuf
.LBB5_5:                                # %if.end
	movb	bi_buf+1(%rip), %al
.LBB5_8:                                # %if.then32
	movl	outcnt(%rip), %ecx
	leal	1(%rcx), %edx
	movl	%edx, outcnt(%rip)
	movb	%al, outbuf(%rcx)
	cmpl	$16384, outcnt(%rip)    # imm = 0x4000
	jne	.LBB5_10
# BB#9:                                 # %if.then39
	callq	flush_outbuf
.LBB5_10:                               # %if.end42
	movw	$0, bi_buf(%rip)
	movl	$0, bi_valid(%rip)
	popq	%rbp
	retq
.Lfunc_end5:
	.size	bi_windup, .Lfunc_end5-bi_windup
	.cfi_endproc

	.globl	copy_block
	.p2align	4, 0x90
	.type	copy_block,@function
copy_block:                             # @copy_block
	.cfi_startproc
# BB#0:                                 # %entry
	pushq	%rbp
.Lcfi18:
	.cfi_def_cfa_offset 16
.Lcfi19:
	.cfi_offset %rbp, -16
	movq	%rsp, %rbp
.Lcfi20:
	.cfi_def_cfa_register %rbp
	subq	$16, %rsp
	movq	%rdi, -16(%rbp)
	movl	%esi, -4(%rbp)
	movl	%edx, -8(%rbp)
	callq	bi_windup
	cmpl	$0, -8(%rbp)
	je	.LBB6_14
# BB#1:                                 # %if.then
	cmpl	$16381, outcnt(%rip)    # imm = 0x3FFD
	ja	.LBB6_3
# BB#2:                                 # %if.then1
	movb	-4(%rbp), %al
	movl	outcnt(%rip), %ecx
	leal	1(%rcx), %edx
	movl	%edx, outcnt(%rip)
	movb	%al, outbuf(%rcx)
	movb	-3(%rbp), %al
	movl	outcnt(%rip), %ecx
	leal	1(%rcx), %edx
	movl	%edx, outcnt(%rip)
	movb	%al, outbuf(%rcx)
	cmpl	$16381, outcnt(%rip)    # imm = 0x3FFD
	jbe	.LBB6_8
	jmp	.LBB6_9
.LBB6_3:                                # %if.else
	movb	-4(%rbp), %al
	movl	outcnt(%rip), %ecx
	leal	1(%rcx), %edx
	movl	%edx, outcnt(%rip)
	movb	%al, outbuf(%rcx)
	cmpl	$16384, outcnt(%rip)    # imm = 0x4000
	jne	.LBB6_5
# BB#4:                                 # %if.then19
	callq	flush_outbuf
.LBB6_5:                                # %if.end
	movb	-3(%rbp), %al
	movl	outcnt(%rip), %ecx
	leal	1(%rcx), %edx
	movl	%edx, outcnt(%rip)
	movb	%al, outbuf(%rcx)
	cmpl	$16384, outcnt(%rip)    # imm = 0x4000
	jne	.LBB6_7
# BB#6:                                 # %if.then29
	callq	flush_outbuf
.LBB6_7:                                # %if.end31
	cmpl	$16381, outcnt(%rip)    # imm = 0x3FFD
	ja	.LBB6_9
.LBB6_8:                                # %if.then34
	movl	-4(%rbp), %eax
	notl	%eax
	movl	outcnt(%rip), %ecx
	leal	1(%rcx), %edx
	movl	%edx, outcnt(%rip)
	movb	%al, outbuf(%rcx)
	movl	-4(%rbp), %eax
	notl	%eax
	movl	outcnt(%rip), %ecx
	leal	1(%rcx), %edx
	movl	%edx, outcnt(%rip)
	movb	%ah, outbuf(%rcx)  # NOREX
	jmp	.LBB6_14
.LBB6_9:                                # %if.else50
	movl	-4(%rbp), %eax
	notl	%eax
	movl	outcnt(%rip), %ecx
	leal	1(%rcx), %edx
	movl	%edx, outcnt(%rip)
	movb	%al, outbuf(%rcx)
	cmpl	$16384, outcnt(%rip)    # imm = 0x4000
	jne	.LBB6_11
# BB#10:                                # %if.then61
	callq	flush_outbuf
.LBB6_11:                               # %if.end62
	movl	-4(%rbp), %eax
	notl	%eax
	movl	outcnt(%rip), %ecx
	leal	1(%rcx), %edx
	movl	%edx, outcnt(%rip)
	movb	%ah, outbuf(%rcx)  # NOREX
	cmpl	$16384, outcnt(%rip)    # imm = 0x4000
	jne	.LBB6_14
.LBB6_13:                               # %if.then73
	callq	flush_outbuf
.LBB6_14:                               # %while.cond
                                        # =>This Inner Loop Header: Depth=1
	movl	-4(%rbp), %eax
	leal	-1(%rax), %ecx
	movl	%ecx, -4(%rbp)
	testl	%eax, %eax
	je	.LBB6_16
# BB#15:                                # %while.body
                                        #   in Loop: Header=BB6_14 Depth=1
	movq	-16(%rbp), %rax
	leaq	1(%rax), %rcx
	movq	%rcx, -16(%rbp)
	movzbl	(%rax), %eax
	movl	outcnt(%rip), %ecx
	leal	1(%rcx), %edx
	movl	%edx, outcnt(%rip)
	movb	%al, outbuf(%rcx)
	cmpl	$16384, outcnt(%rip)    # imm = 0x4000
	je	.LBB6_13
	jmp	.LBB6_14
.LBB6_16:                               # %while.end
	addq	$16, %rsp
	popq	%rbp
	retq
.Lfunc_end6:
	.size	copy_block, .Lfunc_end6-copy_block
	.cfi_endproc

	.globl	lm_init
	.p2align	4, 0x90
	.type	lm_init,@function
lm_init:                                # @lm_init
	.cfi_startproc
# BB#0:                                 # %entry
	pushq	%rbp
.Lcfi21:
	.cfi_def_cfa_offset 16
.Lcfi22:
	.cfi_offset %rbp, -16
	movq	%rsp, %rbp
.Lcfi23:
	.cfi_def_cfa_register %rbp
	subq	$32, %rsp
	movl	%edi, -8(%rbp)
	movq	%rsi, -24(%rbp)
	cmpl	$0, -8(%rbp)
	jle	.LBB7_2
# BB#1:                                 # %lor.lhs.false
	cmpl	$10, -8(%rbp)
	jl	.LBB7_3
.LBB7_2:                                # %if.then
	movl	$.L.str, %edi
	callq	error
.LBB7_3:                                # %if.end
	movl	-8(%rbp), %eax
	movl	%eax, compr_level(%rip)
	movl	$prev+65536, %edi
	xorl	%esi, %esi
	movl	$65536, %edx            # imm = 0x10000
	callq	memset
	movl	$4294967295, %eax       # imm = 0xFFFFFFFF
	movq	%rax, rsync_chunk_end(%rip)
	movq	$0, rsync_sum(%rip)
	movslq	-8(%rbp), %rax
	movzwl	configuration_table+2(,%rax,8), %eax
	movl	%eax, max_lazy_match(%rip)
	movslq	-8(%rbp), %rax
	movzwl	configuration_table(,%rax,8), %eax
	movl	%eax, good_match(%rip)
	movslq	-8(%rbp), %rax
	movzwl	configuration_table+4(,%rax,8), %eax
	movl	%eax, nice_match(%rip)
	movslq	-8(%rbp), %rax
	movzwl	configuration_table+6(,%rax,8), %eax
	movl	%eax, max_chain_length(%rip)
	cmpl	$1, -8(%rbp)
	jne	.LBB7_5
# BB#4:                                 # %if.then13
	movq	-24(%rbp), %rax
	movzwl	(%rax), %ecx
	orl	$4, %ecx
	jmp	.LBB7_7
.LBB7_5:                                # %if.else
	cmpl	$9, -8(%rbp)
	jne	.LBB7_8
# BB#6:                                 # %if.then18
	movq	-24(%rbp), %rax
	movzwl	(%rax), %ecx
	orl	$2, %ecx
.LBB7_7:                                # %if.end23
	movw	%cx, (%rax)
.LBB7_8:                                # %if.end23
	movl	$0, strstart(%rip)
	movq	$0, block_start(%rip)
	movl	$window, %edi
	movl	$65536, %esi            # imm = 0x10000
	callq	*read_buf(%rip)
	movl	%eax, lookahead(%rip)
	testl	%eax, %eax
	je	.LBB7_10
# BB#9:                                 # %lor.lhs.false26
	cmpl	$-1, lookahead(%rip)
	je	.LBB7_10
# BB#12:                                # %if.end30
	movl	$0, eofile(%rip)
	cmpl	$262, lookahead(%rip)   # imm = 0x106
	jb	.LBB7_15
	jmp	.LBB7_14
	.p2align	4, 0x90
.LBB7_17:                               # %while.body
	callq	fill_window
	cmpl	$262, lookahead(%rip)   # imm = 0x106
	jae	.LBB7_14
.LBB7_15:                               # %land.rhs
	cmpl	$0, eofile(%rip)
	sete	-13(%rbp)
	sete	-1(%rbp)
	cmpb	$1, -1(%rbp)
	je	.LBB7_17
	jmp	.LBB7_18
	.p2align	4, 0x90
.LBB7_14:                               # %while.cond.land.end_crit_edge
	movb	$0, -1(%rbp)
	cmpb	$1, -1(%rbp)
	je	.LBB7_17
.LBB7_18:                               # %while.end
	movl	$0, ins_h(%rip)
	movl	$0, -12(%rbp)
	cmpl	$1, -12(%rbp)
	ja	.LBB7_11
	.p2align	4, 0x90
.LBB7_20:                               # %for.inc
                                        # =>This Inner Loop Header: Depth=1
	movl	ins_h(%rip), %eax
	shll	$5, %eax
	movl	-12(%rbp), %ecx
	movzbl	window(%rcx), %ecx
	xorl	%eax, %ecx
	andl	$32767, %ecx            # imm = 0x7FFF
	movl	%ecx, ins_h(%rip)
	incl	-12(%rbp)
	cmpl	$1, -12(%rbp)
	jbe	.LBB7_20
	jmp	.LBB7_11
.LBB7_10:                               # %if.then29
	movl	$1, eofile(%rip)
	movl	$0, lookahead(%rip)
.LBB7_11:                               # %for.end
	addq	$32, %rsp
	popq	%rbp
	retq
.Lfunc_end7:
	.size	lm_init, .Lfunc_end7-lm_init
	.cfi_endproc

	.globl	error
	.p2align	4, 0x90
	.type	error,@function
error:                                  # @error
	.cfi_startproc
# BB#0:                                 # %entry
	pushq	%rbp
.Lcfi24:
	.cfi_def_cfa_offset 16
.Lcfi25:
	.cfi_offset %rbp, -16
	movq	%rsp, %rbp
.Lcfi26:
	.cfi_def_cfa_register %rbp
	subq	$16, %rsp
	movq	%rdi, %r8
	movq	%r8, -8(%rbp)
	movq	stderr(%rip), %rdi
	movq	progname(%rip), %rdx
	movl	$.L.str.73, %esi
	movl	$ifname, %ecx
	xorl	%eax, %eax
	callq	fprintf
	callq	abort_gzip
	addq	$16, %rsp
	popq	%rbp
	retq
.Lfunc_end8:
	.size	error, .Lfunc_end8-error
	.cfi_endproc

	.p2align	4, 0x90
	.type	fill_window,@function
fill_window:                            # @fill_window
	.cfi_startproc
# BB#0:                                 # %entry
	pushq	%rbp
.Lcfi27:
	.cfi_def_cfa_offset 16
.Lcfi28:
	.cfi_offset %rbp, -16
	movq	%rsp, %rbp
.Lcfi29:
	.cfi_def_cfa_register %rbp
	subq	$32, %rsp
	movl	window_size(%rip), %eax
	subl	lookahead(%rip), %eax
	subl	strstart(%rip), %eax
	movl	%eax, -8(%rbp)
	cmpl	$-1, %eax
	je	.LBB9_1
# BB#2:                                 # %if.else
	cmpl	$65274, strstart(%rip)  # imm = 0xFEFA
	jb	.LBB9_18
# BB#3:                                 # %if.then7
	movl	$window, %edi
	movl	$window+32768, %esi
	movl	$32768, %edx            # imm = 0x8000
	callq	memcpy
	addl	$-32768, match_start(%rip) # imm = 0x8000
	addl	$-32768, strstart(%rip) # imm = 0x8000
	movl	$4294967295, %eax       # imm = 0xFFFFFFFF
	cmpq	%rax, rsync_chunk_end(%rip)
	je	.LBB9_5
# BB#4:                                 # %if.then12
	addq	$-32768, rsync_chunk_end(%rip) # imm = 0x8000
.LBB9_5:                                # %if.end
	addq	$-32768, block_start(%rip) # imm = 0x8000
	movl	$0, -4(%rbp)
	movl	$-32768, %eax           # imm = 0x8000
	cmpl	$32767, -4(%rbp)        # imm = 0x7FFF
	jbe	.LBB9_7
	jmp	.LBB9_11
	.p2align	4, 0x90
.LBB9_10:                               # %for.inc
                                        #   in Loop: Header=BB9_7 Depth=1
	movzwl	-16(%rbp), %ecx
	movl	-4(%rbp), %edx
	movw	%cx, prev+65536(%rdx,%rdx)
	incl	-4(%rbp)
	cmpl	$32767, -4(%rbp)        # imm = 0x7FFF
	ja	.LBB9_11
.LBB9_7:                                # %for.body
                                        # =>This Inner Loop Header: Depth=1
	movl	-4(%rbp), %ecx
	movzwl	prev+65536(%rcx,%rcx), %ecx
	movl	%ecx, -12(%rbp)
	testw	%cx, %cx
	jns	.LBB9_9
# BB#8:                                 # %cond.true
                                        #   in Loop: Header=BB9_7 Depth=1
	movl	-12(%rbp), %ecx
	addl	%eax, %ecx
	movl	%ecx, -24(%rbp)
	movl	%ecx, -16(%rbp)
	jmp	.LBB9_10
	.p2align	4, 0x90
.LBB9_9:                                # %cond.false
                                        #   in Loop: Header=BB9_7 Depth=1
	movl	$0, -16(%rbp)
	jmp	.LBB9_10
.LBB9_1:                                # %if.then
	decl	-8(%rbp)
	cmpl	$0, eofile(%rip)
	jne	.LBB9_23
	jmp	.LBB9_19
.LBB9_11:                               # %for.end
	movl	$0, -4(%rbp)
	movl	$-32768, %eax           # imm = 0x8000
	cmpl	$32767, -4(%rbp)        # imm = 0x7FFF
	jbe	.LBB9_13
	jmp	.LBB9_17
	.p2align	4, 0x90
.LBB9_16:                               # %for.inc41
                                        #   in Loop: Header=BB9_13 Depth=1
	movzwl	-20(%rbp), %ecx
	movl	-4(%rbp), %edx
	movw	%cx, prev(%rdx,%rdx)
	incl	-4(%rbp)
	cmpl	$32767, -4(%rbp)        # imm = 0x7FFF
	ja	.LBB9_17
.LBB9_13:                               # %for.body27
                                        # =>This Inner Loop Header: Depth=1
	movl	-4(%rbp), %ecx
	movzwl	prev(%rcx,%rcx), %ecx
	movl	%ecx, -12(%rbp)
	testw	%cx, %cx
	jns	.LBB9_15
# BB#14:                                # %cond.true33
                                        #   in Loop: Header=BB9_13 Depth=1
	movl	-12(%rbp), %ecx
	addl	%eax, %ecx
	movl	%ecx, -28(%rbp)
	movl	%ecx, -20(%rbp)
	jmp	.LBB9_16
	.p2align	4, 0x90
.LBB9_15:                               # %cond.false35
                                        #   in Loop: Header=BB9_13 Depth=1
	movl	$0, -20(%rbp)
	jmp	.LBB9_16
.LBB9_17:                               # %for.end43
	addl	$32768, -8(%rbp)        # imm = 0x8000
.LBB9_18:                               # %if.end45
	cmpl	$0, eofile(%rip)
	jne	.LBB9_23
.LBB9_19:                               # %if.then46
	movl	strstart(%rip), %eax
	movl	lookahead(%rip), %ecx
	leaq	window(%rax,%rcx), %rdi
	movl	-8(%rbp), %esi
	callq	*read_buf(%rip)
	movl	%eax, -4(%rbp)
	testl	%eax, %eax
	je	.LBB9_21
# BB#20:                                # %lor.lhs.false
	cmpl	$-1, -4(%rbp)
	je	.LBB9_21
# BB#22:                                # %if.else54
	movl	-4(%rbp), %eax
	addl	%eax, lookahead(%rip)
	jmp	.LBB9_23
.LBB9_21:                               # %if.then53
	movl	$1, eofile(%rip)
.LBB9_23:                               # %if.end57
	addq	$32, %rsp
	popq	%rbp
	retq
.Lfunc_end9:
	.size	fill_window, .Lfunc_end9-fill_window
	.cfi_endproc

	.globl	longest_match
	.p2align	4, 0x90
	.type	longest_match,@function
longest_match:                          # @longest_match
	.cfi_startproc
# BB#0:                                 # %entry
	pushq	%rbp
.Lcfi30:
	.cfi_def_cfa_offset 16
.Lcfi31:
	.cfi_offset %rbp, -16
	movq	%rsp, %rbp
.Lcfi32:
	.cfi_def_cfa_register %rbp
	movl	%edi, -40(%rbp)
	movl	max_chain_length(%rip), %eax
	movl	%eax, -56(%rbp)
	movl	strstart(%rip), %eax
	leaq	window(%rax), %rax
	movq	%rax, -16(%rbp)
	movl	prev_length(%rip), %eax
	movl	%eax, -36(%rbp)
	cmpl	$32507, strstart(%rip)  # imm = 0x7EFB
	jb	.LBB10_2
# BB#1:                                 # %cond.true
	movl	$-32506, %eax           # imm = 0x8106
	addl	strstart(%rip), %eax
	movl	%eax, -72(%rbp)
	movl	%eax, -52(%rbp)
	jmp	.LBB10_3
.LBB10_2:                               # %cond.false
	movl	$0, -52(%rbp)
.LBB10_3:                               # %cond.end
	movl	-52(%rbp), %eax
	movl	%eax, -68(%rbp)
	movl	strstart(%rip), %eax
	leaq	window+258(%rax), %rax
	movq	%rax, -64(%rbp)
	movq	-16(%rbp), %rax
	movslq	-36(%rbp), %rcx
	movb	-1(%rax,%rcx), %al
	movb	%al, -19(%rbp)
	movq	-16(%rbp), %rax
	movslq	-36(%rbp), %rcx
	movb	(%rax,%rcx), %al
	movb	%al, -18(%rbp)
	movl	prev_length(%rip), %eax
	cmpl	good_match(%rip), %eax
	jb	.LBB10_5
# BB#4:                                 # %if.then
	shrl	$2, -56(%rbp)
.LBB10_5:                               # %if.end
	movq	$-258, %rax             # imm = 0xFEFE
	.p2align	4, 0x90
.LBB10_6:                               # %do.body
                                        # =>This Loop Header: Depth=1
                                        #     Child Loop BB10_11 Depth 2
	movl	-40(%rbp), %ecx
	leaq	window(%rcx), %rdx
	movq	%rdx, -32(%rbp)
	movslq	-36(%rbp), %rdx
	movzbl	window(%rcx,%rdx), %ecx
	movzbl	-18(%rbp), %edx
	cmpl	%edx, %ecx
	jne	.LBB10_32
# BB#7:                                 # %lor.lhs.false
                                        #   in Loop: Header=BB10_6 Depth=1
	movq	-32(%rbp), %rcx
	movslq	-36(%rbp), %rdx
	movzbl	-1(%rcx,%rdx), %ecx
	movzbl	-19(%rbp), %edx
	cmpl	%edx, %ecx
	jne	.LBB10_32
# BB#8:                                 # %lor.lhs.false22
                                        #   in Loop: Header=BB10_6 Depth=1
	movq	-32(%rbp), %rcx
	movzbl	(%rcx), %ecx
	movq	-16(%rbp), %rdx
	movzbl	(%rdx), %edx
	cmpl	%edx, %ecx
	jne	.LBB10_32
# BB#9:                                 # %lor.lhs.false27
                                        #   in Loop: Header=BB10_6 Depth=1
	movq	-32(%rbp), %rcx
	leaq	1(%rcx), %rdx
	movq	%rdx, -32(%rbp)
	movzbl	1(%rcx), %ecx
	movq	-16(%rbp), %rdx
	movzbl	1(%rdx), %edx
	cmpl	%edx, %ecx
	jne	.LBB10_32
# BB#10:                                # %if.end34
                                        #   in Loop: Header=BB10_6 Depth=1
	addq	$2, -16(%rbp)
	incq	-32(%rbp)
	.p2align	4, 0x90
.LBB10_11:                              # %do.cond
                                        #   Parent Loop BB10_6 Depth=1
                                        # =>  This Inner Loop Header: Depth=2
	movq	-16(%rbp), %rcx
	leaq	1(%rcx), %rdx
	movq	%rdx, -16(%rbp)
	movzbl	1(%rcx), %ecx
	movq	-32(%rbp), %rdx
	leaq	1(%rdx), %rsi
	movq	%rsi, -32(%rbp)
	movzbl	1(%rdx), %edx
	cmpl	%edx, %ecx
	jne	.LBB10_27
# BB#12:                                # %land.lhs.true
                                        #   in Loop: Header=BB10_11 Depth=2
	movq	-16(%rbp), %rcx
	leaq	1(%rcx), %rdx
	movq	%rdx, -16(%rbp)
	movzbl	1(%rcx), %ecx
	movq	-32(%rbp), %rdx
	leaq	1(%rdx), %rsi
	movq	%rsi, -32(%rbp)
	movzbl	1(%rdx), %edx
	cmpl	%edx, %ecx
	jne	.LBB10_27
# BB#13:                                # %land.lhs.true50
                                        #   in Loop: Header=BB10_11 Depth=2
	movq	-16(%rbp), %rcx
	leaq	1(%rcx), %rdx
	movq	%rdx, -16(%rbp)
	movzbl	1(%rcx), %ecx
	movq	-32(%rbp), %rdx
	leaq	1(%rdx), %rsi
	movq	%rsi, -32(%rbp)
	movzbl	1(%rdx), %edx
	cmpl	%edx, %ecx
	jne	.LBB10_27
# BB#14:                                # %land.lhs.true57
                                        #   in Loop: Header=BB10_11 Depth=2
	movq	-16(%rbp), %rcx
	leaq	1(%rcx), %rdx
	movq	%rdx, -16(%rbp)
	movzbl	1(%rcx), %ecx
	movq	-32(%rbp), %rdx
	leaq	1(%rdx), %rsi
	movq	%rsi, -32(%rbp)
	movzbl	1(%rdx), %edx
	cmpl	%edx, %ecx
	jne	.LBB10_27
# BB#15:                                # %land.lhs.true64
                                        #   in Loop: Header=BB10_11 Depth=2
	movq	-16(%rbp), %rcx
	leaq	1(%rcx), %rdx
	movq	%rdx, -16(%rbp)
	movzbl	1(%rcx), %ecx
	movq	-32(%rbp), %rdx
	leaq	1(%rdx), %rsi
	movq	%rsi, -32(%rbp)
	movzbl	1(%rdx), %edx
	cmpl	%edx, %ecx
	jne	.LBB10_27
# BB#16:                                # %land.lhs.true71
                                        #   in Loop: Header=BB10_11 Depth=2
	movq	-16(%rbp), %rcx
	leaq	1(%rcx), %rdx
	movq	%rdx, -16(%rbp)
	movzbl	1(%rcx), %ecx
	movq	-32(%rbp), %rdx
	leaq	1(%rdx), %rsi
	movq	%rsi, -32(%rbp)
	movzbl	1(%rdx), %edx
	cmpl	%edx, %ecx
	jne	.LBB10_27
# BB#17:                                # %land.lhs.true78
                                        #   in Loop: Header=BB10_11 Depth=2
	movq	-16(%rbp), %rcx
	leaq	1(%rcx), %rdx
	movq	%rdx, -16(%rbp)
	movzbl	1(%rcx), %ecx
	movq	-32(%rbp), %rdx
	leaq	1(%rdx), %rsi
	movq	%rsi, -32(%rbp)
	movzbl	1(%rdx), %edx
	cmpl	%edx, %ecx
	jne	.LBB10_27
# BB#18:                                # %land.lhs.true85
                                        #   in Loop: Header=BB10_11 Depth=2
	movq	-16(%rbp), %rcx
	leaq	1(%rcx), %rdx
	movq	%rdx, -16(%rbp)
	movzbl	1(%rcx), %ecx
	movq	-32(%rbp), %rdx
	leaq	1(%rdx), %rsi
	movq	%rsi, -32(%rbp)
	movzbl	1(%rdx), %edx
	cmpl	%edx, %ecx
	jne	.LBB10_27
# BB#19:                                # %land.rhs
                                        #   in Loop: Header=BB10_11 Depth=2
	movq	-16(%rbp), %rcx
	cmpq	-64(%rbp), %rcx
	setb	%cl
	movb	%cl, -45(%rbp)
	movb	%cl, -1(%rbp)
	jmp	.LBB10_28
	.p2align	4, 0x90
.LBB10_27:                              # %land.lhs.true85.land.end_crit_edge
                                        #   in Loop: Header=BB10_11 Depth=2
	movb	$0, -1(%rbp)
.LBB10_28:                              # %land.end
                                        #   in Loop: Header=BB10_11 Depth=2
	movzbl	-1(%rbp), %ecx
	testb	%cl, %cl
	jne	.LBB10_11
# BB#29:                                # %do.end
                                        #   in Loop: Header=BB10_6 Depth=1
	movl	-64(%rbp), %ecx
	subl	-16(%rbp), %ecx
	movl	$258, %edx              # imm = 0x102
	subl	%ecx, %edx
	movl	%edx, -44(%rbp)
	movq	-64(%rbp), %rcx
	addq	%rax, %rcx
	movq	%rcx, -16(%rbp)
	movl	-44(%rbp), %ecx
	cmpl	-36(%rbp), %ecx
	jle	.LBB10_32
# BB#30:                                # %if.then99
                                        #   in Loop: Header=BB10_6 Depth=1
	movl	-40(%rbp), %ecx
	movl	%ecx, match_start(%rip)
	movl	-44(%rbp), %ecx
	movl	%ecx, -36(%rbp)
	movl	-44(%rbp), %ecx
	cmpl	nice_match(%rip), %ecx
	jge	.LBB10_36
# BB#31:                                # %if.end103
                                        #   in Loop: Header=BB10_6 Depth=1
	movq	-16(%rbp), %rcx
	movslq	-36(%rbp), %rdx
	movb	-1(%rcx,%rdx), %cl
	movb	%cl, -19(%rbp)
	movq	-16(%rbp), %rcx
	movslq	-36(%rbp), %rdx
	movb	(%rcx,%rdx), %cl
	movb	%cl, -18(%rbp)
	.p2align	4, 0x90
.LBB10_32:                              # %do.cond110
                                        #   in Loop: Header=BB10_6 Depth=1
	movl	-40(%rbp), %ecx
	andl	$32767, %ecx            # imm = 0x7FFF
	movzwl	prev(%rcx,%rcx), %ecx
	movl	%ecx, -40(%rbp)
	cmpl	-68(%rbp), %ecx
	jbe	.LBB10_34
# BB#33:                                # %land.rhs116
                                        #   in Loop: Header=BB10_6 Depth=1
	decl	-56(%rbp)
	setne	-46(%rbp)
	setne	-17(%rbp)
	jmp	.LBB10_35
	.p2align	4, 0x90
.LBB10_34:                              # %do.cond110.land.end119_crit_edge
                                        #   in Loop: Header=BB10_6 Depth=1
	movb	$0, -17(%rbp)
.LBB10_35:                              # %land.end119
                                        #   in Loop: Header=BB10_6 Depth=1
	movb	-17(%rbp), %cl
	testb	%cl, %cl
	jne	.LBB10_6
.LBB10_36:                              # %do.end120
	movl	-36(%rbp), %eax
	popq	%rbp
	retq
.Lfunc_end10:
	.size	longest_match, .Lfunc_end10-longest_match
	.cfi_endproc

	.globl	deflate
	.p2align	4, 0x90
	.type	deflate,@function
deflate:                                # @deflate
	.cfi_startproc
# BB#0:                                 # %entry
	pushq	%rbp
.Lcfi33:
	.cfi_def_cfa_offset 16
.Lcfi34:
	.cfi_offset %rbp, -16
	movq	%rsp, %rbp
.Lcfi35:
	.cfi_def_cfa_register %rbp
	pushq	%r14
	pushq	%rbx
	subq	$112, %rsp
.Lcfi36:
	.cfi_offset %rbx, -32
.Lcfi37:
	.cfi_offset %r14, -24
	movl	$0, -32(%rbp)
	movl	$2, -28(%rbp)
	cmpl	$3, compr_level(%rip)
	jg	.LBB11_2
# BB#1:                                 # %if.then
	callq	deflate_fast
	jmp	.LBB11_56
.LBB11_2:                               # %if.end
	movq	$-262, %r14             # imm = 0xFEFA
	movl	$4294967295, %ebx       # imm = 0xFFFFFFFF
	jmp	.LBB11_3
	.p2align	4, 0x90
.LBB11_4:                               # %while.body
                                        #   in Loop: Header=BB11_3 Depth=1
	movl	ins_h(%rip), %eax
	shll	$5, %eax
	movl	strstart(%rip), %ecx
	addl	$2, %ecx
	movzbl	window(%rcx), %ecx
	xorl	%eax, %ecx
	andl	$32767, %ecx            # imm = 0x7FFF
	movl	%ecx, ins_h(%rip)
	movl	ins_h(%rip), %eax
	movzwl	prev+65536(%rax,%rax), %eax
	movl	%eax, -36(%rbp)
	movl	strstart(%rip), %ecx
	andl	$32767, %ecx            # imm = 0x7FFF
	movw	%ax, prev(%rcx,%rcx)
	movzwl	strstart(%rip), %eax
	movl	ins_h(%rip), %ecx
	movw	%ax, prev+65536(%rcx,%rcx)
	movl	-28(%rbp), %eax
	movl	%eax, prev_length(%rip)
	movl	match_start(%rip), %eax
	movl	%eax, -44(%rbp)
	movl	$2, -28(%rbp)
	cmpl	$0, -36(%rbp)
	je	.LBB11_13
# BB#5:                                 # %land.lhs.true
                                        #   in Loop: Header=BB11_3 Depth=1
	movl	prev_length(%rip), %eax
	cmpl	max_lazy_match(%rip), %eax
	jae	.LBB11_13
# BB#6:                                 # %land.lhs.true16
                                        #   in Loop: Header=BB11_3 Depth=1
	movl	strstart(%rip), %eax
	subl	-36(%rbp), %eax
	cmpl	$32506, %eax            # imm = 0x7EFA
	ja	.LBB11_13
# BB#7:                                 # %land.lhs.true20
                                        #   in Loop: Header=BB11_3 Depth=1
	movl	strstart(%rip), %eax
	movq	window_size(%rip), %rcx
	addq	%r14, %rcx
	cmpq	%rcx, %rax
	ja	.LBB11_13
# BB#8:                                 # %if.then25
                                        #   in Loop: Header=BB11_3 Depth=1
	movl	-36(%rbp), %edi
	callq	longest_match
	movl	%eax, -28(%rbp)
	cmpl	lookahead(%rip), %eax
	jbe	.LBB11_10
# BB#9:                                 # %if.then29
                                        #   in Loop: Header=BB11_3 Depth=1
	movl	lookahead(%rip), %eax
	movl	%eax, -28(%rbp)
.LBB11_10:                              # %if.end30
                                        #   in Loop: Header=BB11_3 Depth=1
	cmpl	$3, -28(%rbp)
	jne	.LBB11_13
# BB#11:                                # %land.lhs.true33
                                        #   in Loop: Header=BB11_3 Depth=1
	movl	strstart(%rip), %eax
	subl	match_start(%rip), %eax
	cmpl	$4097, %eax             # imm = 0x1001
	jb	.LBB11_13
# BB#12:                                # %if.then37
                                        #   in Loop: Header=BB11_3 Depth=1
	decl	-28(%rbp)
	.p2align	4, 0x90
.LBB11_13:                              # %if.end39
                                        #   in Loop: Header=BB11_3 Depth=1
	cmpl	$3, prev_length(%rip)
	jb	.LBB11_26
# BB#14:                                # %land.lhs.true42
                                        #   in Loop: Header=BB11_3 Depth=1
	movl	-28(%rbp), %eax
	cmpl	prev_length(%rip), %eax
	ja	.LBB11_26
# BB#15:                                # %do.body
                                        #   in Loop: Header=BB11_3 Depth=1
	movl	strstart(%rip), %edi
	decl	%edi
	subl	-44(%rbp), %edi
	movl	prev_length(%rip), %esi
	addl	$-3, %esi
	callq	ct_tally
	movl	%eax, -24(%rbp)
	movl	prev_length(%rip), %eax
	decl	%eax
	subl	%eax, lookahead(%rip)
	addl	$-2, prev_length(%rip)
	cmpl	$0, rsync(%rip)
	je	.LBB11_17
# BB#16:                                # %if.then53
                                        #   in Loop: Header=BB11_3 Depth=1
	movl	strstart(%rip), %edi
	movl	prev_length(%rip), %esi
	incl	%esi
	callq	rsync_roll
	.p2align	4, 0x90
.LBB11_17:                              # %do.cond
                                        #   Parent Loop BB11_3 Depth=1
                                        # =>  This Inner Loop Header: Depth=2
	movl	strstart(%rip), %eax
	leal	1(%rax), %ecx
	movl	%ecx, strstart(%rip)
	movl	ins_h(%rip), %ecx
	shll	$5, %ecx
	addl	$3, %eax
	movzbl	window(%rax), %eax
	xorl	%ecx, %eax
	andl	$32767, %eax            # imm = 0x7FFF
	movl	%eax, ins_h(%rip)
	movl	ins_h(%rip), %eax
	movzwl	prev+65536(%rax,%rax), %eax
	movl	%eax, -36(%rbp)
	movl	strstart(%rip), %ecx
	andl	$32767, %ecx            # imm = 0x7FFF
	movw	%ax, prev(%rcx,%rcx)
	movzwl	strstart(%rip), %eax
	movl	ins_h(%rip), %ecx
	movw	%ax, prev+65536(%rcx,%rcx)
	decl	prev_length(%rip)
	jne	.LBB11_17
# BB#18:                                # %do.end78
                                        #   in Loop: Header=BB11_3 Depth=1
	movl	$0, -32(%rbp)
	movl	$2, -28(%rbp)
	incl	strstart(%rip)
	cmpl	$0, rsync(%rip)
	je	.LBB11_21
# BB#19:                                # %land.lhs.true81
                                        #   in Loop: Header=BB11_3 Depth=1
	movl	strstart(%rip), %eax
	cmpq	rsync_chunk_end(%rip), %rax
	jbe	.LBB11_21
# BB#20:                                # %if.then85
                                        #   in Loop: Header=BB11_3 Depth=1
	movq	%rbx, rsync_chunk_end(%rip)
	movl	$2, -24(%rbp)
.LBB11_21:                              # %if.end86
                                        #   in Loop: Header=BB11_3 Depth=1
	cmpl	$0, -24(%rbp)
	je	.LBB11_45
# BB#22:                                # %if.then88
                                        #   in Loop: Header=BB11_3 Depth=1
	cmpq	$0, block_start(%rip)
	js	.LBB11_24
# BB#23:                                # %cond.true
                                        #   in Loop: Header=BB11_3 Depth=1
	movl	block_start(%rip), %eax
	leaq	window(%rax), %rax
	movq	%rax, -96(%rbp)
	movq	%rax, -56(%rbp)
	jmp	.LBB11_25
	.p2align	4, 0x90
.LBB11_26:                              # %if.else
                                        #   in Loop: Header=BB11_3 Depth=1
	cmpl	$0, -32(%rbp)
	je	.LBB11_35
# BB#27:                                # %if.then101
                                        #   in Loop: Header=BB11_3 Depth=1
	movl	strstart(%rip), %eax
	decl	%eax
	movzbl	window(%rax), %esi
	xorl	%edi, %edi
	callq	ct_tally
	movl	%eax, -24(%rbp)
	cmpl	$0, rsync(%rip)
	je	.LBB11_30
# BB#28:                                # %land.lhs.true108
                                        #   in Loop: Header=BB11_3 Depth=1
	movl	strstart(%rip), %eax
	cmpq	rsync_chunk_end(%rip), %rax
	jbe	.LBB11_30
# BB#29:                                # %if.then112
                                        #   in Loop: Header=BB11_3 Depth=1
	movq	%rbx, rsync_chunk_end(%rip)
	movl	$2, -24(%rbp)
.LBB11_30:                              # %if.end113
                                        #   in Loop: Header=BB11_3 Depth=1
	cmpl	$0, -24(%rbp)
	je	.LBB11_42
# BB#31:                                # %if.then115
                                        #   in Loop: Header=BB11_3 Depth=1
	cmpq	$0, block_start(%rip)
	js	.LBB11_33
# BB#32:                                # %cond.true118
                                        #   in Loop: Header=BB11_3 Depth=1
	movl	block_start(%rip), %eax
	leaq	window(%rax), %rax
	movq	%rax, -104(%rbp)
	movq	%rax, -64(%rbp)
	jmp	.LBB11_34
	.p2align	4, 0x90
.LBB11_35:                              # %if.else139
                                        #   in Loop: Header=BB11_3 Depth=1
	cmpl	$0, rsync(%rip)
	je	.LBB11_41
# BB#36:                                # %land.lhs.true141
                                        #   in Loop: Header=BB11_3 Depth=1
	movl	strstart(%rip), %eax
	cmpq	rsync_chunk_end(%rip), %rax
	jbe	.LBB11_41
# BB#37:                                # %if.then145
                                        #   in Loop: Header=BB11_3 Depth=1
	movq	%rbx, rsync_chunk_end(%rip)
	movl	$2, -24(%rbp)
	cmpq	$0, block_start(%rip)
	js	.LBB11_39
# BB#38:                                # %cond.true148
                                        #   in Loop: Header=BB11_3 Depth=1
	movl	block_start(%rip), %eax
	leaq	window(%rax), %rax
	movq	%rax, -112(%rbp)
	movq	%rax, -72(%rbp)
	jmp	.LBB11_40
.LBB11_33:                              # %cond.false122
                                        #   in Loop: Header=BB11_3 Depth=1
	movq	$0, -64(%rbp)
.LBB11_34:                              # %cond.end123
                                        #   in Loop: Header=BB11_3 Depth=1
	movq	-64(%rbp), %rdi
	movl	strstart(%rip), %esi
	subq	block_start(%rip), %rsi
	movl	-24(%rbp), %edx
	decl	%edx
	xorl	%ecx, %ecx
	callq	flush_block
	movl	strstart(%rip), %eax
	movq	%rax, block_start(%rip)
	cmpl	$0, rsync(%rip)
	jne	.LBB11_43
	jmp	.LBB11_44
.LBB11_24:                              # %cond.false
                                        #   in Loop: Header=BB11_3 Depth=1
	movq	$0, -56(%rbp)
.LBB11_25:                              # %cond.end
                                        #   in Loop: Header=BB11_3 Depth=1
	movq	-56(%rbp), %rdi
	movl	strstart(%rip), %esi
	subq	block_start(%rip), %rsi
	movl	-24(%rbp), %edx
	decl	%edx
	xorl	%ecx, %ecx
	callq	flush_block
	movl	strstart(%rip), %eax
	movq	%rax, block_start(%rip)
	cmpl	$262, lookahead(%rip)   # imm = 0x106
	jb	.LBB11_47
	jmp	.LBB11_46
.LBB11_39:                              # %cond.false152
                                        #   in Loop: Header=BB11_3 Depth=1
	movq	$0, -72(%rbp)
.LBB11_40:                              # %cond.end153
                                        #   in Loop: Header=BB11_3 Depth=1
	movq	-72(%rbp), %rdi
	movl	strstart(%rip), %esi
	subq	block_start(%rip), %rsi
	movl	-24(%rbp), %edx
	decl	%edx
	xorl	%ecx, %ecx
	callq	flush_block
	movl	strstart(%rip), %eax
	movq	%rax, block_start(%rip)
.LBB11_41:                              # %do.body161
                                        #   in Loop: Header=BB11_3 Depth=1
	movl	$1, -32(%rbp)
.LBB11_42:                              # %do.body161
                                        #   in Loop: Header=BB11_3 Depth=1
	cmpl	$0, rsync(%rip)
	je	.LBB11_44
.LBB11_43:                              # %if.then163
                                        #   in Loop: Header=BB11_3 Depth=1
	movl	strstart(%rip), %edi
	movl	$1, %esi
	callq	rsync_roll
.LBB11_44:                              # %do.end166
                                        #   in Loop: Header=BB11_3 Depth=1
	incl	strstart(%rip)
	decl	lookahead(%rip)
	cmpl	$262, lookahead(%rip)   # imm = 0x106
	jb	.LBB11_47
	jmp	.LBB11_46
	.p2align	4, 0x90
.LBB11_49:                              # %while.body175
                                        #   in Loop: Header=BB11_3 Depth=1
	callq	fill_window
.LBB11_45:                              # %while.cond171
                                        #   in Loop: Header=BB11_3 Depth=1
	cmpl	$262, lookahead(%rip)   # imm = 0x106
	jae	.LBB11_46
.LBB11_47:                              # %land.rhs
                                        #   in Loop: Header=BB11_3 Depth=1
	cmpl	$0, eofile(%rip)
	sete	-37(%rbp)
	sete	-17(%rbp)
	cmpb	$1, -17(%rbp)
	je	.LBB11_49
	jmp	.LBB11_3
	.p2align	4, 0x90
.LBB11_46:                              # %while.cond171.land.end_crit_edge
                                        #   in Loop: Header=BB11_3 Depth=1
	movb	$0, -17(%rbp)
	cmpb	$1, -17(%rbp)
	je	.LBB11_49
.LBB11_3:                               # %while.cond
                                        # =>This Loop Header: Depth=1
                                        #     Child Loop BB11_17 Depth 2
	cmpl	$0, lookahead(%rip)
	jne	.LBB11_4
# BB#50:                                # %while.end176
	cmpl	$0, -32(%rbp)
	je	.LBB11_52
# BB#51:                                # %if.then178
	movl	strstart(%rip), %eax
	decl	%eax
	movzbl	window(%rax), %esi
	xorl	%edi, %edi
	callq	ct_tally
.LBB11_52:                              # %if.end184
	cmpq	$0, block_start(%rip)
	js	.LBB11_54
# BB#53:                                # %cond.true187
	movl	block_start(%rip), %eax
	leaq	window(%rax), %rax
	movq	%rax, -120(%rbp)
	movq	%rax, -80(%rbp)
	jmp	.LBB11_55
.LBB11_54:                              # %cond.false191
	movq	$0, -80(%rbp)
.LBB11_55:                              # %cond.end192
	movq	-80(%rbp), %rdi
	movl	strstart(%rip), %esi
	subq	block_start(%rip), %rsi
	movl	-24(%rbp), %edx
	decl	%edx
	movl	$1, %ecx
	callq	flush_block
.LBB11_56:                              # %return
	movq	%rax, -88(%rbp)
	movq	-88(%rbp), %rax
	addq	$112, %rsp
	popq	%rbx
	popq	%r14
	popq	%rbp
	retq
.Lfunc_end11:
	.size	deflate, .Lfunc_end11-deflate
	.cfi_endproc

	.p2align	4, 0x90
	.type	deflate_fast,@function
deflate_fast:                           # @deflate_fast
	.cfi_startproc
# BB#0:                                 # %entry
	pushq	%rbp
.Lcfi38:
	.cfi_def_cfa_offset 16
.Lcfi39:
	.cfi_offset %rbp, -16
	movq	%rsp, %rbp
.Lcfi40:
	.cfi_def_cfa_register %rbp
	pushq	%r14
	pushq	%rbx
	subq	$64, %rsp
.Lcfi41:
	.cfi_offset %rbx, -32
.Lcfi42:
	.cfi_offset %r14, -24
	movl	$0, -20(%rbp)
	movl	$2, prev_length(%rip)
	movq	$-262, %r14             # imm = 0xFEFA
	movl	$4294967295, %ebx       # imm = 0xFFFFFFFF
	jmp	.LBB12_1
	.p2align	4, 0x90
.LBB12_2:                               # %while.body
                                        #   in Loop: Header=BB12_1 Depth=1
	movl	ins_h(%rip), %eax
	shll	$5, %eax
	movl	strstart(%rip), %ecx
	addl	$2, %ecx
	movzbl	window(%rcx), %ecx
	xorl	%eax, %ecx
	andl	$32767, %ecx            # imm = 0x7FFF
	movl	%ecx, ins_h(%rip)
	movl	ins_h(%rip), %eax
	movzwl	prev+65536(%rax,%rax), %eax
	movl	%eax, -32(%rbp)
	movl	strstart(%rip), %ecx
	andl	$32767, %ecx            # imm = 0x7FFF
	movw	%ax, prev(%rcx,%rcx)
	movzwl	strstart(%rip), %eax
	movl	ins_h(%rip), %ecx
	movw	%ax, prev+65536(%rcx,%rcx)
	cmpl	$0, -32(%rbp)
	je	.LBB12_7
# BB#3:                                 # %land.lhs.true
                                        #   in Loop: Header=BB12_1 Depth=1
	movl	strstart(%rip), %eax
	subl	-32(%rbp), %eax
	cmpl	$32506, %eax            # imm = 0x7EFA
	ja	.LBB12_7
# BB#4:                                 # %land.lhs.true16
                                        #   in Loop: Header=BB12_1 Depth=1
	movl	strstart(%rip), %eax
	movq	window_size(%rip), %rcx
	addq	%r14, %rcx
	cmpq	%rcx, %rax
	ja	.LBB12_7
# BB#5:                                 # %if.then
                                        #   in Loop: Header=BB12_1 Depth=1
	movl	-32(%rbp), %edi
	callq	longest_match
	movl	%eax, -20(%rbp)
	cmpl	lookahead(%rip), %eax
	jbe	.LBB12_7
# BB#6:                                 # %if.then23
                                        #   in Loop: Header=BB12_1 Depth=1
	movl	lookahead(%rip), %eax
	movl	%eax, -20(%rbp)
	.p2align	4, 0x90
.LBB12_7:                               # %if.end24
                                        #   in Loop: Header=BB12_1 Depth=1
	cmpl	$3, -20(%rbp)
	jb	.LBB12_14
# BB#8:                                 # %do.body
                                        #   in Loop: Header=BB12_1 Depth=1
	movl	strstart(%rip), %edi
	subl	match_start(%rip), %edi
	movl	-20(%rbp), %esi
	addl	$-3, %esi
	callq	ct_tally
	movl	%eax, -28(%rbp)
	movl	-20(%rbp), %eax
	subl	%eax, lookahead(%rip)
	cmpl	$0, rsync(%rip)
	je	.LBB12_10
# BB#9:                                 # %if.then32
                                        #   in Loop: Header=BB12_1 Depth=1
	movl	strstart(%rip), %edi
	movl	-20(%rbp), %esi
	callq	rsync_roll
.LBB12_10:                              # %do.end
                                        #   in Loop: Header=BB12_1 Depth=1
	movl	-20(%rbp), %eax
	cmpl	max_lazy_match(%rip), %eax
	ja	.LBB12_13
# BB#11:                                # %if.then36
                                        #   in Loop: Header=BB12_1 Depth=1
	decl	-20(%rbp)
	.p2align	4, 0x90
.LBB12_12:                              # %do.cond
                                        #   Parent Loop BB12_1 Depth=1
                                        # =>  This Inner Loop Header: Depth=2
	movl	strstart(%rip), %eax
	leal	1(%rax), %ecx
	movl	%ecx, strstart(%rip)
	movl	ins_h(%rip), %ecx
	shll	$5, %ecx
	addl	$3, %eax
	movzbl	window(%rax), %eax
	xorl	%ecx, %eax
	andl	$32767, %eax            # imm = 0x7FFF
	movl	%eax, ins_h(%rip)
	movl	ins_h(%rip), %eax
	movzwl	prev+65536(%rax,%rax), %eax
	movl	%eax, -32(%rbp)
	movl	strstart(%rip), %ecx
	andl	$32767, %ecx            # imm = 0x7FFF
	movw	%ax, prev(%rcx,%rcx)
	movzwl	strstart(%rip), %eax
	movl	ins_h(%rip), %ecx
	movw	%ax, prev+65536(%rcx,%rcx)
	decl	-20(%rbp)
	jne	.LBB12_12
	jmp	.LBB12_17
	.p2align	4, 0x90
.LBB12_14:                              # %do.body78
                                        #   in Loop: Header=BB12_1 Depth=1
	movl	strstart(%rip), %eax
	movzbl	window(%rax), %esi
	xorl	%edi, %edi
	callq	ct_tally
	movl	%eax, -28(%rbp)
	cmpl	$0, rsync(%rip)
	je	.LBB12_16
# BB#15:                                # %if.then80
                                        #   in Loop: Header=BB12_1 Depth=1
	movl	strstart(%rip), %edi
	movl	$1, %esi
	callq	rsync_roll
.LBB12_16:                              # %do.end83
                                        #   in Loop: Header=BB12_1 Depth=1
	decl	lookahead(%rip)
.LBB12_17:                              # %if.end86
                                        #   in Loop: Header=BB12_1 Depth=1
	incl	strstart(%rip)
	cmpl	$0, rsync(%rip)
	jne	.LBB12_19
	jmp	.LBB12_21
	.p2align	4, 0x90
.LBB12_13:                              # %if.else
                                        #   in Loop: Header=BB12_1 Depth=1
	movl	-20(%rbp), %eax
	addl	%eax, strstart(%rip)
	movl	$0, -20(%rbp)
	movl	strstart(%rip), %eax
	movzbl	window(%rax), %eax
	movl	%eax, ins_h(%rip)
	shll	$5, %eax
	movl	strstart(%rip), %ecx
	incl	%ecx
	movzbl	window(%rcx), %ecx
	xorl	%eax, %ecx
	movl	%ecx, ins_h(%rip)
	cmpl	$0, rsync(%rip)
	je	.LBB12_21
.LBB12_19:                              # %land.lhs.true88
                                        #   in Loop: Header=BB12_1 Depth=1
	movl	strstart(%rip), %eax
	cmpq	rsync_chunk_end(%rip), %rax
	jbe	.LBB12_21
# BB#20:                                # %if.then92
                                        #   in Loop: Header=BB12_1 Depth=1
	movq	%rbx, rsync_chunk_end(%rip)
	movl	$2, -28(%rbp)
.LBB12_21:                              # %if.end93
                                        #   in Loop: Header=BB12_1 Depth=1
	cmpl	$0, -28(%rbp)
	je	.LBB12_26
# BB#22:                                # %if.then95
                                        #   in Loop: Header=BB12_1 Depth=1
	cmpq	$0, block_start(%rip)
	js	.LBB12_24
# BB#23:                                # %cond.true
                                        #   in Loop: Header=BB12_1 Depth=1
	movl	block_start(%rip), %eax
	leaq	window(%rax), %rax
	movq	%rax, -64(%rbp)
	movq	%rax, -48(%rbp)
	jmp	.LBB12_25
	.p2align	4, 0x90
.LBB12_24:                              # %cond.false
                                        #   in Loop: Header=BB12_1 Depth=1
	movq	$0, -48(%rbp)
.LBB12_25:                              # %cond.end
                                        #   in Loop: Header=BB12_1 Depth=1
	movq	-48(%rbp), %rdi
	movl	strstart(%rip), %esi
	subq	block_start(%rip), %rsi
	movl	-28(%rbp), %edx
	decl	%edx
	xorl	%ecx, %ecx
	callq	flush_block
	movl	strstart(%rip), %eax
	movq	%rax, block_start(%rip)
	cmpl	$262, lookahead(%rip)   # imm = 0x106
	jb	.LBB12_28
	jmp	.LBB12_27
	.p2align	4, 0x90
.LBB12_30:                              # %while.body111
                                        #   in Loop: Header=BB12_1 Depth=1
	callq	fill_window
.LBB12_26:                              # %while.cond107
                                        #   in Loop: Header=BB12_1 Depth=1
	cmpl	$262, lookahead(%rip)   # imm = 0x106
	jae	.LBB12_27
.LBB12_28:                              # %land.rhs
                                        #   in Loop: Header=BB12_1 Depth=1
	cmpl	$0, eofile(%rip)
	sete	-33(%rbp)
	sete	-21(%rbp)
	cmpb	$1, -21(%rbp)
	je	.LBB12_30
	jmp	.LBB12_1
	.p2align	4, 0x90
.LBB12_27:                              # %while.cond107.land.end_crit_edge
                                        #   in Loop: Header=BB12_1 Depth=1
	movb	$0, -21(%rbp)
	cmpb	$1, -21(%rbp)
	je	.LBB12_30
.LBB12_1:                               # %while.cond
                                        # =>This Loop Header: Depth=1
                                        #     Child Loop BB12_12 Depth 2
	cmpl	$0, lookahead(%rip)
	jne	.LBB12_2
# BB#31:                                # %while.end112
	cmpq	$0, block_start(%rip)
	js	.LBB12_33
# BB#32:                                # %cond.true115
	movl	block_start(%rip), %eax
	leaq	window(%rax), %rax
	movq	%rax, -72(%rbp)
	movq	%rax, -56(%rbp)
	jmp	.LBB12_34
.LBB12_33:                              # %cond.false119
	movq	$0, -56(%rbp)
.LBB12_34:                              # %cond.end120
	movq	-56(%rbp), %rdi
	movl	strstart(%rip), %esi
	subq	block_start(%rip), %rsi
	movl	-28(%rbp), %edx
	decl	%edx
	movl	$1, %ecx
	callq	flush_block
	addq	$64, %rsp
	popq	%rbx
	popq	%r14
	popq	%rbp
	retq
.Lfunc_end12:
	.size	deflate_fast, .Lfunc_end12-deflate_fast
	.cfi_endproc

	.globl	ct_tally
	.p2align	4, 0x90
	.type	ct_tally,@function
ct_tally:                               # @ct_tally
	.cfi_startproc
# BB#0:                                 # %entry
	pushq	%rbp
.Lcfi43:
	.cfi_def_cfa_offset 16
.Lcfi44:
	.cfi_offset %rbp, -16
	movq	%rsp, %rbp
.Lcfi45:
	.cfi_def_cfa_register %rbp
	movl	%edi, -8(%rbp)
	movl	%esi, -16(%rbp)
	movb	-16(%rbp), %al
	movl	last_lit(%rip), %ecx
	leal	1(%rcx), %edx
	movl	%edx, last_lit(%rip)
	movb	%al, inbuf(%rcx)
	cmpl	$0, -8(%rbp)
	je	.LBB13_1
# BB#2:                                 # %if.else
	decl	-8(%rbp)
	movslq	-16(%rbp), %rax
	movzbl	length_code(%rax), %eax
	incw	dyn_ltree+1028(,%rax,4)
	cmpl	$255, -8(%rbp)
	jg	.LBB13_4
# BB#3:                                 # %cond.true
	movslq	-8(%rbp), %rax
	movzbl	dist_code(%rax), %eax
	movl	%eax, -52(%rbp)
	jmp	.LBB13_5
.LBB13_1:                               # %if.then
	movslq	-16(%rbp), %rax
	incw	dyn_ltree(,%rax,4)
	jmp	.LBB13_6
.LBB13_4:                               # %cond.false
	movl	-8(%rbp), %eax
	sarl	$7, %eax
	cltq
	movzbl	dist_code+256(%rax), %eax
	movl	%eax, -56(%rbp)
.LBB13_5:                               # %cond.end
	movl	%eax, -24(%rbp)
	movslq	-24(%rbp), %rax
	incw	dyn_dtree(,%rax,4)
	movzwl	-8(%rbp), %eax
	movl	last_dist(%rip), %ecx
	leal	1(%rcx), %edx
	movl	%edx, last_dist(%rip)
	movw	%ax, d_buf(%rcx,%rcx)
	movzbl	flag_bit(%rip), %eax
	movzbl	flags(%rip), %ecx
	orl	%eax, %ecx
	movb	%cl, flags(%rip)
.LBB13_6:                               # %if.end
	shlb	flag_bit(%rip)
	testb	$7, last_lit(%rip)
	jne	.LBB13_8
# BB#7:                                 # %if.then39
	movb	flags(%rip), %al
	movl	last_flags(%rip), %ecx
	leal	1(%rcx), %edx
	movl	%edx, last_flags(%rip)
	movb	%al, flag_buf(%rcx)
	movb	$0, flags(%rip)
	movb	$1, flag_bit(%rip)
.LBB13_8:                               # %if.end43
	cmpl	$3, level(%rip)
	jl	.LBB13_16
# BB#9:                                 # %land.lhs.true
	movzwl	last_lit(%rip), %eax
	testw	$4095, %ax              # imm = 0xFFF
	jne	.LBB13_16
# BB#10:                                # %if.then49
	movl	last_lit(%rip), %eax
	shlq	$3, %rax
	movq	%rax, -40(%rbp)
	movl	strstart(%rip), %eax
	subq	block_start(%rip), %rax
	movq	%rax, -48(%rbp)
	movl	$0, -12(%rbp)
	cmpl	$29, -12(%rbp)
	jg	.LBB13_13
	.p2align	4, 0x90
.LBB13_12:                              # %for.inc
                                        # =>This Inner Loop Header: Depth=1
	movslq	-12(%rbp), %rax
	movzwl	dyn_dtree(,%rax,4), %ecx
	movslq	extra_dbits(,%rax,4), %rax
	addq	$5, %rax
	imulq	%rcx, %rax
	addq	%rax, -40(%rbp)
	incl	-12(%rbp)
	cmpl	$29, -12(%rbp)
	jle	.LBB13_12
.LBB13_13:                              # %for.end
	shrq	$3, -40(%rbp)
	movl	last_lit(%rip), %eax
	shrl	%eax
	cmpl	%eax, last_dist(%rip)
	jae	.LBB13_16
# BB#14:                                # %land.lhs.true69
	movq	-48(%rbp), %rax
	shrq	%rax
	cmpq	%rax, -40(%rbp)
	jae	.LBB13_16
# BB#15:                                # %if.then73
	movl	$1, -28(%rbp)
	jmp	.LBB13_20
.LBB13_16:                              # %if.end75
	cmpl	$32767, last_lit(%rip)  # imm = 0x7FFF
	jne	.LBB13_18
# BB#17:                                # %if.end75.lor.end_crit_edge
	movb	$1, -1(%rbp)
	jmp	.LBB13_19
.LBB13_18:                              # %lor.rhs
	cmpl	$32768, last_dist(%rip) # imm = 0x8000
	sete	-17(%rbp)
	sete	-1(%rbp)
.LBB13_19:                              # %lor.end
	movzbl	-1(%rbp), %eax
	movl	%eax, -28(%rbp)
.LBB13_20:                              # %return
	movl	-28(%rbp), %eax
	popq	%rbp
	retq
.Lfunc_end13:
	.size	ct_tally, .Lfunc_end13-ct_tally
	.cfi_endproc

	.p2align	4, 0x90
	.type	rsync_roll,@function
rsync_roll:                             # @rsync_roll
	.cfi_startproc
# BB#0:                                 # %entry
	pushq	%rbp
.Lcfi46:
	.cfi_def_cfa_offset 16
.Lcfi47:
	.cfi_offset %rbp, -16
	movq	%rsp, %rbp
.Lcfi48:
	.cfi_def_cfa_register %rbp
	movl	%edi, -8(%rbp)
	movl	%esi, -12(%rbp)
	cmpl	$4095, -8(%rbp)         # imm = 0xFFF
	ja	.LBB14_6
# BB#1:                                 # %if.then
	movl	-8(%rbp), %eax
	movl	%eax, -4(%rbp)
	cmpl	$4095, -4(%rbp)         # imm = 0xFFF
	jbe	.LBB14_3
	jmp	.LBB14_5
	.p2align	4, 0x90
.LBB14_4:                               # %for.inc
                                        #   in Loop: Header=BB14_3 Depth=1
	movl	-4(%rbp), %eax
	movzbl	window(%rax), %eax
	addq	%rax, rsync_sum(%rip)
	incl	-4(%rbp)
	cmpl	$4095, -4(%rbp)         # imm = 0xFFF
	ja	.LBB14_5
.LBB14_3:                               # %for.body
                                        # =>This Inner Loop Header: Depth=1
	movl	-8(%rbp), %eax
	addl	-12(%rbp), %eax
	cmpl	%eax, -4(%rbp)
	jne	.LBB14_4
	jmp	.LBB14_12
.LBB14_5:                               # %for.end
	movl	$4096, %eax             # imm = 0x1000
	subl	-8(%rbp), %eax
	subl	%eax, -12(%rbp)
	movl	$4096, -8(%rbp)         # imm = 0x1000
.LBB14_6:                               # %if.end6
	movl	-8(%rbp), %eax
	movl	%eax, -4(%rbp)
	movl	$-4096, %eax            # imm = 0xF000
	movl	$4294967295, %ecx       # imm = 0xFFFFFFFF
	jmp	.LBB14_7
	.p2align	4, 0x90
.LBB14_11:                              # %for.inc28
                                        #   in Loop: Header=BB14_7 Depth=1
	incl	-4(%rbp)
.LBB14_7:                               # %for.cond7
                                        # =>This Inner Loop Header: Depth=1
	movl	-8(%rbp), %edx
	addl	-12(%rbp), %edx
	cmpl	%edx, -4(%rbp)
	jae	.LBB14_12
# BB#8:                                 # %for.body11
                                        #   in Loop: Header=BB14_7 Depth=1
	movl	-4(%rbp), %edx
	movzbl	window(%rdx), %edx
	addq	rsync_sum(%rip), %rdx
	movq	%rdx, rsync_sum(%rip)
	movl	-4(%rbp), %esi
	addl	%eax, %esi
	movzbl	window(%rsi), %esi
	subq	%rsi, %rdx
	movq	%rdx, rsync_sum(%rip)
	cmpq	%rcx, rsync_chunk_end(%rip)
	jne	.LBB14_11
# BB#9:                                 # %land.lhs.true
                                        #   in Loop: Header=BB14_7 Depth=1
	movzwl	rsync_sum(%rip), %edx
	testw	$4095, %dx              # imm = 0xFFF
	jne	.LBB14_11
# BB#10:                                # %if.then25
                                        #   in Loop: Header=BB14_7 Depth=1
	movl	-4(%rbp), %edx
	movq	%rdx, rsync_chunk_end(%rip)
	jmp	.LBB14_11
.LBB14_12:                              # %for.end30
	popq	%rbp
	retq
.Lfunc_end14:
	.size	rsync_roll, .Lfunc_end14-rsync_roll
	.cfi_endproc

	.globl	flush_block
	.p2align	4, 0x90
	.type	flush_block,@function
flush_block:                            # @flush_block
	.cfi_startproc
# BB#0:                                 # %entry
	pushq	%rbp
.Lcfi49:
	.cfi_def_cfa_offset 16
.Lcfi50:
	.cfi_offset %rbp, -16
	movq	%rsp, %rbp
.Lcfi51:
	.cfi_def_cfa_register %rbp
	subq	$48, %rsp
	movq	%rdi, -40(%rbp)
	movq	%rsi, -24(%rbp)
	movl	%edx, -48(%rbp)
	movl	%ecx, -4(%rbp)
	movb	flags(%rip), %al
	movl	last_flags(%rip), %ecx
	movb	%al, flag_buf(%rcx)
	movq	file_type(%rip), %rax
	movzwl	(%rax), %eax
	cmpl	$65535, %eax            # imm = 0xFFFF
	jne	.LBB15_2
# BB#1:                                 # %if.then
	callq	set_file_type
.LBB15_2:                               # %if.end
	movl	$l_desc, %edi
	callq	build_tree_1
	movl	$d_desc, %edi
	callq	build_tree_1
	callq	build_bl_tree
	movl	%eax, -44(%rbp)
	movq	opt_len(%rip), %rax
	addq	$10, %rax
	shrq	$3, %rax
	movq	%rax, -16(%rbp)
	movq	static_len(%rip), %rax
	addq	$10, %rax
	shrq	$3, %rax
	movq	%rax, -32(%rbp)
	movq	-24(%rbp), %rax
	addq	%rax, input_len(%rip)
	movq	-32(%rbp), %rax
	cmpq	-16(%rbp), %rax
	ja	.LBB15_4
# BB#3:                                 # %if.then9
	movq	-32(%rbp), %rax
	movq	%rax, -16(%rbp)
.LBB15_4:                               # %if.end10
	movq	-24(%rbp), %rax
	cmpq	-16(%rbp), %rax
	ja	.LBB15_7
# BB#5:                                 # %land.lhs.true
	cmpl	$0, -4(%rbp)
	je	.LBB15_7
# BB#6:                                 # %land.lhs.true13
	cmpq	$0, compressed_len(%rip)
.LBB15_7:                               # %if.else
	movq	-24(%rbp), %rax
	addq	$4, %rax
	cmpq	-16(%rbp), %rax
	ja	.LBB15_10
# BB#8:                                 # %land.lhs.true26
	cmpq	$0, -40(%rbp)
	je	.LBB15_10
# BB#9:                                 # %if.then29
	movl	-4(%rbp), %edi
	movl	$3, %esi
	callq	send_bits
	movq	compressed_len(%rip), %rax
	addq	$10, %rax
	andq	$-8, %rax
	movq	%rax, compressed_len(%rip)
	movq	-24(%rbp), %rcx
	leaq	32(%rax,%rcx,8), %rax
	movq	%rax, compressed_len(%rip)
	movq	-40(%rbp), %rdi
	movl	-24(%rbp), %esi
	movl	$1, %edx
	callq	copy_block
	jmp	.LBB15_14
.LBB15_10:                              # %if.else37
	movq	-32(%rbp), %rax
	cmpq	-16(%rbp), %rax
	jne	.LBB15_12
# BB#11:                                # %if.then40
	movl	-4(%rbp), %edi
	addl	$2, %edi
	movl	$3, %esi
	callq	send_bits
	movl	$static_ltree, %edi
	movl	$static_dtree, %esi
	callq	compress_block
	movq	static_len(%rip), %rax
	jmp	.LBB15_13
.LBB15_12:                              # %if.else44
	movl	-4(%rbp), %edi
	addl	$4, %edi
	movl	$3, %esi
	callq	send_bits
	movl	l_desc+36(%rip), %edi
	incl	%edi
	movl	d_desc+36(%rip), %esi
	incl	%esi
	movl	-44(%rbp), %edx
	incl	%edx
	callq	send_all_trees
	movl	$dyn_ltree, %edi
	movl	$dyn_dtree, %esi
	callq	compress_block
	movq	opt_len(%rip), %rax
.LBB15_13:                              # %if.end53
	movq	compressed_len(%rip), %rcx
	leaq	3(%rcx,%rax), %rax
	movq	%rax, compressed_len(%rip)
.LBB15_14:                              # %if.end53
	callq	init_block
	cmpl	$0, -4(%rbp)
	je	.LBB15_16
# BB#15:                                # %if.then55
	callq	bi_windup
	addq	$7, compressed_len(%rip)
	jmp	.LBB15_19
.LBB15_16:                              # %if.else57
	cmpl	$0, -48(%rbp)
	je	.LBB15_19
# BB#17:                                # %land.lhs.true59
	movq	compressed_len(%rip), %rax
	movq	%rax, %rcx
	sarq	$63, %rcx
	shrq	$61, %rcx
	addq	%rax, %rcx
	andq	$-8, %rcx
	cmpq	%rcx, %rax
	je	.LBB15_19
# BB#18:                                # %if.then62
	movl	-4(%rbp), %edi
	movl	$3, %esi
	callq	send_bits
	movq	compressed_len(%rip), %rax
	addq	$10, %rax
	andq	$-8, %rax
	movq	%rax, compressed_len(%rip)
	movq	-40(%rbp), %rdi
	xorl	%esi, %esi
	movl	$1, %edx
	callq	copy_block
.LBB15_19:                              # %if.end68
	movq	compressed_len(%rip), %rax
	sarq	$3, %rax
	addq	$48, %rsp
	popq	%rbp
	retq
.Lfunc_end15:
	.size	flush_block, .Lfunc_end15-flush_block
	.cfi_endproc

	.globl	_getopt_internal
	.p2align	4, 0x90
	.type	_getopt_internal,@function
_getopt_internal:                       # @_getopt_internal
	.cfi_startproc
# BB#0:                                 # %entry
	pushq	%rbp
.Lcfi52:
	.cfi_def_cfa_offset 16
.Lcfi53:
	.cfi_offset %rbp, -16
	movq	%rsp, %rbp
.Lcfi54:
	.cfi_def_cfa_register %rbp
	pushq	%rbx
	subq	$168, %rsp
.Lcfi55:
	.cfi_offset %rbx, -24
	movl	%edi, -32(%rbp)
	movq	%rsi, -24(%rbp)
	movq	%rdx, -72(%rbp)
	movq	%rcx, -168(%rbp)
	movq	%r8, -160(%rbp)
	movl	%r9d, -108(%rbp)
	movl	opterr(%rip), %eax
	movl	%eax, -28(%rbp)
	movq	-72(%rbp), %rax
	cmpb	$58, (%rax)
	jne	.LBB16_2
# BB#1:                                 # %if.then
	movl	$0, -28(%rbp)
.LBB16_2:                               # %if.end
	cmpl	$0, -32(%rbp)
	jle	.LBB16_3
# BB#4:                                 # %if.end5
	movq	$0, optarg(%rip)
	cmpl	$0, optind(%rip)
	je	.LBB16_6
# BB#5:                                 # %lor.lhs.false
	cmpl	$0, __getopt_initialized(%rip)
	jne	.LBB16_9
.LBB16_6:                               # %if.then8
	cmpl	$0, optind(%rip)
	jne	.LBB16_8
# BB#7:                                 # %if.then11
	movl	$1, optind(%rip)
.LBB16_8:                               # %if.end12
	movl	-32(%rbp), %edi
	movq	-24(%rbp), %rsi
	movq	-72(%rbp), %rdx
	callq	_getopt_initialize
	movq	%rax, -72(%rbp)
	movl	$1, __getopt_initialized(%rip)
.LBB16_9:                               # %if.end13
	cmpq	$0, nextchar(%rip)
	je	.LBB16_11
# BB#10:                                # %lor.lhs.false16
	movq	nextchar(%rip), %rax
	cmpb	$0, (%rax)
	je	.LBB16_11
# BB#51:                                # %if.end121
	cmpq	$0, -168(%rbp)
	je	.LBB16_112
.LBB16_52:                              # %land.lhs.true124
	movq	-24(%rbp), %rax
	movslq	optind(%rip), %rcx
	movq	(%rax,%rcx,8), %rax
	cmpb	$45, 1(%rax)
	je	.LBB16_56
# BB#53:                                # %lor.lhs.false131
	cmpl	$0, -108(%rbp)
	je	.LBB16_112
# BB#54:                                # %land.lhs.true133
	movq	-24(%rbp), %rax
	movslq	optind(%rip), %rcx
	movq	(%rax,%rcx,8), %rax
	cmpb	$0, 2(%rax)
	je	.LBB16_55
.LBB16_56:                              # %if.then146
	movq	$0, -48(%rbp)
	movl	$0, -152(%rbp)
	movl	$0, -148(%rbp)
	movl	$-1, -104(%rbp)
	movq	nextchar(%rip), %rax
	movq	%rax, -96(%rbp)
	jmp	.LBB16_57
	.p2align	4, 0x90
.LBB16_61:                              # %for.inc
                                        #   in Loop: Header=BB16_57 Depth=1
	incq	-96(%rbp)
.LBB16_57:                              # %for.cond
                                        # =>This Inner Loop Header: Depth=1
	movq	-96(%rbp), %rax
	cmpb	$0, (%rax)
	je	.LBB16_58
# BB#59:                                # %land.rhs149
                                        #   in Loop: Header=BB16_57 Depth=1
	movq	-96(%rbp), %rax
	cmpb	$61, (%rax)
	setne	-112(%rbp)
	setne	-36(%rbp)
	cmpb	$1, -36(%rbp)
	je	.LBB16_61
	jmp	.LBB16_62
	.p2align	4, 0x90
.LBB16_58:                              # %for.cond.land.end153_crit_edge
                                        #   in Loop: Header=BB16_57 Depth=1
	movb	$0, -36(%rbp)
	cmpb	$1, -36(%rbp)
	je	.LBB16_61
.LBB16_62:                              # %for.end
	movq	-168(%rbp), %rax
	movq	%rax, -80(%rbp)
	movl	$0, -56(%rbp)
	jmp	.LBB16_63
	.p2align	4, 0x90
.LBB16_79:                              # %for.inc195
                                        #   in Loop: Header=BB16_63 Depth=1
	addq	$32, -80(%rbp)
	incl	-56(%rbp)
.LBB16_63:                              # %for.cond155
                                        # =>This Inner Loop Header: Depth=1
	movq	-80(%rbp), %rax
	cmpq	$0, (%rax)
	je	.LBB16_67
# BB#64:                                # %for.body157
                                        #   in Loop: Header=BB16_63 Depth=1
	movq	-80(%rbp), %rax
	movq	(%rax), %rdi
	movq	nextchar(%rip), %rsi
	movq	-96(%rbp), %rdx
	subq	%rsi, %rdx
	callq	strncmp
	testl	%eax, %eax
	jne	.LBB16_79
# BB#65:                                # %if.then161
                                        #   in Loop: Header=BB16_63 Depth=1
	movl	-96(%rbp), %ebx
	subl	nextchar(%rip), %ebx
	movq	-80(%rbp), %rax
	movq	(%rax), %rdi
	callq	strlen
	cmpl	%eax, %ebx
	je	.LBB16_66
# BB#72:                                # %if.else172
                                        #   in Loop: Header=BB16_63 Depth=1
	cmpq	$0, -48(%rbp)
	je	.LBB16_73
# BB#74:                                # %if.else176
                                        #   in Loop: Header=BB16_63 Depth=1
	cmpl	$0, -108(%rbp)
	jne	.LBB16_78
# BB#75:                                # %lor.lhs.false178
                                        #   in Loop: Header=BB16_63 Depth=1
	movq	-48(%rbp), %rax
	movl	8(%rax), %eax
	movq	-80(%rbp), %rcx
	cmpl	8(%rcx), %eax
	jne	.LBB16_78
# BB#76:                                # %lor.lhs.false182
                                        #   in Loop: Header=BB16_63 Depth=1
	movq	-48(%rbp), %rax
	movq	16(%rax), %rax
	movq	-80(%rbp), %rcx
	cmpq	16(%rcx), %rax
	jne	.LBB16_78
# BB#77:                                # %lor.lhs.false186
                                        #   in Loop: Header=BB16_63 Depth=1
	movq	-48(%rbp), %rax
	movl	24(%rax), %eax
	movq	-80(%rbp), %rcx
	cmpl	24(%rcx), %eax
	je	.LBB16_79
	.p2align	4, 0x90
.LBB16_78:                              # %if.then190
                                        #   in Loop: Header=BB16_63 Depth=1
	movl	$1, -148(%rbp)
	jmp	.LBB16_79
.LBB16_73:                              # %if.then175
                                        #   in Loop: Header=BB16_63 Depth=1
	movq	-80(%rbp), %rax
	movq	%rax, -48(%rbp)
	movl	-56(%rbp), %eax
	movl	%eax, -104(%rbp)
	jmp	.LBB16_79
.LBB16_11:                              # %if.then20
	movl	last_nonopt(%rip), %eax
	cmpl	optind(%rip), %eax
	jle	.LBB16_13
# BB#12:                                # %if.then23
	movl	optind(%rip), %eax
	movl	%eax, last_nonopt(%rip)
.LBB16_13:                              # %if.end24
	movl	first_nonopt(%rip), %eax
	cmpl	optind(%rip), %eax
	jle	.LBB16_15
# BB#14:                                # %if.then27
	movl	optind(%rip), %eax
	movl	%eax, first_nonopt(%rip)
.LBB16_15:                              # %if.end28
	cmpl	$1, ordering(%rip)
	jne	.LBB16_30
# BB#16:                                # %if.then31
	movl	first_nonopt(%rip), %eax
	cmpl	last_nonopt(%rip), %eax
	je	.LBB16_19
# BB#17:                                # %land.lhs.true
	movl	last_nonopt(%rip), %eax
	cmpl	optind(%rip), %eax
	je	.LBB16_19
# BB#18:                                # %if.then36
	movq	-24(%rbp), %rdi
	callq	exchange
	jmp	.LBB16_21
.LBB16_3:                               # %if.then4
	movl	$-1, -16(%rbp)
	jmp	.LBB16_191
.LBB16_19:                              # %if.else
	movl	last_nonopt(%rip), %eax
	cmpl	optind(%rip), %eax
	je	.LBB16_21
# BB#20:                                # %if.then39
	movl	optind(%rip), %eax
	movl	%eax, first_nonopt(%rip)
	jmp	.LBB16_21
	.p2align	4, 0x90
.LBB16_28:                              # %while.body
                                        #   in Loop: Header=BB16_21 Depth=1
	incl	optind(%rip)
.LBB16_21:                              # %while.cond
                                        # =>This Inner Loop Header: Depth=1
	movl	optind(%rip), %eax
	cmpl	-32(%rbp), %eax
	jge	.LBB16_22
# BB#23:                                # %land.rhs
                                        #   in Loop: Header=BB16_21 Depth=1
	movq	-24(%rbp), %rax
	movslq	optind(%rip), %rcx
	movq	(%rax,%rcx,8), %rax
	cmpb	$45, (%rax)
	je	.LBB16_25
# BB#24:                                # %land.rhs.lor.end_crit_edge
                                        #   in Loop: Header=BB16_21 Depth=1
	movb	$1, -33(%rbp)
	jmp	.LBB16_26
	.p2align	4, 0x90
.LBB16_22:                              # %while.cond.land.end_crit_edge
                                        #   in Loop: Header=BB16_21 Depth=1
	movb	$0, -34(%rbp)
	cmpb	$1, -34(%rbp)
	je	.LBB16_28
	jmp	.LBB16_29
	.p2align	4, 0x90
.LBB16_25:                              # %lor.rhs
                                        #   in Loop: Header=BB16_21 Depth=1
	movq	-24(%rbp), %rax
	movslq	optind(%rip), %rcx
	movq	(%rax,%rcx,8), %rax
	cmpb	$0, 1(%rax)
	sete	-109(%rbp)
	sete	-33(%rbp)
.LBB16_26:                              # %lor.end
                                        #   in Loop: Header=BB16_21 Depth=1
	movzbl	-33(%rbp), %eax
	movb	%al, -110(%rbp)
	movb	%al, -34(%rbp)
	cmpb	$1, -34(%rbp)
	je	.LBB16_28
.LBB16_29:                              # %while.end
	movl	optind(%rip), %eax
	movl	%eax, last_nonopt(%rip)
.LBB16_30:                              # %if.end55
	movl	optind(%rip), %eax
	cmpl	-32(%rbp), %eax
	je	.LBB16_38
# BB#31:                                # %land.lhs.true58
	movq	-24(%rbp), %rax
	movslq	optind(%rip), %rcx
	movq	(%rax,%rcx,8), %rdi
	movl	$.L.str.1, %esi
	callq	strcmp
	testl	%eax, %eax
	jne	.LBB16_38
# BB#32:                                # %if.then63
	incl	optind(%rip)
	movl	first_nonopt(%rip), %eax
	cmpl	last_nonopt(%rip), %eax
	je	.LBB16_35
# BB#33:                                # %land.lhs.true67
	movl	last_nonopt(%rip), %eax
	cmpl	optind(%rip), %eax
	je	.LBB16_35
# BB#34:                                # %if.then70
	movq	-24(%rbp), %rdi
	callq	exchange
	jmp	.LBB16_37
.LBB16_35:                              # %if.else71
	movl	first_nonopt(%rip), %eax
	cmpl	last_nonopt(%rip), %eax
	jne	.LBB16_37
# BB#36:                                # %if.then74
	movl	optind(%rip), %eax
	movl	%eax, first_nonopt(%rip)
.LBB16_37:                              # %if.end76
	movl	-32(%rbp), %eax
	movl	%eax, last_nonopt(%rip)
	movl	-32(%rbp), %eax
	movl	%eax, optind(%rip)
.LBB16_38:                              # %if.end77
	movl	optind(%rip), %eax
	cmpl	-32(%rbp), %eax
	jne	.LBB16_42
# BB#39:                                # %if.then80
	movl	first_nonopt(%rip), %eax
	cmpl	last_nonopt(%rip), %eax
	je	.LBB16_41
# BB#40:                                # %if.then83
	movl	first_nonopt(%rip), %eax
	movl	%eax, optind(%rip)
.LBB16_41:                              # %if.end84
	movl	$-1, -16(%rbp)
	jmp	.LBB16_191
.LBB16_42:                              # %if.end85
	movq	-24(%rbp), %rax
	movslq	optind(%rip), %rcx
	movq	(%rax,%rcx,8), %rax
	cmpb	$45, (%rax)
	jne	.LBB16_44
# BB#43:                                # %lor.lhs.false92
	movq	-24(%rbp), %rax
	movslq	optind(%rip), %rcx
	movq	(%rax,%rcx,8), %rax
	cmpb	$0, 1(%rax)
	je	.LBB16_44
# BB#47:                                # %if.end107
	movq	-24(%rbp), %rax
	movslq	optind(%rip), %rcx
	movq	(%rax,%rcx,8), %rax
	incq	%rax
	movq	%rax, -176(%rbp)
	cmpq	$0, -168(%rbp)
	je	.LBB16_48
# BB#49:                                # %land.rhs112
	movq	-24(%rbp), %rax
	movslq	optind(%rip), %rcx
	movq	(%rax,%rcx,8), %rax
	cmpb	$45, 1(%rax)
	sete	-111(%rbp)
	sete	-35(%rbp)
	jmp	.LBB16_50
.LBB16_44:                              # %if.then99
	cmpl	$0, ordering(%rip)
	je	.LBB16_45
# BB#46:                                # %if.end103
	movq	-24(%rbp), %rax
	movslq	optind(%rip), %rcx
	leal	1(%rcx), %edx
	movl	%edx, optind(%rip)
	movq	(%rax,%rcx,8), %rax
	movq	%rax, optarg(%rip)
	movl	$1, -16(%rbp)
	jmp	.LBB16_191
.LBB16_45:                              # %if.then102
	movl	$-1, -16(%rbp)
	jmp	.LBB16_191
.LBB16_66:                              # %if.then171
	movq	-80(%rbp), %rax
	movq	%rax, -48(%rbp)
	movl	-56(%rbp), %eax
	movl	%eax, -104(%rbp)
	movl	$1, -152(%rbp)
.LBB16_67:                              # %for.end198
	cmpl	$0, -148(%rbp)
	je	.LBB16_80
# BB#68:                                # %land.lhs.true200
	cmpl	$0, -152(%rbp)
	je	.LBB16_69
.LBB16_80:                              # %if.end213
	cmpq	$0, -48(%rbp)
	je	.LBB16_103
# BB#81:                                # %if.then216
	movl	-104(%rbp), %eax
	incl	optind(%rip)
	movl	%eax, -56(%rbp)
	movq	-96(%rbp), %rax
	cmpb	$0, (%rax)
	je	.LBB16_89
# BB#82:                                # %if.then219
	movq	-48(%rbp), %rax
	cmpl	$0, 8(%rax)
	je	.LBB16_84
# BB#83:                                # %if.then222
	movq	-96(%rbp), %rax
	incq	%rax
.LBB16_92:                              # %if.end281
	movq	%rax, optarg(%rip)
	jmp	.LBB16_93
.LBB16_103:                             # %if.end295
	cmpl	$0, -108(%rbp)
	je	.LBB16_106
# BB#104:                               # %lor.lhs.false297
	movq	-24(%rbp), %rax
	movslq	optind(%rip), %rcx
	movq	(%rax,%rcx,8), %rax
	cmpb	$45, 1(%rax)
	je	.LBB16_106
# BB#105:                               # %lor.lhs.false304
	movq	-72(%rbp), %rdi
	movq	nextchar(%rip), %rax
	movsbl	(%rax), %esi
	xorl	%eax, %eax
	callq	my_index
	testl	%eax, %eax
	jne	.LBB16_112
.LBB16_106:                             # %if.then310
	cmpl	$0, -28(%rbp)
	je	.LBB16_110
# BB#107:                               # %if.then312
	movq	-24(%rbp), %rax
	movslq	optind(%rip), %rcx
	movq	(%rax,%rcx,8), %rax
	cmpb	$45, 1(%rax)
	jne	.LBB16_109
# BB#108:                               # %if.then319
	movq	stderr(%rip), %rdi
	movq	-24(%rbp), %rax
	movq	(%rax), %rdx
	movq	nextchar(%rip), %rcx
	movl	$.L.str.6, %esi
	xorl	%eax, %eax
	callq	fprintf
	jmp	.LBB16_110
.LBB16_69:                              # %if.then202
	cmpl	$0, -28(%rbp)
	je	.LBB16_71
# BB#70:                                # %if.then204
	movq	stderr(%rip), %rdi
	movq	-24(%rbp), %rax
	movq	(%rax), %rdx
	movslq	optind(%rip), %rcx
	movq	(%rax,%rcx,8), %rcx
	movl	$.L.str.2, %esi
	xorl	%eax, %eax
	callq	fprintf
.LBB16_71:                              # %if.end209
	movq	nextchar(%rip), %rdi
	callq	strlen
	addq	%rax, nextchar(%rip)
	jmp	.LBB16_111
.LBB16_89:                              # %if.else252
	movq	-48(%rbp), %rax
	cmpl	$1, 8(%rax)
	jne	.LBB16_93
# BB#90:                                # %if.then256
	movl	optind(%rip), %eax
	cmpl	-32(%rbp), %eax
	jge	.LBB16_98
# BB#91:                                # %if.then259
	movq	-24(%rbp), %rax
	movslq	optind(%rip), %rcx
	leal	1(%rcx), %edx
	movl	%edx, optind(%rip)
	movq	(%rax,%rcx,8), %rax
	jmp	.LBB16_92
.LBB16_93:                              # %if.end281
	movq	nextchar(%rip), %rdi
	callq	strlen
	addq	%rax, nextchar(%rip)
	cmpq	$0, -160(%rbp)
	je	.LBB16_95
# BB#94:                                # %if.then286
	movl	-56(%rbp), %eax
	movq	-160(%rbp), %rcx
	movl	%eax, (%rcx)
.LBB16_95:                              # %if.end287
	movq	-48(%rbp), %rax
	cmpq	$0, 16(%rax)
	je	.LBB16_101
# BB#96:                                # %if.then290
	movq	-48(%rbp), %rax
.LBB16_97:                              # %return
	movl	24(%rax), %ecx
	movq	16(%rax), %rax
	movl	%ecx, (%rax)
	movl	$0, -16(%rbp)
	jmp	.LBB16_191
.LBB16_48:                              # %if.end107.land.end119_crit_edge
	movb	$0, -35(%rbp)
.LBB16_50:                              # %land.end119
	movzbl	-35(%rbp), %eax
	addq	-176(%rbp), %rax
	movq	%rax, nextchar(%rip)
	cmpq	$0, -168(%rbp)
	jne	.LBB16_52
	jmp	.LBB16_112
.LBB16_55:                              # %lor.lhs.false139
	movq	-72(%rbp), %rdi
	movq	-24(%rbp), %rax
	movslq	optind(%rip), %rcx
	movq	(%rax,%rcx,8), %rax
	movsbl	1(%rax), %esi
	xorl	%eax, %eax
	callq	my_index
	testl	%eax, %eax
	je	.LBB16_56
.LBB16_112:                             # %if.end333
	movq	nextchar(%rip), %rax
	leaq	1(%rax), %rcx
	movq	%rcx, nextchar(%rip)
	movb	(%rax), %al
	movb	%al, -9(%rbp)
	movq	-72(%rbp), %rdi
	movsbl	-9(%rbp), %esi
	xorl	%eax, %eax
	callq	my_index
	cltq
	movq	%rax, -136(%rbp)
	movq	nextchar(%rip), %rax
	cmpb	$0, (%rax)
	jne	.LBB16_114
# BB#113:                               # %if.then341
	incl	optind(%rip)
.LBB16_114:                             # %if.end343
	cmpq	$0, -136(%rbp)
	je	.LBB16_116
# BB#115:                               # %lor.lhs.false346
	cmpb	$58, -9(%rbp)
	jne	.LBB16_123
.LBB16_116:                             # %if.then350
	cmpl	$0, -28(%rbp)
	je	.LBB16_121
# BB#117:                               # %if.then352
	cmpq	$0, posixly_correct(%rip)
	je	.LBB16_119
# BB#118:                               # %if.then354
	movq	stderr(%rip), %rdi
	movq	-24(%rbp), %rax
	movq	(%rax), %rdx
	movsbl	-9(%rbp), %ecx
	movl	$.L.str.9, %esi
	jmp	.LBB16_120
.LBB16_123:                             # %if.end365
	movq	-136(%rbp), %rax
	cmpb	$87, (%rax)
	jne	.LBB16_175
# BB#124:                               # %land.lhs.true370
	movq	-136(%rbp), %rax
	cmpb	$59, 1(%rax)
	jne	.LBB16_175
# BB#125:                               # %if.then375
	movq	$0, -64(%rbp)
	movl	$0, -144(%rbp)
	movl	$0, -140(%rbp)
	movl	$0, -100(%rbp)
	movq	nextchar(%rip), %rax
	cmpb	$0, (%rax)
	je	.LBB16_127
# BB#126:                               # %if.then386
	movq	nextchar(%rip), %rax
	movq	%rax, optarg(%rip)
	incl	optind(%rip)
	jmp	.LBB16_134
.LBB16_175:                             # %if.end537
	movq	-136(%rbp), %rax
	cmpb	$58, 1(%rax)
	jne	.LBB16_189
# BB#176:                               # %if.then542
	movq	-136(%rbp), %rax
	cmpb	$58, 2(%rax)
	jne	.LBB16_180
# BB#177:                               # %if.then547
	movq	nextchar(%rip), %rax
	cmpb	$0, (%rax)
	jne	.LBB16_178
# BB#179:                               # %if.else553
	movq	$0, optarg(%rip)
	jmp	.LBB16_188
.LBB16_119:                             # %if.else358
	movq	stderr(%rip), %rdi
	movq	-24(%rbp), %rax
	movq	(%rax), %rdx
	movsbl	-9(%rbp), %ecx
	movl	$.L.str.10, %esi
.LBB16_120:                             # %if.end363
	xorl	%eax, %eax
	callq	fprintf
.LBB16_121:                             # %if.end363
	movsbl	-9(%rbp), %eax
.LBB16_122:                             # %return
	movl	%eax, optopt(%rip)
	movl	$63, -16(%rbp)
	jmp	.LBB16_191
.LBB16_101:                             # %if.end293
	movq	-48(%rbp), %rax
	movl	24(%rax), %eax
	jmp	.LBB16_190
.LBB16_84:                              # %if.else224
	cmpl	$0, -28(%rbp)
	je	.LBB16_88
# BB#85:                                # %if.then226
	movq	-24(%rbp), %rax
	movslq	optind(%rip), %rcx
	movq	-8(%rax,%rcx,8), %rax
	cmpb	$45, 1(%rax)
	jne	.LBB16_87
# BB#86:                                # %if.then233
	movq	stderr(%rip), %rdi
	movq	-24(%rbp), %rax
	movq	(%rax), %rdx
	movq	-48(%rbp), %rax
	movq	(%rax), %rcx
	movl	$.L.str.3, %esi
	xorl	%eax, %eax
	callq	fprintf
	jmp	.LBB16_88
.LBB16_109:                             # %if.else322
	movq	stderr(%rip), %rdi
	movq	-24(%rbp), %rax
	movq	(%rax), %rdx
	movslq	optind(%rip), %rcx
	movq	(%rax,%rcx,8), %rax
	movsbl	(%rax), %ecx
	movq	nextchar(%rip), %r8
	movl	$.L.str.7, %esi
	xorl	%eax, %eax
	callq	fprintf
.LBB16_110:                             # %if.end330
	movq	$.L.str.8, nextchar(%rip)
.LBB16_111:                             # %return
	incl	optind(%rip)
	movl	$0, optopt(%rip)
	movl	$63, -16(%rbp)
	jmp	.LBB16_191
.LBB16_180:                             # %if.else555
	movq	nextchar(%rip), %rax
	cmpb	$0, (%rax)
	je	.LBB16_181
.LBB16_178:                             # %if.then551
	movq	nextchar(%rip), %rax
	movq	%rax, optarg(%rip)
	incl	optind(%rip)
.LBB16_188:                             # %if.end584
	movq	$0, nextchar(%rip)
.LBB16_189:                             # %if.end586
	movsbl	-9(%rbp), %eax
.LBB16_190:                             # %return
	movl	%eax, -16(%rbp)
.LBB16_191:                             # %return
	movl	-16(%rbp), %eax
	addq	$168, %rsp
	popq	%rbx
	popq	%rbp
	retq
.LBB16_98:                              # %if.else263
	cmpl	$0, -28(%rbp)
	je	.LBB16_100
# BB#99:                                # %if.then265
	movq	stderr(%rip), %rdi
	movq	-24(%rbp), %rax
	movq	(%rax), %rdx
	movslq	optind(%rip), %rcx
	movq	-8(%rax,%rcx,8), %rcx
	movl	$.L.str.5, %esi
	xorl	%eax, %eax
	callq	fprintf
.LBB16_100:                             # %if.end271
	movq	nextchar(%rip), %rdi
	callq	strlen
	addq	%rax, nextchar(%rip)
	movq	-48(%rbp), %rax
	movl	24(%rax), %eax
	movl	%eax, optopt(%rip)
.LBB16_172:                             # %return
	movq	-72(%rbp), %rax
	xorl	%ecx, %ecx
	cmpb	$58, (%rax)
	setne	%cl
	leal	58(%rcx,%rcx,4), %eax
	jmp	.LBB16_190
.LBB16_127:                             # %if.else388
	movl	optind(%rip), %eax
	cmpl	-32(%rbp), %eax
	jne	.LBB16_133
# BB#128:                               # %if.then391
	cmpl	$0, -28(%rbp)
	je	.LBB16_130
# BB#129:                               # %if.then393
	movq	stderr(%rip), %rdi
	movq	-24(%rbp), %rax
	movq	(%rax), %rdx
	movsbl	-9(%rbp), %ecx
	movl	$.L.str.11, %esi
	xorl	%eax, %eax
	callq	fprintf
.LBB16_130:                             # %if.end397
	movsbl	-9(%rbp), %eax
	movl	%eax, optopt(%rip)
	movq	-72(%rbp), %rax
	cmpb	$58, (%rax)
	jne	.LBB16_132
# BB#131:                               # %if.then403
	movb	$58, -9(%rbp)
	jmp	.LBB16_189
.LBB16_87:                              # %if.else237
	movq	stderr(%rip), %rdi
	movq	-24(%rbp), %rax
	movq	(%rax), %rdx
	movslq	optind(%rip), %rcx
	movq	-8(%rax,%rcx,8), %rax
	movsbl	(%rax), %ecx
	movq	-48(%rbp), %rax
	movq	(%rax), %r8
	movl	$.L.str.4, %esi
	xorl	%eax, %eax
	callq	fprintf
.LBB16_88:                              # %if.end247
	movq	nextchar(%rip), %rdi
	callq	strlen
	addq	%rax, nextchar(%rip)
	movq	-48(%rbp), %rax
	movl	24(%rax), %eax
	jmp	.LBB16_122
.LBB16_181:                             # %if.else561
	movl	optind(%rip), %eax
	cmpl	-32(%rbp), %eax
	jne	.LBB16_187
# BB#182:                               # %if.then564
	cmpl	$0, -28(%rbp)
	je	.LBB16_184
# BB#183:                               # %if.then566
	movq	stderr(%rip), %rdi
	movq	-24(%rbp), %rax
	movq	(%rax), %rdx
	movsbl	-9(%rbp), %ecx
	movl	$.L.str.11, %esi
	xorl	%eax, %eax
	callq	fprintf
.LBB16_184:                             # %if.end570
	movsbl	-9(%rbp), %eax
	movl	%eax, optopt(%rip)
	movq	-72(%rbp), %rax
	cmpb	$58, (%rax)
	jne	.LBB16_186
# BB#185:                               # %if.then576
	movb	$58, -9(%rbp)
	jmp	.LBB16_188
.LBB16_133:                             # %if.else407
	movq	-24(%rbp), %rax
	movslq	optind(%rip), %rcx
	leal	1(%rcx), %edx
	movl	%edx, optind(%rip)
	movq	(%rax,%rcx,8), %rax
	movq	%rax, optarg(%rip)
.LBB16_134:                             # %if.end412
	movq	optarg(%rip), %rax
	movq	%rax, -88(%rbp)
	movq	%rax, nextchar(%rip)
	jmp	.LBB16_135
	.p2align	4, 0x90
.LBB16_139:                             # %for.inc423
                                        #   in Loop: Header=BB16_135 Depth=1
	incq	-88(%rbp)
.LBB16_135:                             # %for.cond413
                                        # =>This Inner Loop Header: Depth=1
	movq	-88(%rbp), %rax
	cmpb	$0, (%rax)
	je	.LBB16_136
# BB#137:                               # %land.rhs416
                                        #   in Loop: Header=BB16_135 Depth=1
	movq	-88(%rbp), %rax
	cmpb	$61, (%rax)
	setne	-113(%rbp)
	setne	-37(%rbp)
	cmpb	$1, -37(%rbp)
	je	.LBB16_139
	jmp	.LBB16_140
.LBB16_136:                             # %for.cond413.land.end420_crit_edge
                                        #   in Loop: Header=BB16_135 Depth=1
	movb	$0, -37(%rbp)
	cmpb	$1, -37(%rbp)
	je	.LBB16_139
.LBB16_140:                             # %for.end425
	movq	-168(%rbp), %rax
	movq	%rax, -128(%rbp)
	movl	$0, -52(%rbp)
	jmp	.LBB16_141
	.p2align	4, 0x90
.LBB16_153:                             # %for.inc455
                                        #   in Loop: Header=BB16_141 Depth=1
	addq	$32, -128(%rbp)
	incl	-52(%rbp)
.LBB16_141:                             # %for.cond426
                                        # =>This Inner Loop Header: Depth=1
	movq	-128(%rbp), %rax
	cmpq	$0, (%rax)
	je	.LBB16_145
# BB#142:                               # %for.body429
                                        #   in Loop: Header=BB16_141 Depth=1
	movq	-128(%rbp), %rax
	movq	(%rax), %rdi
	movq	nextchar(%rip), %rsi
	movq	-88(%rbp), %rdx
	subq	%rsi, %rdx
	callq	strncmp
	testl	%eax, %eax
	jne	.LBB16_153
# BB#143:                               # %if.then436
                                        #   in Loop: Header=BB16_141 Depth=1
	movl	-88(%rbp), %ebx
	subl	nextchar(%rip), %ebx
	movq	-128(%rbp), %rax
	movq	(%rax), %rdi
	callq	strlen
	cmpq	%rax, %rbx
	je	.LBB16_144
# BB#150:                               # %if.else447
                                        #   in Loop: Header=BB16_141 Depth=1
	cmpq	$0, -64(%rbp)
	je	.LBB16_151
# BB#152:                               # %if.else451
                                        #   in Loop: Header=BB16_141 Depth=1
	movl	$1, -140(%rbp)
	jmp	.LBB16_153
.LBB16_151:                             # %if.then450
                                        #   in Loop: Header=BB16_141 Depth=1
	movq	-128(%rbp), %rax
	movq	%rax, -64(%rbp)
	movl	-52(%rbp), %eax
	movl	%eax, -100(%rbp)
	jmp	.LBB16_153
.LBB16_144:                             # %if.then446
	movq	-128(%rbp), %rax
	movq	%rax, -64(%rbp)
	movl	-52(%rbp), %eax
	movl	%eax, -100(%rbp)
	movl	$1, -144(%rbp)
.LBB16_145:                             # %for.end458
	cmpl	$0, -140(%rbp)
	je	.LBB16_154
# BB#146:                               # %land.lhs.true460
	cmpl	$0, -144(%rbp)
	je	.LBB16_147
.LBB16_154:                             # %if.end473
	cmpq	$0, -64(%rbp)
	je	.LBB16_174
# BB#155:                               # %if.then476
	movl	-100(%rbp), %eax
	movl	%eax, -52(%rbp)
	movq	-88(%rbp), %rax
	cmpb	$0, (%rax)
	je	.LBB16_161
# BB#156:                               # %if.then478
	movq	-64(%rbp), %rax
	cmpl	$0, 8(%rax)
	je	.LBB16_158
# BB#157:                               # %if.then481
	movq	-88(%rbp), %rax
	incq	%rax
.LBB16_164:                             # %if.end522
	movq	%rax, optarg(%rip)
	jmp	.LBB16_165
.LBB16_174:                             # %if.end536
	movq	$0, nextchar(%rip)
	movl	$87, -16(%rbp)
	jmp	.LBB16_191
.LBB16_147:                             # %if.then462
	cmpl	$0, -28(%rbp)
	je	.LBB16_149
# BB#148:                               # %if.then464
	movq	stderr(%rip), %rdi
	movq	-24(%rbp), %rax
	movq	(%rax), %rdx
	movslq	optind(%rip), %rcx
	movq	(%rax,%rcx,8), %rcx
	movl	$.L.str.12, %esi
	xorl	%eax, %eax
	callq	fprintf
.LBB16_149:                             # %if.end469
	movq	nextchar(%rip), %rdi
	callq	strlen
	addq	%rax, nextchar(%rip)
	incl	optind(%rip)
	movl	$63, -16(%rbp)
	jmp	.LBB16_191
.LBB16_161:                             # %if.else493
	movq	-64(%rbp), %rax
	cmpl	$1, 8(%rax)
	jne	.LBB16_165
# BB#162:                               # %if.then497
	movl	optind(%rip), %eax
	cmpl	-32(%rbp), %eax
	jge	.LBB16_169
# BB#163:                               # %if.then500
	movq	-24(%rbp), %rax
	movslq	optind(%rip), %rcx
	leal	1(%rcx), %edx
	movl	%edx, optind(%rip)
	movq	(%rax,%rcx,8), %rax
	jmp	.LBB16_164
.LBB16_165:                             # %if.end522
	movq	nextchar(%rip), %rdi
	callq	strlen
	addq	%rax, nextchar(%rip)
	cmpq	$0, -160(%rbp)
	je	.LBB16_167
# BB#166:                               # %if.then527
	movl	-52(%rbp), %eax
	movq	-160(%rbp), %rcx
	movl	%eax, (%rcx)
.LBB16_167:                             # %if.end528
	movq	-64(%rbp), %rax
	cmpq	$0, 16(%rax)
	je	.LBB16_173
# BB#168:                               # %if.then531
	movq	-64(%rbp), %rax
	jmp	.LBB16_97
.LBB16_187:                             # %if.else579
	movq	-24(%rbp), %rax
	movslq	optind(%rip), %rcx
	leal	1(%rcx), %edx
	movl	%edx, optind(%rip)
	movq	(%rax,%rcx,8), %rax
	movq	%rax, optarg(%rip)
	jmp	.LBB16_188
.LBB16_173:                             # %if.end534
	movq	-64(%rbp), %rax
	movl	24(%rax), %eax
	jmp	.LBB16_190
.LBB16_132:                             # %if.else404
	movb	$63, -9(%rbp)
	jmp	.LBB16_189
.LBB16_158:                             # %if.else483
	cmpl	$0, -28(%rbp)
	je	.LBB16_160
# BB#159:                               # %if.then485
	movq	stderr(%rip), %rdi
	movq	-24(%rbp), %rax
	movq	(%rax), %rdx
	movq	-64(%rbp), %rax
	movq	(%rax), %rcx
	movl	$.L.str.13, %esi
	xorl	%eax, %eax
	callq	fprintf
.LBB16_160:                             # %if.end489
	movq	nextchar(%rip), %rdi
	callq	strlen
	addq	%rax, nextchar(%rip)
	movl	$63, -16(%rbp)
	jmp	.LBB16_191
.LBB16_186:                             # %if.else577
	movb	$63, -9(%rbp)
	jmp	.LBB16_188
.LBB16_169:                             # %if.else504
	cmpl	$0, -28(%rbp)
	je	.LBB16_171
# BB#170:                               # %if.then506
	movq	stderr(%rip), %rdi
	movq	-24(%rbp), %rax
	movq	(%rax), %rdx
	movslq	optind(%rip), %rcx
	movq	-8(%rax,%rcx,8), %rcx
	movl	$.L.str.5, %esi
	xorl	%eax, %eax
	callq	fprintf
.LBB16_171:                             # %if.end512
	movq	nextchar(%rip), %rdi
	callq	strlen
	addq	%rax, nextchar(%rip)
	jmp	.LBB16_172
.Lfunc_end16:
	.size	_getopt_internal, .Lfunc_end16-_getopt_internal
	.cfi_endproc

	.p2align	4, 0x90
	.type	_getopt_initialize,@function
_getopt_initialize:                     # @_getopt_initialize
	.cfi_startproc
# BB#0:                                 # %entry
	pushq	%rbp
.Lcfi56:
	.cfi_def_cfa_offset 16
.Lcfi57:
	.cfi_offset %rbp, -16
	movq	%rsp, %rbp
.Lcfi58:
	.cfi_def_cfa_register %rbp
	subq	$32, %rsp
	movl	%edi, -12(%rbp)
	movq	%rsi, -24(%rbp)
	movq	%rdx, -8(%rbp)
	movl	optind(%rip), %eax
	movl	%eax, last_nonopt(%rip)
	movl	%eax, first_nonopt(%rip)
	movq	$0, nextchar(%rip)
	movl	$.L.str.83, %edi
	callq	getenv
	movq	%rax, posixly_correct(%rip)
	movq	-8(%rbp), %rax
	cmpb	$45, (%rax)
	jne	.LBB17_2
# BB#1:                                 # %if.then
	movl	$2, ordering(%rip)
	incq	-8(%rbp)
	jmp	.LBB17_7
.LBB17_2:                               # %if.else
	movq	-8(%rbp), %rax
	cmpb	$43, (%rax)
	jne	.LBB17_4
# BB#3:                                 # %if.then6
	movl	$0, ordering(%rip)
	incq	-8(%rbp)
	jmp	.LBB17_7
.LBB17_4:                               # %if.else8
	cmpq	$0, posixly_correct(%rip)
	je	.LBB17_6
# BB#5:                                 # %if.then11
	movl	$0, ordering(%rip)
	jmp	.LBB17_7
.LBB17_6:                               # %if.else12
	movl	$1, ordering(%rip)
.LBB17_7:                               # %if.end14
	movq	-8(%rbp), %rax
	addq	$32, %rsp
	popq	%rbp
	retq
.Lfunc_end17:
	.size	_getopt_initialize, .Lfunc_end17-_getopt_initialize
	.cfi_endproc

	.p2align	4, 0x90
	.type	exchange,@function
exchange:                               # @exchange
	.cfi_startproc
# BB#0:                                 # %entry
	pushq	%rbp
.Lcfi59:
	.cfi_def_cfa_offset 16
.Lcfi60:
	.cfi_offset %rbp, -16
	movq	%rsp, %rbp
.Lcfi61:
	.cfi_def_cfa_register %rbp
	movq	%rdi, -40(%rbp)
	movl	first_nonopt(%rip), %eax
	movl	%eax, -12(%rbp)
	movl	last_nonopt(%rip), %eax
	movl	%eax, -8(%rbp)
	movl	optind(%rip), %eax
	movl	%eax, -16(%rbp)
	jmp	.LBB18_1
	.p2align	4, 0x90
.LBB18_13:                              # %for.end40
                                        #   in Loop: Header=BB18_1 Depth=1
	movl	-44(%rbp), %eax
	addl	%eax, -12(%rbp)
.LBB18_1:                               # %while.cond
                                        # =>This Loop Header: Depth=1
                                        #     Child Loop BB18_11 Depth 2
                                        #     Child Loop BB18_7 Depth 2
	movl	-16(%rbp), %eax
	cmpl	-8(%rbp), %eax
	jle	.LBB18_2
# BB#3:                                 # %land.rhs
                                        #   in Loop: Header=BB18_1 Depth=1
	movl	-8(%rbp), %eax
	cmpl	-12(%rbp), %eax
	setg	-25(%rbp)
	setg	-1(%rbp)
	cmpb	$1, -1(%rbp)
	je	.LBB18_5
	jmp	.LBB18_14
	.p2align	4, 0x90
.LBB18_2:                               # %while.cond.land.end_crit_edge
                                        #   in Loop: Header=BB18_1 Depth=1
	movb	$0, -1(%rbp)
	cmpb	$1, -1(%rbp)
	jne	.LBB18_14
.LBB18_5:                               # %while.body
                                        #   in Loop: Header=BB18_1 Depth=1
	movl	-16(%rbp), %eax
	movl	-8(%rbp), %ecx
	subl	%ecx, %eax
	subl	-12(%rbp), %ecx
	cmpl	%ecx, %eax
	jle	.LBB18_10
# BB#6:                                 # %if.then
                                        #   in Loop: Header=BB18_1 Depth=1
	movl	-8(%rbp), %eax
	subl	-12(%rbp), %eax
	movl	%eax, -48(%rbp)
	movl	$0, -24(%rbp)
	jmp	.LBB18_7
	.p2align	4, 0x90
.LBB18_8:                               # %for.inc
                                        #   in Loop: Header=BB18_7 Depth=2
	movq	-40(%rbp), %rax
	movslq	-12(%rbp), %rcx
	movslq	-24(%rbp), %rdx
	addq	%rcx, %rdx
	movq	(%rax,%rdx,8), %rax
	movq	%rax, -56(%rbp)
	movq	-40(%rbp), %rax
	movslq	-16(%rbp), %rcx
	movslq	-8(%rbp), %rdx
	movslq	-12(%rbp), %rsi
	subq	%rsi, %rdx
	subq	%rdx, %rcx
	movslq	-24(%rbp), %rdx
	addq	%rdx, %rcx
	movq	(%rax,%rcx,8), %rcx
	addq	%rdx, %rsi
	movq	%rcx, (%rax,%rsi,8)
	movq	-56(%rbp), %rax
	movq	-40(%rbp), %rcx
	movslq	-16(%rbp), %rdx
	movslq	-8(%rbp), %rsi
	movslq	-12(%rbp), %rdi
	subq	%rdi, %rsi
	subq	%rsi, %rdx
	movslq	-24(%rbp), %rsi
	addq	%rdx, %rsi
	movq	%rax, (%rcx,%rsi,8)
	incl	-24(%rbp)
.LBB18_7:                               # %for.cond
                                        #   Parent Loop BB18_1 Depth=1
                                        # =>  This Inner Loop Header: Depth=2
	movl	-24(%rbp), %eax
	cmpl	-48(%rbp), %eax
	jl	.LBB18_8
# BB#9:                                 # %for.end
                                        #   in Loop: Header=BB18_1 Depth=1
	movl	-48(%rbp), %eax
	subl	%eax, -16(%rbp)
	jmp	.LBB18_1
	.p2align	4, 0x90
.LBB18_10:                              # %if.else
                                        #   in Loop: Header=BB18_1 Depth=1
	movl	-16(%rbp), %eax
	subl	-8(%rbp), %eax
	movl	%eax, -44(%rbp)
	movl	$0, -20(%rbp)
	jmp	.LBB18_11
	.p2align	4, 0x90
.LBB18_12:                              # %for.inc38
                                        #   in Loop: Header=BB18_11 Depth=2
	movq	-40(%rbp), %rax
	movslq	-12(%rbp), %rcx
	movslq	-20(%rbp), %rdx
	addq	%rcx, %rdx
	movq	(%rax,%rdx,8), %rax
	movq	%rax, -56(%rbp)
	movq	-40(%rbp), %rax
	movslq	-8(%rbp), %rcx
	movslq	-20(%rbp), %rdx
	addq	%rdx, %rcx
	movq	(%rax,%rcx,8), %rcx
	movslq	-12(%rbp), %rsi
	addq	%rdx, %rsi
	movq	%rcx, (%rax,%rsi,8)
	movq	-56(%rbp), %rax
	movq	-40(%rbp), %rcx
	movslq	-8(%rbp), %rdx
	movslq	-20(%rbp), %rsi
	addq	%rdx, %rsi
	movq	%rax, (%rcx,%rsi,8)
	incl	-20(%rbp)
.LBB18_11:                              # %for.cond23
                                        #   Parent Loop BB18_1 Depth=1
                                        # =>  This Inner Loop Header: Depth=2
	movl	-20(%rbp), %eax
	cmpl	-44(%rbp), %eax
	jl	.LBB18_12
	jmp	.LBB18_13
.LBB18_14:                              # %while.end
	movl	optind(%rip), %eax
	subl	last_nonopt(%rip), %eax
	addl	%eax, first_nonopt(%rip)
	movl	optind(%rip), %eax
	movl	%eax, last_nonopt(%rip)
	popq	%rbp
	retq
.Lfunc_end18:
	.size	exchange, .Lfunc_end18-exchange
	.cfi_endproc

	.globl	getopt
	.p2align	4, 0x90
	.type	getopt,@function
getopt:                                 # @getopt
	.cfi_startproc
# BB#0:                                 # %entry
	pushq	%rbp
.Lcfi62:
	.cfi_def_cfa_offset 16
.Lcfi63:
	.cfi_offset %rbp, -16
	movq	%rsp, %rbp
.Lcfi64:
	.cfi_def_cfa_register %rbp
	subq	$32, %rsp
	movl	%edi, -4(%rbp)
	movq	%rsi, -16(%rbp)
	movq	%rdx, -24(%rbp)
	movl	-4(%rbp), %edi
	movq	-16(%rbp), %rsi
	xorl	%ecx, %ecx
	xorl	%r8d, %r8d
	xorl	%r9d, %r9d
	callq	_getopt_internal
	addq	$32, %rsp
	popq	%rbp
	retq
.Lfunc_end19:
	.size	getopt, .Lfunc_end19-getopt
	.cfi_endproc

	.globl	zip
	.p2align	4, 0x90
	.type	zip,@function
zip:                                    # @zip
	.cfi_startproc
# BB#0:                                 # %entry
	pushq	%rbp
.Lcfi65:
	.cfi_def_cfa_offset 16
.Lcfi66:
	.cfi_offset %rbp, -16
	movq	%rsp, %rbp
.Lcfi67:
	.cfi_def_cfa_register %rbp
	subq	$160, %rsp
	movl	%edi, -28(%rbp)
	movl	%esi, -12(%rbp)
	movb	$0, -1(%rbp)
	movw	$0, -6(%rbp)
	movw	$0, -4(%rbp)
	movl	-28(%rbp), %eax
	movl	%eax, ifd(%rip)
	movl	-12(%rbp), %eax
	movl	%eax, ofd(%rip)
	movl	$0, outcnt(%rip)
	movl	$8, method(%rip)
	movb	.L.str.79(%rip), %al
	movl	outcnt(%rip), %ecx
	leal	1(%rcx), %edx
	movl	%edx, outcnt(%rip)
	movb	%al, outbuf(%rcx)
	cmpl	$16384, outcnt(%rip)    # imm = 0x4000
	jne	.LBB20_2
# BB#1:                                 # %if.then
	callq	flush_outbuf
.LBB20_2:                               # %if.end
	movb	.L.str.79+1(%rip), %al
	movl	outcnt(%rip), %ecx
	leal	1(%rcx), %edx
	movl	%edx, outcnt(%rip)
	movb	%al, outbuf(%rcx)
	cmpl	$16384, outcnt(%rip)    # imm = 0x4000
	jne	.LBB20_4
# BB#3:                                 # %if.then5
	callq	flush_outbuf
.LBB20_4:                               # %if.end6
	movl	outcnt(%rip), %eax
	leal	1(%rax), %ecx
	movl	%ecx, outcnt(%rip)
	movb	$8, outbuf(%rax)
	cmpl	$16384, outcnt(%rip)    # imm = 0x4000
	jne	.LBB20_6
# BB#5:                                 # %if.then11
	callq	flush_outbuf
.LBB20_6:                               # %if.end12
	cmpl	$0, save_orig_name(%rip)
	je	.LBB20_8
# BB#7:                                 # %if.then13
	movzbl	-1(%rbp), %eax
	orl	$8, %eax
	movb	%al, -1(%rbp)
.LBB20_8:                               # %if.end15
	movb	-1(%rbp), %al
	movl	outcnt(%rip), %ecx
	leal	1(%rcx), %edx
	movl	%edx, outcnt(%rip)
	movb	%al, outbuf(%rcx)
	cmpl	$16384, outcnt(%rip)    # imm = 0x4000
	jne	.LBB20_10
# BB#9:                                 # %if.then21
	callq	flush_outbuf
.LBB20_10:                              # %if.end22
	cmpl	$16381, outcnt(%rip)    # imm = 0x3FFD
	ja	.LBB20_18
# BB#11:                                # %if.then25
	movq	time_stamp(%rip), %rax
	movl	%eax, %ecx
	cmpq	%rcx, %rax
	jne	.LBB20_13
# BB#12:                                # %cond.true
	movq	time_stamp(%rip), %rax
	movq	%rax, -104(%rbp)
	movq	%rax, -40(%rbp)
	jmp	.LBB20_14
.LBB20_18:                              # %if.else
	movq	time_stamp(%rip), %rax
	movl	%eax, %ecx
	cmpq	%rcx, %rax
	jne	.LBB20_20
# BB#19:                                # %cond.true51
	movq	time_stamp(%rip), %rax
	movq	%rax, -120(%rbp)
	movq	%rax, -56(%rbp)
	jmp	.LBB20_21
.LBB20_13:                              # %cond.false
	movq	$0, -40(%rbp)
.LBB20_14:                              # %cond.end
	movb	-40(%rbp), %al
	movl	outcnt(%rip), %ecx
	leal	1(%rcx), %edx
	movl	%edx, outcnt(%rip)
	movb	%al, outbuf(%rcx)
	movq	time_stamp(%rip), %rax
	movl	%eax, %ecx
	cmpq	%rcx, %rax
	jne	.LBB20_16
# BB#15:                                # %cond.true37
	movq	time_stamp(%rip), %rax
	movq	%rax, -112(%rbp)
	movq	%rax, -48(%rbp)
	jmp	.LBB20_17
.LBB20_20:                              # %cond.false52
	movq	$0, -56(%rbp)
.LBB20_21:                              # %cond.end53
	movb	-56(%rbp), %al
	movl	outcnt(%rip), %ecx
	leal	1(%rcx), %edx
	movl	%edx, outcnt(%rip)
	movb	%al, outbuf(%rcx)
	cmpl	$16384, outcnt(%rip)    # imm = 0x4000
	jne	.LBB20_23
# BB#22:                                # %if.then63
	callq	flush_outbuf
.LBB20_23:                              # %if.end64
	movq	time_stamp(%rip), %rax
	movl	%eax, %ecx
	cmpq	%rcx, %rax
	jne	.LBB20_25
# BB#24:                                # %cond.true68
	movq	time_stamp(%rip), %rax
	movq	%rax, -128(%rbp)
	movq	%rax, -64(%rbp)
	jmp	.LBB20_26
.LBB20_16:                              # %cond.false38
	movq	$0, -48(%rbp)
.LBB20_17:                              # %cond.end39
	movb	-47(%rbp), %al
	movl	outcnt(%rip), %ecx
	leal	1(%rcx), %edx
	movl	%edx, outcnt(%rip)
	movb	%al, outbuf(%rcx)
	cmpl	$16381, outcnt(%rip)    # imm = 0x3FFD
	jbe	.LBB20_29
	jmp	.LBB20_36
.LBB20_25:                              # %cond.false69
	movq	$0, -64(%rbp)
.LBB20_26:                              # %cond.end70
	movb	-63(%rbp), %al
	movl	outcnt(%rip), %ecx
	leal	1(%rcx), %edx
	movl	%edx, outcnt(%rip)
	movb	%al, outbuf(%rcx)
	cmpl	$16384, outcnt(%rip)    # imm = 0x4000
	jne	.LBB20_28
# BB#27:                                # %if.then82
	callq	flush_outbuf
.LBB20_28:                              # %if.end84
	cmpl	$16381, outcnt(%rip)    # imm = 0x3FFD
	ja	.LBB20_36
.LBB20_29:                              # %if.then87
	movq	time_stamp(%rip), %rax
	movl	%eax, %ecx
	cmpq	%rcx, %rax
	jne	.LBB20_31
# BB#30:                                # %cond.true91
	movq	time_stamp(%rip), %rax
	movq	%rax, -136(%rbp)
	movq	%rax, -72(%rbp)
	jmp	.LBB20_32
.LBB20_36:                              # %if.else116
	movq	time_stamp(%rip), %rax
	movl	%eax, %ecx
	cmpq	%rcx, %rax
	jne	.LBB20_38
# BB#37:                                # %cond.true120
	movq	time_stamp(%rip), %rax
	movq	%rax, -152(%rbp)
	movq	%rax, -88(%rbp)
	jmp	.LBB20_39
.LBB20_31:                              # %cond.false92
	movq	$0, -72(%rbp)
.LBB20_32:                              # %cond.end93
	movb	-70(%rbp), %al
	movl	outcnt(%rip), %ecx
	leal	1(%rcx), %edx
	movl	%edx, outcnt(%rip)
	movb	%al, outbuf(%rcx)
	movq	time_stamp(%rip), %rax
	movl	%eax, %ecx
	cmpq	%rcx, %rax
	jne	.LBB20_34
# BB#33:                                # %cond.true104
	movq	time_stamp(%rip), %rax
	movq	%rax, -144(%rbp)
	movq	%rax, -80(%rbp)
	jmp	.LBB20_35
.LBB20_38:                              # %cond.false121
	movq	$0, -88(%rbp)
.LBB20_39:                              # %cond.end122
	movb	-86(%rbp), %al
	movl	outcnt(%rip), %ecx
	leal	1(%rcx), %edx
	movl	%edx, outcnt(%rip)
	movb	%al, outbuf(%rcx)
	cmpl	$16384, outcnt(%rip)    # imm = 0x4000
	jne	.LBB20_41
# BB#40:                                # %if.then132
	callq	flush_outbuf
.LBB20_41:                              # %if.end133
	movq	time_stamp(%rip), %rax
	movl	%eax, %ecx
	cmpq	%rcx, %rax
	jne	.LBB20_43
# BB#42:                                # %cond.true137
	movq	time_stamp(%rip), %rax
	movq	%rax, -160(%rbp)
	movq	%rax, -96(%rbp)
	jmp	.LBB20_44
.LBB20_34:                              # %cond.false105
	movq	$0, -80(%rbp)
.LBB20_35:                              # %cond.end106
	movb	-77(%rbp), %al
	movl	outcnt(%rip), %ecx
	leal	1(%rcx), %edx
	movl	%edx, outcnt(%rip)
	movb	%al, outbuf(%rcx)
	jmp	.LBB20_46
.LBB20_43:                              # %cond.false138
	movq	$0, -96(%rbp)
.LBB20_44:                              # %cond.end139
	movb	-93(%rbp), %al
	movl	outcnt(%rip), %ecx
	leal	1(%rcx), %edx
	movl	%edx, outcnt(%rip)
	movb	%al, outbuf(%rcx)
	cmpl	$16384, outcnt(%rip)    # imm = 0x4000
	jne	.LBB20_46
# BB#45:                                # %if.then151
	callq	flush_outbuf
.LBB20_46:                              # %if.end153
	xorl	%edi, %edi
	xorl	%esi, %esi
	callq	updcrc
	movq	%rax, crc(%rip)
	movl	-12(%rbp), %edi
	callq	bi_init
	leaq	-6(%rbp), %rdi
	movl	$method, %esi
	callq	ct_init
	movl	level(%rip), %edi
	leaq	-4(%rbp), %rsi
	callq	lm_init
	movb	-4(%rbp), %al
	movl	outcnt(%rip), %ecx
	leal	1(%rcx), %edx
	movl	%edx, outcnt(%rip)
	movb	%al, outbuf(%rcx)
	cmpl	$16384, outcnt(%rip)    # imm = 0x4000
	jne	.LBB20_48
# BB#47:                                # %if.then160
	callq	flush_outbuf
.LBB20_48:                              # %if.end161
	movl	outcnt(%rip), %eax
	leal	1(%rax), %ecx
	movl	%ecx, outcnt(%rip)
	movb	$3, outbuf(%rax)
	cmpl	$16384, outcnt(%rip)    # imm = 0x4000
	jne	.LBB20_50
# BB#49:                                # %if.then167
	callq	flush_outbuf
.LBB20_50:                              # %if.end168
	cmpl	$0, save_orig_name(%rip)
	je	.LBB20_55
# BB#51:                                # %if.then170
	movl	$ifname, %edi
	callq	base_name
	movq	%rax, -24(%rbp)
	.p2align	4, 0x90
.LBB20_52:                              # %do.body
                                        # =>This Inner Loop Header: Depth=1
	movq	-24(%rbp), %rax
	movzbl	(%rax), %eax
	movl	outcnt(%rip), %ecx
	leal	1(%rcx), %edx
	movl	%edx, outcnt(%rip)
	movb	%al, outbuf(%rcx)
	cmpl	$16384, outcnt(%rip)    # imm = 0x4000
	jne	.LBB20_54
# BB#53:                                # %if.then177
                                        #   in Loop: Header=BB20_52 Depth=1
	callq	flush_outbuf
.LBB20_54:                              # %do.cond
                                        #   in Loop: Header=BB20_52 Depth=1
	movq	-24(%rbp), %rax
	leaq	1(%rax), %rcx
	movq	%rcx, -24(%rbp)
	cmpb	$0, (%rax)
	jne	.LBB20_52
.LBB20_55:                              # %if.end180
	movl	outcnt(%rip), %eax
	movq	%rax, header_bytes(%rip)
	callq	deflate
	cmpl	$16381, outcnt(%rip)    # imm = 0x3FFD
	ja	.LBB20_57
# BB#56:                                # %if.then185
	movb	crc(%rip), %al
	movl	outcnt(%rip), %ecx
	leal	1(%rcx), %edx
	movl	%edx, outcnt(%rip)
	movb	%al, outbuf(%rcx)
	movb	crc+1(%rip), %al
	movl	outcnt(%rip), %ecx
	leal	1(%rcx), %edx
	movl	%edx, outcnt(%rip)
	movb	%al, outbuf(%rcx)
	cmpl	$16381, outcnt(%rip)    # imm = 0x3FFD
	jbe	.LBB20_62
	jmp	.LBB20_63
.LBB20_57:                              # %if.else200
	movb	crc(%rip), %al
	movl	outcnt(%rip), %ecx
	leal	1(%rcx), %edx
	movl	%edx, outcnt(%rip)
	movb	%al, outbuf(%rcx)
	cmpl	$16384, outcnt(%rip)    # imm = 0x4000
	jne	.LBB20_59
# BB#58:                                # %if.then209
	callq	flush_outbuf
.LBB20_59:                              # %if.end210
	movb	crc+1(%rip), %al
	movl	outcnt(%rip), %ecx
	leal	1(%rcx), %edx
	movl	%edx, outcnt(%rip)
	movb	%al, outbuf(%rcx)
	cmpl	$16384, outcnt(%rip)    # imm = 0x4000
	jne	.LBB20_61
# BB#60:                                # %if.then221
	callq	flush_outbuf
.LBB20_61:                              # %if.end223
	cmpl	$16381, outcnt(%rip)    # imm = 0x3FFD
	ja	.LBB20_63
.LBB20_62:                              # %if.then226
	movb	crc+2(%rip), %al
	movl	outcnt(%rip), %ecx
	leal	1(%rcx), %edx
	movl	%edx, outcnt(%rip)
	movb	%al, outbuf(%rcx)
	movb	crc+3(%rip), %al
	movl	outcnt(%rip), %ecx
	leal	1(%rcx), %edx
	movl	%edx, outcnt(%rip)
	movb	%al, outbuf(%rcx)
	cmpl	$16381, outcnt(%rip)    # imm = 0x3FFD
	jbe	.LBB20_68
	jmp	.LBB20_69
.LBB20_63:                              # %if.else241
	movb	crc+2(%rip), %al
	movl	outcnt(%rip), %ecx
	leal	1(%rcx), %edx
	movl	%edx, outcnt(%rip)
	movb	%al, outbuf(%rcx)
	cmpl	$16384, outcnt(%rip)    # imm = 0x4000
	jne	.LBB20_65
# BB#64:                                # %if.then250
	callq	flush_outbuf
.LBB20_65:                              # %if.end251
	movb	crc+3(%rip), %al
	movl	outcnt(%rip), %ecx
	leal	1(%rcx), %edx
	movl	%edx, outcnt(%rip)
	movb	%al, outbuf(%rcx)
	cmpl	$16384, outcnt(%rip)    # imm = 0x4000
	jne	.LBB20_67
# BB#66:                                # %if.then262
	callq	flush_outbuf
.LBB20_67:                              # %if.end264
	cmpl	$16381, outcnt(%rip)    # imm = 0x3FFD
	ja	.LBB20_69
.LBB20_68:                              # %if.then267
	movb	bytes_in(%rip), %al
	movl	outcnt(%rip), %ecx
	leal	1(%rcx), %edx
	movl	%edx, outcnt(%rip)
	movb	%al, outbuf(%rcx)
	movb	bytes_in+1(%rip), %al
	movl	outcnt(%rip), %ecx
	leal	1(%rcx), %edx
	movl	%edx, outcnt(%rip)
	movb	%al, outbuf(%rcx)
	cmpl	$16381, outcnt(%rip)    # imm = 0x3FFD
	jbe	.LBB20_74
	jmp	.LBB20_75
.LBB20_69:                              # %if.else282
	movb	bytes_in(%rip), %al
	movl	outcnt(%rip), %ecx
	leal	1(%rcx), %edx
	movl	%edx, outcnt(%rip)
	movb	%al, outbuf(%rcx)
	cmpl	$16384, outcnt(%rip)    # imm = 0x4000
	jne	.LBB20_71
# BB#70:                                # %if.then291
	callq	flush_outbuf
.LBB20_71:                              # %if.end292
	movb	bytes_in+1(%rip), %al
	movl	outcnt(%rip), %ecx
	leal	1(%rcx), %edx
	movl	%edx, outcnt(%rip)
	movb	%al, outbuf(%rcx)
	cmpl	$16384, outcnt(%rip)    # imm = 0x4000
	jne	.LBB20_73
# BB#72:                                # %if.then303
	callq	flush_outbuf
.LBB20_73:                              # %if.end305
	cmpl	$16381, outcnt(%rip)    # imm = 0x3FFD
	ja	.LBB20_75
.LBB20_74:                              # %if.then308
	movb	bytes_in+2(%rip), %al
	movl	outcnt(%rip), %ecx
	leal	1(%rcx), %edx
	movl	%edx, outcnt(%rip)
	movb	%al, outbuf(%rcx)
	movb	bytes_in+3(%rip), %al
	movl	outcnt(%rip), %ecx
	leal	1(%rcx), %edx
	movl	%edx, outcnt(%rip)
	movb	%al, outbuf(%rcx)
	jmp	.LBB20_79
.LBB20_75:                              # %if.else323
	movb	bytes_in+2(%rip), %al
	movl	outcnt(%rip), %ecx
	leal	1(%rcx), %edx
	movl	%edx, outcnt(%rip)
	movb	%al, outbuf(%rcx)
	cmpl	$16384, outcnt(%rip)    # imm = 0x4000
	jne	.LBB20_77
# BB#76:                                # %if.then332
	callq	flush_outbuf
.LBB20_77:                              # %if.end333
	movb	bytes_in+3(%rip), %al
	movl	outcnt(%rip), %ecx
	leal	1(%rcx), %edx
	movl	%edx, outcnt(%rip)
	movb	%al, outbuf(%rcx)
	cmpl	$16384, outcnt(%rip)    # imm = 0x4000
	jne	.LBB20_79
# BB#78:                                # %if.then344
	callq	flush_outbuf
.LBB20_79:                              # %if.end346
	addq	$16, header_bytes(%rip)
	callq	flush_outbuf
	xorl	%eax, %eax
	addq	$160, %rsp
	popq	%rbp
	retq
.Lfunc_end20:
	.size	zip, .Lfunc_end20-zip
	.cfi_endproc

	.globl	main
	.p2align	4, 0x90
	.type	main,@function
main:                                   # @main
	.cfi_startproc
# BB#0:                                 # %entry
	pushq	%rbp
.Lcfi68:
	.cfi_def_cfa_offset 16
.Lcfi69:
	.cfi_offset %rbp, -16
	movq	%rsp, %rbp
.Lcfi70:
	.cfi_def_cfa_register %rbp
	subq	$32, %rsp
	movl	$0, -28(%rbp)
	movl	%edi, -4(%rbp)
	movq	%rsi, -24(%rbp)
	movq	(%rsi), %rdi
	callq	base_name
	movq	%rax, progname(%rip)
	movq	%rax, %rdi
	callq	strlen
	movl	%eax, -12(%rbp)
	cmpl	$5, %eax
	jl	.LBB21_3
# BB#1:                                 # %land.lhs.true
	movq	progname(%rip), %rax
	movslq	-12(%rbp), %rcx
	leaq	-4(%rax,%rcx), %rdi
	movl	$.L.str.38, %esi
	callq	strcmp
	testl	%eax, %eax
	jne	.LBB21_3
# BB#2:                                 # %if.then
	movq	progname(%rip), %rax
	movslq	-12(%rbp), %rcx
	movb	$0, -4(%rax,%rcx)
.LBB21_3:                               # %if.end
	leaq	-4(%rbp), %rdi
	leaq	-24(%rbp), %rsi
	movl	$.L.str.39, %edx
	callq	add_envopt
	movq	%rax, env(%rip)
	testq	%rax, %rax
	je	.LBB21_5
# BB#4:                                 # %if.then11
	movq	-24(%rbp), %rax
	movq	%rax, args(%rip)
.LBB21_5:                               # %if.end12
	movl	$2, %edi
	movl	$1, %esi
	callq	signal
	xorl	%ecx, %ecx
	cmpq	$1, %rax
	setne	%cl
	movl	%ecx, foreground(%rip)
	je	.LBB21_7
# BB#6:                                 # %if.then16
	movl	$2, %edi
	movl	$abort_gzip_signal, %esi
	callq	signal
.LBB21_7:                               # %if.end18
	movl	$15, %edi
	movl	$1, %esi
	callq	signal
	cmpq	$1, %rax
	je	.LBB21_9
# BB#8:                                 # %if.then22
	movl	$15, %edi
	movl	$abort_gzip_signal, %esi
	callq	signal
.LBB21_9:                               # %if.end24
	movl	$1, %edi
	movl	$1, %esi
	callq	signal
	cmpq	$1, %rax
	je	.LBB21_11
# BB#10:                                # %if.then28
	movl	$1, %edi
	movl	$abort_gzip_signal, %esi
	callq	signal
.LBB21_11:                              # %if.end30
	movq	progname(%rip), %rdi
	movl	$.L.str.40, %esi
	movl	$2, %edx
	callq	strncmp
	testl	%eax, %eax
	je	.LBB21_16
# BB#12:                                # %lor.lhs.false
	movq	progname(%rip), %rdi
	movl	$.L.str.41, %esi
	movl	$3, %edx
	callq	strncmp
	testl	%eax, %eax
	je	.LBB21_16
# BB#13:                                # %if.else
	movq	progname(%rip), %rdi
	incq	%rdi
	movl	$.L.str.42, %esi
	callq	strcmp
	testl	%eax, %eax
	je	.LBB21_15
# BB#14:                                # %lor.lhs.false42
	movq	progname(%rip), %rdi
	movl	$.L.str.43, %esi
	callq	strcmp
	testl	%eax, %eax
	jne	.LBB21_17
.LBB21_15:                              # %if.then46
	movl	$1, to_stdout(%rip)
.LBB21_16:                              # %if.end48
	movl	$1, decompress(%rip)
.LBB21_17:                              # %if.end48
	movq	$.L.str.44, z_suffix(%rip)
	movl	$.L.str.44, %edi
	callq	strlen
	movq	%rax, z_len(%rip)
	jmp	.LBB21_18
	.p2align	4, 0x90
.LBB21_46:                              # %sw.bb87
                                        #   in Loop: Header=BB21_18 Depth=1
	movl	-8(%rbp), %eax
	addl	$-48, %eax
	movl	%eax, level(%rip)
.LBB21_18:                              # %while.cond
                                        # =>This Loop Header: Depth=1
                                        #     Child Loop BB21_23 Depth 2
	movl	-4(%rbp), %edi
	movq	-24(%rbp), %rsi
	movl	$.L.str.45, %edx
	movl	$longopts, %ecx
	xorl	%r8d, %r8d
	callq	getopt_long
	movl	%eax, -8(%rbp)
	cmpl	$-1, %eax
	je	.LBB21_49
# BB#19:                                # %while.body
                                        #   in Loop: Header=BB21_18 Depth=1
	movl	-8(%rbp), %eax
	addl	$-49, %eax
	cmpl	$69, %eax
	ja	.LBB21_48
# BB#20:                                # %while.body
                                        #   in Loop: Header=BB21_18 Depth=1
	jmpq	*.LJTI21_0(,%rax,8)
.LBB21_31:                              # %sw.bb69
                                        #   in Loop: Header=BB21_18 Depth=1
	callq	help
	jmp	.LBB21_32
.LBB21_34:                              # %sw.bb71
                                        #   in Loop: Header=BB21_18 Depth=1
	callq	license
	jmp	.LBB21_32
.LBB21_36:                              # %sw.bb73
                                        #   in Loop: Header=BB21_18 Depth=1
	movl	$0, no_time(%rip)
	jmp	.LBB21_18
.LBB21_38:                              # %sw.bb75
                                        #   in Loop: Header=BB21_18 Depth=1
	movl	$0, no_time(%rip)
	movl	$0, no_name(%rip)
	jmp	.LBB21_18
.LBB21_41:                              # %sw.bb78
                                        #   in Loop: Header=BB21_18 Depth=1
	movl	$1, rsync(%rip)
	jmp	.LBB21_18
.LBB21_42:                              # %sw.bb79
                                        #   in Loop: Header=BB21_18 Depth=1
	movq	optarg(%rip), %rdi
	callq	strlen
	movq	%rax, z_len(%rip)
	movq	optarg(%rip), %rax
	movq	%rax, z_suffix(%rip)
	jmp	.LBB21_18
.LBB21_45:                              # %sw.bb84
                                        #   in Loop: Header=BB21_18 Depth=1
	callq	version
.LBB21_32:                              # %while.cond
                                        #   in Loop: Header=BB21_18 Depth=1
	xorl	%edi, %edi
	callq	do_exit
	jmp	.LBB21_18
.LBB21_47:                              # %sw.bb85
                                        #   in Loop: Header=BB21_18 Depth=1
	movq	stderr(%rip), %rdi
	movq	progname(%rip), %rdx
	movl	$.L.str.47, %esi
	xorl	%eax, %eax
	callq	fprintf
.LBB21_48:                              # %sw.default
                                        #   in Loop: Header=BB21_18 Depth=1
	callq	usage
	movl	$1, %edi
	callq	do_exit
	jmp	.LBB21_18
.LBB21_21:                              # %sw.bb
                                        #   in Loop: Header=BB21_18 Depth=1
	movl	$1, ascii(%rip)
	jmp	.LBB21_18
.LBB21_22:                              # %sw.bb53
                                        #   in Loop: Header=BB21_18 Depth=1
	movq	optarg(%rip), %rdi
	callq	atoi
	movl	%eax, maxbits(%rip)
	jmp	.LBB21_23
	.p2align	4, 0x90
.LBB21_27:                              # %for.inc
                                        #   in Loop: Header=BB21_23 Depth=2
	incq	optarg(%rip)
.LBB21_23:                              # %for.cond
                                        #   Parent Loop BB21_18 Depth=1
                                        # =>  This Inner Loop Header: Depth=2
	movq	optarg(%rip), %rax
	cmpb	$0, (%rax)
	je	.LBB21_18
# BB#24:                                # %for.body
                                        #   in Loop: Header=BB21_23 Depth=2
	movq	optarg(%rip), %rax
	movsbl	(%rax), %eax
	cmpl	$48, %eax
	jl	.LBB21_26
# BB#25:                                # %land.lhs.true59
                                        #   in Loop: Header=BB21_23 Depth=2
	movq	optarg(%rip), %rax
	movsbl	(%rax), %eax
	cmpl	$58, %eax
	jl	.LBB21_27
.LBB21_26:                              # %if.then63
                                        #   in Loop: Header=BB21_23 Depth=2
	movq	stderr(%rip), %rdi
	movq	progname(%rip), %rdx
	movl	$.L.str.46, %esi
	xorl	%eax, %eax
	callq	fprintf
	callq	usage
	movl	$1, %edi
	callq	do_exit
	jmp	.LBB21_27
.LBB21_28:                              # %sw.bb66
                                        #   in Loop: Header=BB21_18 Depth=1
	movl	$1, to_stdout(%rip)
	jmp	.LBB21_18
.LBB21_29:                              # %sw.bb67
                                        #   in Loop: Header=BB21_18 Depth=1
	movl	$1, decompress(%rip)
	jmp	.LBB21_18
.LBB21_30:                              # %sw.bb68
                                        #   in Loop: Header=BB21_18 Depth=1
	incl	force(%rip)
	jmp	.LBB21_18
.LBB21_33:                              # %sw.bb70
                                        #   in Loop: Header=BB21_18 Depth=1
	movl	$1, to_stdout(%rip)
	movl	$1, decompress(%rip)
	movl	$1, list(%rip)
	jmp	.LBB21_18
.LBB21_35:                              # %sw.bb72
                                        #   in Loop: Header=BB21_18 Depth=1
	movl	$1, no_time(%rip)
	jmp	.LBB21_18
.LBB21_37:                              # %sw.bb74
                                        #   in Loop: Header=BB21_18 Depth=1
	movl	$1, no_time(%rip)
	movl	$1, no_name(%rip)
	jmp	.LBB21_18
.LBB21_39:                              # %sw.bb76
                                        #   in Loop: Header=BB21_18 Depth=1
	movl	$1, quiet(%rip)
	movl	$0, verbose(%rip)
	jmp	.LBB21_18
.LBB21_40:                              # %sw.bb77
                                        #   in Loop: Header=BB21_18 Depth=1
	movl	$1, recursive(%rip)
	jmp	.LBB21_18
.LBB21_43:                              # %sw.bb81
                                        #   in Loop: Header=BB21_18 Depth=1
	movl	$1, to_stdout(%rip)
	movl	$1, decompress(%rip)
	movl	$1, test(%rip)
	jmp	.LBB21_18
.LBB21_44:                              # %sw.bb82
                                        #   in Loop: Header=BB21_18 Depth=1
	incl	verbose(%rip)
	movl	$0, quiet(%rip)
	jmp	.LBB21_18
.LBB21_49:                              # %while.end
	cmpl	$0, quiet(%rip)
	je	.LBB21_52
# BB#50:                                # %land.lhs.true90
	movl	$13, %edi
	movl	$1, %esi
	callq	signal
	cmpq	$1, %rax
	je	.LBB21_52
# BB#51:                                # %if.then94
	movl	$13, %edi
	movl	$abort_gzip_signal, %esi
	callq	signal
.LBB21_52:                              # %if.end96
	cmpl	$0, no_time(%rip)
	jns	.LBB21_54
# BB#53:                                # %if.then99
	movl	decompress(%rip), %eax
	movl	%eax, no_time(%rip)
.LBB21_54:                              # %if.end100
	cmpl	$0, no_name(%rip)
	jns	.LBB21_56
# BB#55:                                # %if.then103
	movl	decompress(%rip), %eax
	movl	%eax, no_name(%rip)
.LBB21_56:                              # %if.end104
	movl	-4(%rbp), %eax
	subl	optind(%rip), %eax
	movl	%eax, -16(%rbp)
	cmpl	$0, ascii(%rip)
	je	.LBB21_59
# BB#57:                                # %land.lhs.true107
	cmpl	$0, quiet(%rip)
	jne	.LBB21_59
# BB#58:                                # %if.then109
	movq	stderr(%rip), %rdi
	movq	progname(%rip), %rdx
	movl	$.L.str.48, %esi
	xorl	%eax, %eax
	callq	fprintf
.LBB21_59:                              # %if.end111
	cmpq	$0, z_len(%rip)
	jne	.LBB21_61
# BB#60:                                # %land.lhs.true114
	cmpl	$0, decompress(%rip)
	je	.LBB21_62
.LBB21_61:                              # %lor.lhs.false116
	cmpq	$31, z_len(%rip)
	jb	.LBB21_63
.LBB21_62:                              # %if.then119
	movq	stderr(%rip), %rdi
	movq	progname(%rip), %rdx
	movq	z_suffix(%rip), %rcx
	movl	$.L.str.49, %esi
	xorl	%eax, %eax
	callq	fprintf
	movl	$1, %edi
	callq	do_exit
.LBB21_63:                              # %if.end121
	cmpl	$0, do_lzw(%rip)
	je	.LBB21_66
# BB#64:                                # %land.lhs.true123
	cmpl	$0, decompress(%rip)
	jne	.LBB21_66
# BB#65:                                # %if.then125
	movq	$lzw, work(%rip)
.LBB21_66:                              # %if.end126
	cmpl	$0, -16(%rbp)
	je	.LBB21_73
# BB#67:                                # %if.then129
	cmpl	$0, to_stdout(%rip)
	je	.LBB21_71
# BB#68:                                # %land.lhs.true131
	cmpl	$0, test(%rip)
	jne	.LBB21_71
# BB#69:                                # %land.lhs.true133
	cmpl	$0, list(%rip)
	jne	.LBB21_71
# BB#70:                                # %land.lhs.true135
	cmpl	$0, decompress(%rip)
	jmp	.LBB21_71
	.p2align	4, 0x90
.LBB21_72:                              # %while.body144
                                        #   in Loop: Header=BB21_71 Depth=1
	movq	-24(%rbp), %rax
	movslq	optind(%rip), %rcx
	leal	1(%rcx), %edx
	movl	%edx, optind(%rip)
	movq	(%rax,%rcx,8), %rdi
	callq	treat_file
.LBB21_71:                              # %while.cond141
                                        # =>This Inner Loop Header: Depth=1
	movl	optind(%rip), %eax
	cmpl	-4(%rbp), %eax
	jl	.LBB21_72
	jmp	.LBB21_74
.LBB21_73:                              # %if.else149
	callq	treat_stdin
.LBB21_74:                              # %if.end150
	cmpl	$0, list(%rip)
	je	.LBB21_78
# BB#75:                                # %land.lhs.true152
	cmpl	$0, quiet(%rip)
	jne	.LBB21_78
# BB#76:                                # %land.lhs.true154
	cmpl	$2, -16(%rbp)
	jl	.LBB21_78
# BB#77:                                # %if.then157
	movl	$-1, %edi
	movl	$-1, %esi
	callq	do_list
.LBB21_78:                              # %if.end158
	movl	exit_code(%rip), %edi
	callq	do_exit
	movl	exit_code(%rip), %eax
	addq	$32, %rsp
	popq	%rbp
	retq
.Lfunc_end21:
	.size	main, .Lfunc_end21-main
	.cfi_endproc
	.section	.rodata,"a",@progbits
	.p2align	3
.LJTI21_0:
	.quad	.LBB21_46
	.quad	.LBB21_46
	.quad	.LBB21_46
	.quad	.LBB21_46
	.quad	.LBB21_46
	.quad	.LBB21_46
	.quad	.LBB21_46
	.quad	.LBB21_46
	.quad	.LBB21_46
	.quad	.LBB21_48
	.quad	.LBB21_48
	.quad	.LBB21_48
	.quad	.LBB21_48
	.quad	.LBB21_48
	.quad	.LBB21_31
	.quad	.LBB21_48
	.quad	.LBB21_48
	.quad	.LBB21_48
	.quad	.LBB21_48
	.quad	.LBB21_48
	.quad	.LBB21_48
	.quad	.LBB21_48
	.quad	.LBB21_48
	.quad	.LBB21_31
	.quad	.LBB21_48
	.quad	.LBB21_48
	.quad	.LBB21_48
	.quad	.LBB21_34
	.quad	.LBB21_36
	.quad	.LBB21_38
	.quad	.LBB21_48
	.quad	.LBB21_48
	.quad	.LBB21_48
	.quad	.LBB21_41
	.quad	.LBB21_42
	.quad	.LBB21_48
	.quad	.LBB21_48
	.quad	.LBB21_45
	.quad	.LBB21_48
	.quad	.LBB21_48
	.quad	.LBB21_48
	.quad	.LBB21_47
	.quad	.LBB21_48
	.quad	.LBB21_48
	.quad	.LBB21_48
	.quad	.LBB21_48
	.quad	.LBB21_48
	.quad	.LBB21_48
	.quad	.LBB21_21
	.quad	.LBB21_22
	.quad	.LBB21_28
	.quad	.LBB21_29
	.quad	.LBB21_48
	.quad	.LBB21_30
	.quad	.LBB21_48
	.quad	.LBB21_31
	.quad	.LBB21_48
	.quad	.LBB21_48
	.quad	.LBB21_48
	.quad	.LBB21_33
	.quad	.LBB21_35
	.quad	.LBB21_37
	.quad	.LBB21_48
	.quad	.LBB21_48
	.quad	.LBB21_39
	.quad	.LBB21_40
	.quad	.LBB21_48
	.quad	.LBB21_43
	.quad	.LBB21_48
	.quad	.LBB21_44

	.text
	.globl	base_name
	.p2align	4, 0x90
	.type	base_name,@function
base_name:                              # @base_name
	.cfi_startproc
# BB#0:                                 # %entry
	pushq	%rbp
.Lcfi71:
	.cfi_def_cfa_offset 16
.Lcfi72:
	.cfi_offset %rbp, -16
	movq	%rsp, %rbp
.Lcfi73:
	.cfi_def_cfa_register %rbp
	subq	$16, %rsp
	movq	%rdi, -8(%rbp)
	movl	$47, %esi
	callq	strrchr
	movq	%rax, -16(%rbp)
	testq	%rax, %rax
	je	.LBB22_2
# BB#1:                                 # %if.then
	movq	-16(%rbp), %rax
	incq	%rax
	movq	%rax, -8(%rbp)
.LBB22_2:                               # %if.end
	movq	-8(%rbp), %rax
	addq	$16, %rsp
	popq	%rbp
	retq
.Lfunc_end22:
	.size	base_name, .Lfunc_end22-base_name
	.cfi_endproc

	.globl	add_envopt
	.p2align	4, 0x90
	.type	add_envopt,@function
add_envopt:                             # @add_envopt
	.cfi_startproc
# BB#0:                                 # %entry
	pushq	%rbp
.Lcfi74:
	.cfi_def_cfa_offset 16
.Lcfi75:
	.cfi_offset %rbp, -16
	movq	%rsp, %rbp
.Lcfi76:
	.cfi_def_cfa_register %rbp
	subq	$64, %rsp
	movq	%rdi, -48(%rbp)
	movq	%rsi, -64(%rbp)
	movq	%rdx, -32(%rbp)
	movq	-48(%rbp), %rax
	movl	(%rax), %eax
	movl	%eax, -16(%rbp)
	movl	$0, -12(%rbp)
	movq	-32(%rbp), %rdi
	callq	getenv
	movq	%rax, -32(%rbp)
	testq	%rax, %rax
	je	.LBB23_21
# BB#1:                                 # %if.end
	movq	-32(%rbp), %rdi
	callq	strlen
	leal	1(%rax), %edi
	callq	xmalloc
	movq	%rax, -8(%rbp)
	movq	-32(%rbp), %rsi
	movq	%rax, %rdi
	callq	strcpy
	movq	%rax, -32(%rbp)
	movq	%rax, -8(%rbp)
	jmp	.LBB23_3
	.p2align	4, 0x90
.LBB23_2:                               # %for.inc
                                        #   in Loop: Header=BB23_3 Depth=1
	incl	-12(%rbp)
.LBB23_3:                               # %for.cond
                                        # =>This Inner Loop Header: Depth=1
	movq	-8(%rbp), %rax
	cmpb	$0, (%rax)
	je	.LBB23_7
# BB#4:                                 # %for.body
                                        #   in Loop: Header=BB23_3 Depth=1
	movq	-8(%rbp), %rdi
	movl	$.L.str.71, %esi
	callq	strspn
	movq	-8(%rbp), %rcx
	leaq	(%rcx,%rax), %rdx
	movq	%rdx, -8(%rbp)
	cmpb	$0, (%rcx,%rax)
	je	.LBB23_7
# BB#5:                                 # %if.end9
                                        #   in Loop: Header=BB23_3 Depth=1
	movq	-8(%rbp), %rdi
	movl	$.L.str.71, %esi
	callq	strcspn
	movq	-8(%rbp), %rcx
	leaq	(%rcx,%rax), %rdx
	movq	%rdx, -8(%rbp)
	cmpb	$0, (%rcx,%rax)
	je	.LBB23_2
# BB#6:                                 # %if.then13
                                        #   in Loop: Header=BB23_3 Depth=1
	movq	-8(%rbp), %rax
	leaq	1(%rax), %rcx
	movq	%rcx, -8(%rbp)
	movb	$0, (%rax)
	jmp	.LBB23_2
.LBB23_7:                               # %for.end
	cmpl	$0, -12(%rbp)
	je	.LBB23_20
# BB#8:                                 # %if.end18
	movl	-12(%rbp), %eax
	movq	-48(%rbp), %rcx
	addl	%eax, (%rcx)
	movq	-48(%rbp), %rax
	movslq	(%rax), %rdi
	incq	%rdi
	movl	$8, %esi
	callq	calloc
	movq	%rax, -24(%rbp)
	testq	%rax, %rax
	jne	.LBB23_10
# BB#9:                                 # %if.then25
	movl	$.L.str.62, %edi
	callq	error
.LBB23_10:                              # %if.end26
	movq	-64(%rbp), %rax
	movq	(%rax), %rax
	movq	%rax, -40(%rbp)
	movq	-24(%rbp), %rax
	movq	-64(%rbp), %rcx
	movq	%rax, (%rcx)
	movl	-16(%rbp), %eax
	leal	-1(%rax), %ecx
	movl	%ecx, -16(%rbp)
	testl	%eax, %eax
	jns	.LBB23_12
# BB#11:                                # %if.then29
	movl	$.L.str.72, %edi
	callq	error
.LBB23_12:                              # %if.end30
	movq	-40(%rbp), %rax
	leaq	8(%rax), %rcx
	movq	%rcx, -40(%rbp)
	movq	(%rax), %rax
	movq	-24(%rbp), %rcx
	leaq	8(%rcx), %rdx
	movq	%rdx, -24(%rbp)
	movq	%rax, (%rcx)
	movq	-32(%rbp), %rax
	movq	%rax, -8(%rbp)
	cmpl	$0, -12(%rbp)
	jle	.LBB23_17
	.p2align	4, 0x90
.LBB23_14:                              # %for.body36
                                        # =>This Loop Header: Depth=1
                                        #     Child Loop BB23_15 Depth 2
	movq	-8(%rbp), %rdi
	movl	$.L.str.71, %esi
	callq	strspn
	addq	-8(%rbp), %rax
	movq	%rax, -8(%rbp)
	movq	-24(%rbp), %rcx
	leaq	8(%rcx), %rdx
	movq	%rdx, -24(%rbp)
	movq	%rax, (%rcx)
	.p2align	4, 0x90
.LBB23_15:                              # %while.cond
                                        #   Parent Loop BB23_14 Depth=1
                                        # =>  This Inner Loop Header: Depth=2
	movq	-8(%rbp), %rax
	leaq	1(%rax), %rcx
	movq	%rcx, -8(%rbp)
	cmpb	$0, (%rax)
	jne	.LBB23_15
# BB#13:                                # %for.inc42
                                        #   in Loop: Header=BB23_14 Depth=1
	decl	-12(%rbp)
	cmpl	$0, -12(%rbp)
	jg	.LBB23_14
	jmp	.LBB23_17
	.p2align	4, 0x90
.LBB23_16:                              # %while.body48
                                        #   in Loop: Header=BB23_17 Depth=1
	movq	-40(%rbp), %rax
	leaq	8(%rax), %rcx
	movq	%rcx, -40(%rbp)
	movq	(%rax), %rax
	movq	-24(%rbp), %rcx
	leaq	8(%rcx), %rdx
	movq	%rdx, -24(%rbp)
	movq	%rax, (%rcx)
.LBB23_17:                              # %while.cond45
                                        # =>This Inner Loop Header: Depth=1
	movl	-16(%rbp), %eax
	leal	-1(%rax), %ecx
	movl	%ecx, -16(%rbp)
	testl	%eax, %eax
	jne	.LBB23_16
# BB#18:                                # %while.end51
	movq	-24(%rbp), %rax
	movq	$0, (%rax)
	movq	-32(%rbp), %rax
	movq	%rax, -56(%rbp)
	jmp	.LBB23_22
.LBB23_20:                              # %if.then17
	movq	-32(%rbp), %rdi
	callq	free
.LBB23_21:                              # %return
	movq	$0, -56(%rbp)
.LBB23_22:                              # %return
	movq	-56(%rbp), %rax
	addq	$64, %rsp
	popq	%rbp
	retq
.Lfunc_end23:
	.size	add_envopt, .Lfunc_end23-add_envopt
	.cfi_endproc

	.globl	abort_gzip_signal
	.p2align	4, 0x90
	.type	abort_gzip_signal,@function
abort_gzip_signal:                      # @abort_gzip_signal
	.cfi_startproc
# BB#0:                                 # %entry
	pushq	%rbp
.Lcfi77:
	.cfi_def_cfa_offset 16
.Lcfi78:
	.cfi_offset %rbp, -16
	movq	%rsp, %rbp
.Lcfi79:
	.cfi_def_cfa_register %rbp
	callq	do_remove
	movl	$1, %edi
	callq	_exit
.Lfunc_end24:
	.size	abort_gzip_signal, .Lfunc_end24-abort_gzip_signal
	.cfi_endproc

	.globl	getopt_long
	.p2align	4, 0x90
	.type	getopt_long,@function
getopt_long:                            # @getopt_long
	.cfi_startproc
# BB#0:                                 # %entry
	pushq	%rbp
.Lcfi80:
	.cfi_def_cfa_offset 16
.Lcfi81:
	.cfi_offset %rbp, -16
	movq	%rsp, %rbp
.Lcfi82:
	.cfi_def_cfa_register %rbp
	subq	$48, %rsp
	movl	%edi, -4(%rbp)
	movq	%rsi, -32(%rbp)
	movq	%rdx, -24(%rbp)
	movq	%rcx, -16(%rbp)
	movq	%r8, -40(%rbp)
	movl	-4(%rbp), %edi
	movq	-32(%rbp), %rsi
	movq	-24(%rbp), %rdx
	movq	-16(%rbp), %rcx
	xorl	%r9d, %r9d
	callq	_getopt_internal
	addq	$48, %rsp
	popq	%rbp
	retq
.Lfunc_end25:
	.size	getopt_long, .Lfunc_end25-getopt_long
	.cfi_endproc

	.p2align	4, 0x90
	.type	usage,@function
usage:                                  # @usage
	.cfi_startproc
# BB#0:                                 # %entry
	pushq	%rbp
.Lcfi83:
	.cfi_def_cfa_offset 16
.Lcfi84:
	.cfi_offset %rbp, -16
	movq	%rsp, %rbp
.Lcfi85:
	.cfi_def_cfa_register %rbp
	movq	progname(%rip), %rsi
	movl	$.L.str.84, %edi
	movl	$.L.str.8, %edx
	movl	$.L.str.85, %ecx
	xorl	%eax, %eax
	callq	printf
	popq	%rbp
	retq
.Lfunc_end26:
	.size	usage, .Lfunc_end26-usage
	.cfi_endproc

	.p2align	4, 0x90
	.type	do_exit,@function
do_exit:                                # @do_exit
	.cfi_startproc
# BB#0:                                 # %entry
	pushq	%rbp
.Lcfi86:
	.cfi_def_cfa_offset 16
.Lcfi87:
	.cfi_offset %rbp, -16
	movq	%rsp, %rbp
.Lcfi88:
	.cfi_def_cfa_register %rbp
	subq	$16, %rsp
	movl	%edi, -4(%rbp)
	cmpl	$0, do_exit.in_exit(%rip)
	jne	.LBB27_5
# BB#1:                                 # %if.end
	movl	$1, do_exit.in_exit(%rip)
	cmpq	$0, env(%rip)
	je	.LBB27_3
# BB#2:                                 # %if.then1
	movq	env(%rip), %rdi
	callq	free
	movq	$0, env(%rip)
.LBB27_3:                               # %if.end2
	cmpq	$0, args(%rip)
	je	.LBB27_5
# BB#4:                                 # %if.then4
	movq	args(%rip), %rdi
	callq	free
	movq	$0, args(%rip)
.LBB27_5:                               # %if.then
	movl	-4(%rbp), %edi
	callq	exit
.Lfunc_end27:
	.size	do_exit, .Lfunc_end27-do_exit
	.cfi_endproc

	.p2align	4, 0x90
	.type	help,@function
help:                                   # @help
	.cfi_startproc
# BB#0:                                 # %entry
	pushq	%rbp
.Lcfi89:
	.cfi_def_cfa_offset 16
.Lcfi90:
	.cfi_offset %rbp, -16
	movq	%rsp, %rbp
.Lcfi91:
	.cfi_def_cfa_register %rbp
	subq	$16, %rsp
	movq	$help.help_msg, -8(%rbp)
	movq	progname(%rip), %rsi
	movl	$.L.str.105, %edi
	movl	$.L.str.106, %edx
	movl	$.L.str.107, %ecx
	xorl	%eax, %eax
	callq	printf
	callq	usage
	jmp	.LBB28_1
	.p2align	4, 0x90
.LBB28_2:                               # %while.body
                                        #   in Loop: Header=BB28_1 Depth=1
	movq	-8(%rbp), %rax
	leaq	8(%rax), %rcx
	movq	%rcx, -8(%rbp)
	movq	(%rax), %rsi
	movl	$.L.str.108, %edi
	xorl	%eax, %eax
	callq	printf
.LBB28_1:                               # %while.cond
                                        # =>This Inner Loop Header: Depth=1
	movq	-8(%rbp), %rax
	cmpq	$0, (%rax)
	jne	.LBB28_2
# BB#3:                                 # %while.end
	addq	$16, %rsp
	popq	%rbp
	retq
.Lfunc_end28:
	.size	help, .Lfunc_end28-help
	.cfi_endproc

	.p2align	4, 0x90
	.type	license,@function
license:                                # @license
	.cfi_startproc
# BB#0:                                 # %entry
	pushq	%rbp
.Lcfi92:
	.cfi_def_cfa_offset 16
.Lcfi93:
	.cfi_offset %rbp, -16
	movq	%rsp, %rbp
.Lcfi94:
	.cfi_def_cfa_register %rbp
	subq	$16, %rsp
	movq	$license_msg, -8(%rbp)
	movq	progname(%rip), %rsi
	movl	$.L.str.105, %edi
	movl	$.L.str.106, %edx
	movl	$.L.str.107, %ecx
	xorl	%eax, %eax
	callq	printf
	jmp	.LBB29_1
	.p2align	4, 0x90
.LBB29_2:                               # %while.body
                                        #   in Loop: Header=BB29_1 Depth=1
	movq	-8(%rbp), %rax
	leaq	8(%rax), %rcx
	movq	%rcx, -8(%rbp)
	movq	(%rax), %rsi
	movl	$.L.str.108, %edi
	xorl	%eax, %eax
	callq	printf
.LBB29_1:                               # %while.cond
                                        # =>This Inner Loop Header: Depth=1
	movq	-8(%rbp), %rax
	cmpq	$0, (%rax)
	jne	.LBB29_2
# BB#3:                                 # %while.end
	addq	$16, %rsp
	popq	%rbp
	retq
.Lfunc_end29:
	.size	license, .Lfunc_end29-license
	.cfi_endproc

	.p2align	4, 0x90
	.type	version,@function
version:                                # @version
	.cfi_startproc
# BB#0:                                 # %entry
	pushq	%rbp
.Lcfi95:
	.cfi_def_cfa_offset 16
.Lcfi96:
	.cfi_offset %rbp, -16
	movq	%rsp, %rbp
.Lcfi97:
	.cfi_def_cfa_register %rbp
	callq	license
	movl	$.L.str.115, %edi
	movl	$.L.str.116, %esi
	movl	$.L.str.117, %edx
	xorl	%eax, %eax
	callq	printf
	movl	$.L.str.118, %edi
	xorl	%eax, %eax
	callq	printf
	movl	$.L.str.119, %edi
	xorl	%eax, %eax
	callq	printf
	movl	$.L.str.120, %edi
	xorl	%eax, %eax
	callq	printf
	movl	$.L.str.121, %edi
	xorl	%eax, %eax
	callq	printf
	movl	$.L.str.122, %edi
	xorl	%eax, %eax
	callq	printf
	movl	$.L.str.123, %edi
	xorl	%eax, %eax
	callq	printf
	movl	$.L.str.124, %edi
	xorl	%eax, %eax
	callq	printf
	popq	%rbp
	retq
.Lfunc_end30:
	.size	version, .Lfunc_end30-version
	.cfi_endproc

	.globl	lzw
	.p2align	4, 0x90
	.type	lzw,@function
lzw:                                    # @lzw
	.cfi_startproc
# BB#0:                                 # %entry
	pushq	%rbp
.Lcfi98:
	.cfi_def_cfa_offset 16
.Lcfi99:
	.cfi_offset %rbp, -16
	movq	%rsp, %rbp
.Lcfi100:
	.cfi_def_cfa_register %rbp
	subq	$16, %rsp
	movl	%edi, -12(%rbp)
	movl	%esi, -8(%rbp)
	cmpl	$0, msg_done(%rip)
	jne	.LBB31_3
# BB#1:                                 # %if.end
	movl	$1, msg_done(%rip)
	movq	stderr(%rip), %rdi
	movl	$.L.str.52, %esi
	xorl	%eax, %eax
	callq	fprintf
	movl	-12(%rbp), %eax
	cmpl	-8(%rbp), %eax
	je	.LBB31_3
# BB#2:                                 # %if.then1
	movl	$1, exit_code(%rip)
.LBB31_3:                               # %if.end2
	movl	$1, -4(%rbp)
	movl	-4(%rbp), %eax
	addq	$16, %rsp
	popq	%rbp
	retq
.Lfunc_end31:
	.size	lzw, .Lfunc_end31-lzw
	.cfi_endproc

	.p2align	4, 0x90
	.type	treat_file,@function
treat_file:                             # @treat_file
	.cfi_startproc
# BB#0:                                 # %entry
	pushq	%rbp
.Lcfi101:
	.cfi_def_cfa_offset 16
.Lcfi102:
	.cfi_offset %rbp, -16
	movq	%rsp, %rbp
.Lcfi103:
	.cfi_def_cfa_register %rbp
	pushq	%rbx
	subq	$184, %rsp
.Lcfi104:
	.cfi_offset %rbx, -24
	movq	%rdi, -24(%rbp)
	movl	$.L.str.149, %esi
	callq	strcmp
	testl	%eax, %eax
	je	.LBB32_1
# BB#2:                                 # %if.end
	movq	-24(%rbp), %rdi
	movl	$istat, %esi
	callq	get_istat
	testl	%eax, %eax
	jne	.LBB32_75
# BB#3:                                 # %if.end4
	movl	$61440, %eax            # imm = 0xF000
	movl	istat+24(%rip), %ecx
	andl	%eax, %ecx
	cmpl	$16384, %ecx            # imm = 0x4000
	jne	.LBB32_10
# BB#4:                                 # %if.then6
	cmpl	$0, recursive(%rip)
	je	.LBB32_6
# BB#5:                                 # %if.then7
	leaq	-192(%rbp), %rbx
	movl	$istat, %esi
	movl	$144, %edx
	movq	%rbx, %rdi
	callq	memcpy
	movq	-24(%rbp), %rdi
	callq	treat_dir
	movq	-24(%rbp), %rdi
	movq	%rbx, %rsi
	callq	reset_times
	jmp	.LBB32_75
.LBB32_1:                               # %if.then
	movl	to_stdout(%rip), %eax
	movl	%eax, -28(%rbp)
	callq	treat_stdin
	movl	-28(%rbp), %eax
	movl	%eax, to_stdout(%rip)
.LBB32_75:                              # %if.end155
	addq	$184, %rsp
	popq	%rbx
	popq	%rbp
	retq
.LBB32_10:                              # %if.end16
	andl	istat+24(%rip), %eax
	cmpl	$32768, %eax            # imm = 0x8000
	jne	.LBB32_11
# BB#15:                                # %if.end27
	cmpq	$2, istat+16(%rip)
	jb	.LBB32_22
# BB#16:                                # %land.lhs.true
	cmpl	$0, to_stdout(%rip)
	jne	.LBB32_22
# BB#17:                                # %land.lhs.true30
	cmpl	$0, force(%rip)
	je	.LBB32_18
.LBB32_22:                              # %if.end41
	movq	istat+48(%rip), %rax
	movq	%rax, ifile_size(%rip)
	cmpl	$0, no_time(%rip)
	je	.LBB32_25
# BB#23:                                # %land.lhs.true43
	cmpl	$0, list(%rip)
	je	.LBB32_24
.LBB32_25:                              # %cond.false
	movq	istat+88(%rip), %rax
	movq	%rax, -48(%rbp)
	movq	%rax, -40(%rbp)
	jmp	.LBB32_26
.LBB32_11:                              # %if.then19
	cmpl	$0, quiet(%rip)
	jne	.LBB32_13
# BB#12:                                # %if.then21
	movq	stderr(%rip), %rdi
	movq	progname(%rip), %rdx
	movl	$.L.str.151, %esi
	movl	$ifname, %ecx
	xorl	%eax, %eax
	callq	fprintf
.LBB32_13:                              # %if.end23
	cmpl	$0, exit_code(%rip)
	jne	.LBB32_75
# BB#14:                                # %if.then25
	movl	$2, exit_code(%rip)
	jmp	.LBB32_75
.LBB32_6:                               # %if.else
	cmpl	$0, quiet(%rip)
	jne	.LBB32_8
# BB#7:                                 # %if.then9
	movq	stderr(%rip), %rdi
	movq	progname(%rip), %rdx
	movl	$.L.str.150, %esi
	movl	$ifname, %ecx
	xorl	%eax, %eax
	callq	fprintf
.LBB32_8:                               # %if.end11
	cmpl	$0, exit_code(%rip)
	jne	.LBB32_75
# BB#9:                                 # %if.then13
	movl	$2, exit_code(%rip)
	jmp	.LBB32_75
.LBB32_24:                              # %cond.true
	movq	$0, -40(%rbp)
.LBB32_26:                              # %cond.end
	movq	-40(%rbp), %rax
	movq	%rax, time_stamp(%rip)
	cmpl	$0, to_stdout(%rip)
	je	.LBB32_30
# BB#27:                                # %land.lhs.true47
	cmpl	$0, list(%rip)
	jne	.LBB32_30
# BB#28:                                # %land.lhs.true49
	cmpl	$0, test(%rip)
	je	.LBB32_29
.LBB32_30:                              # %if.else53
	callq	make_ofname
	testl	%eax, %eax
	jne	.LBB32_75
	jmp	.LBB32_31
.LBB32_29:                              # %if.then51
	movl	$ofname, %edi
	movl	$.L.str.16, %esi
	callq	strcpy
.LBB32_31:                              # %if.end58
	cmpl	$0, ascii(%rip)
	je	.LBB32_32
# BB#33:                                # %land.rhs
	cmpl	$0, decompress(%rip)
	sete	-10(%rbp)
	sete	-9(%rbp)
	jmp	.LBB32_34
.LBB32_32:                              # %if.end58.land.end_crit_edge
	movb	$0, -9(%rbp)
.LBB32_34:                              # %land.end
	movl	$ifname, %edi
	xorl	%esi, %esi
	movl	$384, %edx              # imm = 0x180
	xorl	%eax, %eax
	callq	open
	movl	%eax, ifd(%rip)
	cmpl	$-1, %eax
	je	.LBB32_35
# BB#36:                                # %if.end65
	callq	clear_bufs
	movl	$0, part_nb(%rip)
	cmpl	$0, decompress(%rip)
	je	.LBB32_39
# BB#37:                                # %if.then67
	movl	ifd(%rip), %edi
	callq	get_method
	movl	%eax, method(%rip)
	testl	%eax, %eax
	js	.LBB32_38
.LBB32_39:                              # %if.end73
	cmpl	$0, list(%rip)
	je	.LBB32_41
# BB#40:                                # %if.then75
	movl	ifd(%rip), %edi
	movl	method(%rip), %esi
	callq	do_list
.LBB32_38:                              # %if.then70
	movl	ifd(%rip), %edi
	callq	close
	jmp	.LBB32_75
.LBB32_35:                              # %if.then64
	movl	$ifname, %edi
	callq	progerror
	jmp	.LBB32_75
.LBB32_41:                              # %if.end77
	cmpl	$0, to_stdout(%rip)
	je	.LBB32_43
# BB#42:                                # %if.then79
	movq	stdout(%rip), %rdi
	callq	fileno
	movl	%eax, ofd(%rip)
.LBB32_49:                              # %if.end96
	cmpl	$0, save_orig_name(%rip)
	jne	.LBB32_51
.LBB32_50:                              # %if.then98
	xorl	%eax, %eax
	cmpl	$0, no_name(%rip)
	sete	%al
	movl	%eax, save_orig_name(%rip)
.LBB32_51:                              # %if.end101
	cmpl	$0, verbose(%rip)
	je	.LBB32_53
# BB#52:                                # %if.then103
	movq	stderr(%rip), %rdi
	movl	$.L.str.154, %esi
	movl	$ifname, %edx
	xorl	%eax, %eax
	callq	fprintf
	jmp	.LBB32_53
.LBB32_63:                              # %if.end117
                                        #   in Loop: Header=BB32_53 Depth=1
	movq	$0, bytes_out(%rip)
.LBB32_53:                              # %for.cond
                                        # =>This Inner Loop Header: Depth=1
	movl	ifd(%rip), %edi
	movl	ofd(%rip), %esi
	callq	*work(%rip)
	testl	%eax, %eax
	jne	.LBB32_54
# BB#61:                                # %if.end109
                                        #   in Loop: Header=BB32_53 Depth=1
	callq	input_eof
	testl	%eax, %eax
	jne	.LBB32_55
# BB#62:                                # %if.end113
                                        #   in Loop: Header=BB32_53 Depth=1
	movl	ifd(%rip), %edi
	callq	get_method
	movl	%eax, method(%rip)
	testl	%eax, %eax
	jns	.LBB32_63
	jmp	.LBB32_55
.LBB32_18:                              # %if.then32
	cmpl	$0, quiet(%rip)
	jne	.LBB32_20
# BB#19:                                # %if.then34
	movq	stderr(%rip), %rdi
	movq	progname(%rip), %rdx
	movq	istat+16(%rip), %rax
	cmpq	$2, %rax
	leaq	-1(%rax), %r8
	movl	$115, %eax
	movl	$32, %r9d
	cmoval	%eax, %r9d
	movl	$.L.str.152, %esi
	movl	$ifname, %ecx
	xorl	%eax, %eax
	callq	fprintf
.LBB32_20:                              # %if.end37
	cmpl	$0, exit_code(%rip)
	jne	.LBB32_75
# BB#21:                                # %if.then39
	movl	$2, exit_code(%rip)
	jmp	.LBB32_75
.LBB32_43:                              # %if.else81
	callq	create_outfile
	testl	%eax, %eax
	jne	.LBB32_75
# BB#44:                                # %if.end85
	cmpl	$0, decompress(%rip)
	jne	.LBB32_49
# BB#45:                                # %land.lhs.true87
	cmpl	$0, save_orig_name(%rip)
	je	.LBB32_49
# BB#46:                                # %land.lhs.true89
	cmpl	$0, verbose(%rip)
	jne	.LBB32_49
# BB#47:                                # %land.lhs.true91
	cmpl	$0, quiet(%rip)
	jne	.LBB32_49
# BB#48:                                # %if.then93
	movq	stderr(%rip), %rdi
	movq	progname(%rip), %rdx
	movl	$.L.str.153, %esi
	movl	$ifname, %ecx
	movl	$ofname, %r8d
	xorl	%eax, %eax
	callq	fprintf
	cmpl	$0, save_orig_name(%rip)
	jne	.LBB32_51
	jmp	.LBB32_50
.LBB32_54:                              # %if.then108
	movl	$-1, method(%rip)
.LBB32_55:                              # %for.end
	movl	ifd(%rip), %edi
	callq	close
	cmpl	$0, to_stdout(%rip)
	jne	.LBB32_58
# BB#56:                                # %if.then120
	movl	$istat, %edi
	callq	copy_stat
	movl	ofd(%rip), %edi
	callq	close
	testl	%eax, %eax
	je	.LBB32_58
# BB#57:                                # %if.then123
	callq	write_error
.LBB32_58:                              # %if.end125
	cmpl	$-1, method(%rip)
	je	.LBB32_59
# BB#64:                                # %if.end132
	cmpl	$0, verbose(%rip)
	je	.LBB32_75
# BB#65:                                # %if.then134
	cmpl	$0, test(%rip)
	je	.LBB32_67
# BB#66:                                # %if.then136
	movq	stderr(%rip), %rdi
	movl	$.L.str.155, %esi
	xorl	%eax, %eax
	callq	fprintf
	cmpl	$0, test(%rip)
	jne	.LBB32_74
	jmp	.LBB32_72
.LBB32_59:                              # %if.then127
	cmpl	$0, to_stdout(%rip)
	jne	.LBB32_75
# BB#60:                                # %if.then129
	movl	$ofname, %edi
	callq	xunlink
	jmp	.LBB32_75
.LBB32_67:                              # %if.else138
	cmpl	$0, decompress(%rip)
	je	.LBB32_69
# BB#68:                                # %if.then140
	movq	bytes_out(%rip), %rsi
	movq	bytes_in(%rip), %rax
	jmp	.LBB32_70
.LBB32_69:                              # %if.else143
	movq	bytes_in(%rip), %rsi
	movq	bytes_out(%rip), %rax
.LBB32_70:                              # %if.end147
	subq	header_bytes(%rip), %rax
	movq	%rsi, %rdi
	subq	%rax, %rdi
	movq	stderr(%rip), %rdx
	callq	display_ratio
	cmpl	$0, test(%rip)
	jne	.LBB32_74
.LBB32_72:                              # %land.lhs.true149
	cmpl	$0, to_stdout(%rip)
	jne	.LBB32_74
# BB#73:                                # %if.then151
	movq	stderr(%rip), %rdi
	movl	$.L.str.156, %esi
	movl	$ofname, %edx
	xorl	%eax, %eax
	callq	fprintf
.LBB32_74:                              # %if.end153
	movq	stderr(%rip), %rdi
	movl	$.L.str.123, %esi
	xorl	%eax, %eax
	callq	fprintf
	jmp	.LBB32_75
.Lfunc_end32:
	.size	treat_file, .Lfunc_end32-treat_file
	.cfi_endproc

	.p2align	4, 0x90
	.type	treat_stdin,@function
treat_stdin:                            # @treat_stdin
	.cfi_startproc
# BB#0:                                 # %entry
	pushq	%rbp
.Lcfi105:
	.cfi_def_cfa_offset 16
.Lcfi106:
	.cfi_offset %rbp, -16
	movq	%rsp, %rbp
.Lcfi107:
	.cfi_def_cfa_register %rbp
	pushq	%r14
	pushq	%rbx
	subq	$32, %rsp
.Lcfi108:
	.cfi_offset %rbx, -32
.Lcfi109:
	.cfi_offset %r14, -24
	cmpl	$0, force(%rip)
	jne	.LBB33_7
# BB#1:                                 # %land.lhs.true
	cmpl	$0, list(%rip)
	jne	.LBB33_7
# BB#2:                                 # %land.lhs.true2
	cmpl	$0, decompress(%rip)
	je	.LBB33_4
# BB#3:                                 # %cond.true
	movq	stdin(%rip), %rax
	movq	%rax, -32(%rbp)
	jmp	.LBB33_5
.LBB33_4:                               # %cond.false
	movq	stdout(%rip), %rax
	movq	%rax, -40(%rbp)
.LBB33_5:                               # %cond.end
	movq	%rax, -24(%rbp)
	movq	-24(%rbp), %rdi
	callq	fileno
	movl	%eax, %edi
	callq	isatty
	testl	%eax, %eax
	je	.LBB33_7
# BB#6:                                 # %if.then
	movq	stderr(%rip), %rdi
	movq	progname(%rip), %rdx
	cmpl	$0, decompress(%rip)
	movl	$.L.str.126, %eax
	movl	$.L.str.127, %ecx
	cmovneq	%rax, %rcx
	movl	$.L.str.128, %eax
	movl	$.L.str.8, %r8d
	cmovneq	%rax, %r8
	movl	$.L.str.125, %esi
	xorl	%eax, %eax
	callq	fprintf
	movq	stderr(%rip), %rdi
	movq	progname(%rip), %rdx
	movl	$.L.str.129, %esi
	xorl	%eax, %eax
	callq	fprintf
	movl	$1, %edi
	callq	do_exit
.LBB33_7:                               # %if.end
	cmpl	$0, decompress(%rip)
	cmpl	$0, test(%rip)
	jne	.LBB33_10
# BB#8:                                 # %land.lhs.true17
	cmpl	$0, list(%rip)
	jne	.LBB33_10
# BB#9:                                 # %land.lhs.true19
	cmpl	$0, decompress(%rip)
.LBB33_10:                              # %if.end24
	movl	$ifname, %edi
	movl	$.L.str.130, %esi
	callq	strcpy
	movl	$ofname, %edi
	movl	$.L.str.16, %esi
	callq	strcpy
	movq	$0, time_stamp(%rip)
	cmpl	$0, list(%rip)
	je	.LBB33_11
.LBB33_12:                              # %if.then30
	movq	stdin(%rip), %rdi
	callq	fileno
	movl	$istat, %esi
	movl	%eax, %edi
	callq	fstat
	testl	%eax, %eax
	je	.LBB33_14
# BB#13:                                # %if.then33
	movl	$.L.str.131, %edi
	callq	progerror
	movl	$1, %edi
	callq	do_exit
.LBB33_14:                              # %if.end34
	movq	istat+88(%rip), %rax
	movq	%rax, time_stamp(%rip)
	jmp	.LBB33_15
.LBB33_11:                              # %lor.lhs.false28
	cmpl	$0, no_time(%rip)
	je	.LBB33_12
.LBB33_15:                              # %if.end35
	movq	$-1, ifile_size(%rip)
	callq	clear_bufs
	movl	$1, to_stdout(%rip)
	movl	$0, part_nb(%rip)
	cmpl	$0, decompress(%rip)
	je	.LBB33_18
# BB#16:                                # %if.then37
	movl	ifd(%rip), %edi
	callq	get_method
	movl	%eax, method(%rip)
	testl	%eax, %eax
	jns	.LBB33_18
# BB#17:                                # %if.then40
	movl	exit_code(%rip), %edi
	callq	do_exit
.LBB33_18:                              # %if.end42
	cmpl	$0, list(%rip)
	je	.LBB33_20
# BB#19:                                # %if.then44
	movl	ifd(%rip), %edi
	movl	method(%rip), %esi
	callq	do_list
.LBB33_30:                              # %if.end71
	addq	$32, %rsp
	popq	%rbx
	popq	%r14
	popq	%rbp
	retq
	.p2align	4, 0x90
.LBB33_23:                              # %if.end59
                                        #   in Loop: Header=BB33_20 Depth=1
	movq	$0, bytes_out(%rip)
.LBB33_20:                              # %for.cond
                                        # =>This Inner Loop Header: Depth=1
	movq	work(%rip), %r14
	movq	stdin(%rip), %rdi
	callq	fileno
	movl	%eax, %ebx
	movq	stdout(%rip), %rdi
	callq	fileno
	movl	%ebx, %edi
	movl	%eax, %esi
	callq	*%r14
	testl	%eax, %eax
	jne	.LBB33_30
# BB#21:                                # %if.end51
                                        #   in Loop: Header=BB33_20 Depth=1
	callq	input_eof
	testl	%eax, %eax
	jne	.LBB33_24
# BB#22:                                # %if.end55
                                        #   in Loop: Header=BB33_20 Depth=1
	movl	ifd(%rip), %edi
	callq	get_method
	movl	%eax, method(%rip)
	testl	%eax, %eax
	jns	.LBB33_23
	jmp	.LBB33_30
.LBB33_24:                              # %for.end
	cmpl	$0, verbose(%rip)
	je	.LBB33_30
# BB#25:                                # %if.then61
	cmpl	$0, test(%rip)
	je	.LBB33_27
# BB#26:                                # %if.then63
	movq	stderr(%rip), %rdi
	movl	$.L.str.132, %esi
.LBB33_29:                              # %if.end71
	xorl	%eax, %eax
	callq	fprintf
	jmp	.LBB33_30
.LBB33_27:                              # %if.else
	cmpl	$0, decompress(%rip)
	jne	.LBB33_30
# BB#28:                                # %if.then66
	movq	bytes_in(%rip), %rsi
	movq	bytes_out(%rip), %rax
	subq	header_bytes(%rip), %rax
	movq	%rsi, %rdi
	subq	%rax, %rdi
	movq	stderr(%rip), %rdx
	callq	display_ratio
	movq	stderr(%rip), %rdi
	movl	$.L.str.123, %esi
	jmp	.LBB33_29
.Lfunc_end33:
	.size	treat_stdin, .Lfunc_end33-treat_stdin
	.cfi_endproc

	.p2align	4, 0x90
	.type	do_list,@function
do_list:                                # @do_list
	.cfi_startproc
# BB#0:                                 # %entry
	pushq	%rbp
.Lcfi110:
	.cfi_def_cfa_offset 16
.Lcfi111:
	.cfi_offset %rbp, -16
	movq	%rsp, %rbp
.Lcfi112:
	.cfi_def_cfa_register %rbp
	subq	$64, %rsp
	movl	%edi, -20(%rbp)
	movl	%esi, -8(%rbp)
	movl	$1, -4(%rbp)
	movabsq	$9223372036854775807, %rax # imm = 0x7FFFFFFFFFFFFFFF
	movq	%rax, -32(%rbp)
	movabsq	$7378697629483820647, %rcx # imm = 0x6666666666666667
	cmpq	$10, -32(%rbp)
	jl	.LBB34_3
	.p2align	4, 0x90
.LBB34_2:                               # %for.inc
                                        # =>This Inner Loop Header: Depth=1
	incl	-4(%rbp)
	movq	%rcx, %rax
	imulq	-32(%rbp)
	movq	%rdx, %rax
	shrq	$63, %rax
	sarq	$2, %rdx
	addq	%rax, %rdx
	movq	%rdx, -32(%rbp)
	cmpq	$10, -32(%rbp)
	jge	.LBB34_2
.LBB34_3:                               # %for.end
	cmpl	$0, do_list.first_time(%rip)
	je	.LBB34_19
# BB#4:                                 # %land.lhs.true
	cmpl	$0, -8(%rbp)
	js	.LBB34_19
# BB#5:                                 # %if.then
	movl	$0, do_list.first_time(%rip)
	cmpl	$0, verbose(%rip)
	je	.LBB34_7
# BB#6:                                 # %if.then3
	movl	$.L.str.187, %edi
	xorl	%eax, %eax
	callq	printf
.LBB34_7:                               # %if.end
	cmpl	$0, quiet(%rip)
	jne	.LBB34_9
# BB#8:                                 # %if.then5
	movl	-4(%rbp), %esi
	movq	$.L.str.190, (%rsp)
	movl	$.L.str.188, %edi
	movl	$.L.str.189, %ecx
	xorl	%eax, %eax
	movl	%esi, %edx
	movl	%esi, %r8d
	movl	%esi, %r9d
	callq	printf
	jmp	.LBB34_9
.LBB34_19:                              # %if.else
	cmpl	$0, -8(%rbp)
	js	.LBB34_20
.LBB34_9:                               # %if.end28
	movq	$-1, -40(%rbp)
	movq	$-1, bytes_out(%rip)
	movq	ifile_size(%rip), %rax
	movq	%rax, bytes_in(%rip)
	cmpl	$8, -8(%rbp)
	jne	.LBB34_15
# BB#10:                                # %land.lhs.true30
	cmpl	$0, last_member(%rip)
	jne	.LBB34_15
# BB#11:                                # %if.then32
	movl	-20(%rbp), %edi
	movq	$-8, %rsi
	movl	$2, %edx
	callq	lseek
	movq	%rax, bytes_in(%rip)
	cmpq	$-1, %rax
	je	.LBB34_15
# BB#12:                                # %if.then35
	addq	$8, bytes_in(%rip)
	movl	-20(%rbp), %edi
	leaq	-16(%rbp), %rsi
	movl	$8, %edx
	callq	read
	cmpq	$8, %rax
	je	.LBB34_14
# BB#13:                                # %if.then38
	callq	read_error
.LBB34_14:                              # %if.end39
	movzbl	-16(%rbp), %eax
	movzbl	-15(%rbp), %ecx
	shll	$8, %ecx
	orl	%eax, %ecx
	movzbl	-14(%rbp), %eax
	movzbl	-13(%rbp), %edx
	shll	$8, %edx
	orl	%eax, %edx
	shlq	$16, %rdx
	orq	%rcx, %rdx
	movq	%rdx, -40(%rbp)
	movzbl	-12(%rbp), %eax
	movzbl	-11(%rbp), %ecx
	shll	$8, %ecx
	orl	%eax, %ecx
	movzbl	-10(%rbp), %eax
	movzbl	-9(%rbp), %edx
	shll	$8, %edx
	orl	%eax, %edx
	shlq	$16, %rdx
	orq	%rcx, %rdx
	movq	%rdx, bytes_out(%rip)
.LBB34_15:                              # %if.end90
	movl	$time_stamp, %edi
	callq	ctime
	leaq	4(%rax), %rcx
	movq	%rcx, -48(%rbp)
	movb	$0, 16(%rax)
	cmpl	$0, verbose(%rip)
	je	.LBB34_17
# BB#16:                                # %if.then95
	movslq	-8(%rbp), %rax
	movq	do_list.methods(,%rax,8), %rsi
	movq	-40(%rbp), %rdx
	movq	-48(%rbp), %rcx
	movl	$.L.str.194, %edi
	xorl	%eax, %eax
	callq	printf
.LBB34_17:                              # %if.end98
	movq	stdout(%rip), %rdi
	movq	bytes_in(%rip), %rsi
	movl	-4(%rbp), %edx
	callq	fprint_off
	movl	$.L.str.192, %edi
	xorl	%eax, %eax
	callq	printf
	movq	stdout(%rip), %rdi
	movq	bytes_out(%rip), %rsi
	movl	-4(%rbp), %edx
	callq	fprint_off
	movl	$.L.str.192, %edi
	xorl	%eax, %eax
	callq	printf
	cmpq	$-1, bytes_in(%rip)
	je	.LBB34_18
# BB#28:                                # %if.else104
	cmpq	$0, total_in(%rip)
	js	.LBB34_30
# BB#29:                                # %if.then107
	movq	bytes_in(%rip), %rax
	addq	%rax, total_in(%rip)
	cmpq	$-1, bytes_out(%rip)
	jne	.LBB34_32
	jmp	.LBB34_31
.LBB34_18:                              # %if.then103
	movq	$-1, total_in(%rip)
	movq	$0, header_bytes(%rip)
	movq	$0, bytes_out(%rip)
	movq	$0, bytes_in(%rip)
.LBB34_30:                              # %if.end110
	cmpq	$-1, bytes_out(%rip)
	je	.LBB34_31
.LBB34_32:                              # %if.else114
	cmpq	$0, total_out(%rip)
	js	.LBB34_34
# BB#33:                                # %if.then117
	movq	bytes_out(%rip), %rax
	addq	%rax, total_out(%rip)
	jmp	.LBB34_34
.LBB34_31:                              # %if.then113
	movq	$-1, total_out(%rip)
	movq	$0, header_bytes(%rip)
	movq	$0, bytes_out(%rip)
	movq	$0, bytes_in(%rip)
.LBB34_34:                              # %if.end120
	movq	bytes_out(%rip), %rsi
	movq	bytes_in(%rip), %rax
	subq	header_bytes(%rip), %rax
	movq	%rsi, %rdi
	subq	%rax, %rdi
	movq	stdout(%rip), %rdx
	callq	display_ratio
	movl	$.L.str.195, %edi
	movl	$ofname, %esi
	xorl	%eax, %eax
	callq	printf
.LBB34_35:                              # %return
	addq	$64, %rsp
	popq	%rbp
	retq
.LBB34_20:                              # %if.then9
	cmpq	$0, total_in(%rip)
	jle	.LBB34_35
# BB#21:                                # %lor.lhs.false
	cmpq	$0, total_out(%rip)
	jle	.LBB34_35
# BB#22:                                # %if.end13
	cmpl	$0, verbose(%rip)
	je	.LBB34_24
# BB#23:                                # %if.then15
	movl	$.L.str.191, %edi
	xorl	%eax, %eax
	callq	printf
.LBB34_24:                              # %if.end17
	cmpl	$0, verbose(%rip)
	je	.LBB34_25
.LBB34_26:                              # %if.then21
	movq	stdout(%rip), %rdi
	movq	total_in(%rip), %rsi
	movl	-4(%rbp), %edx
	callq	fprint_off
	movl	$.L.str.192, %edi
	xorl	%eax, %eax
	callq	printf
	movq	stdout(%rip), %rdi
	movq	total_out(%rip), %rsi
	movl	-4(%rbp), %edx
	callq	fprint_off
	movl	$.L.str.192, %edi
	xorl	%eax, %eax
	callq	printf
	jmp	.LBB34_27
.LBB34_25:                              # %lor.lhs.false19
	cmpl	$0, quiet(%rip)
	je	.LBB34_26
.LBB34_27:                              # %if.end24
	movq	total_out(%rip), %rsi
	movq	total_in(%rip), %rax
	subq	header_bytes(%rip), %rax
	movq	%rsi, %rdi
	subq	%rax, %rdi
	movq	stdout(%rip), %rdx
	callq	display_ratio
	movl	$.L.str.193, %edi
	xorl	%eax, %eax
	callq	printf
	jmp	.LBB34_35
.Lfunc_end34:
	.size	do_list, .Lfunc_end34-do_list
	.cfi_endproc

	.globl	abort_gzip
	.p2align	4, 0x90
	.type	abort_gzip,@function
abort_gzip:                             # @abort_gzip
	.cfi_startproc
# BB#0:                                 # %entry
	pushq	%rbp
.Lcfi113:
	.cfi_def_cfa_offset 16
.Lcfi114:
	.cfi_offset %rbp, -16
	movq	%rsp, %rbp
.Lcfi115:
	.cfi_def_cfa_register %rbp
	callq	do_remove
	movl	$1, %edi
	callq	do_exit
	popq	%rbp
	retq
.Lfunc_end35:
	.size	abort_gzip, .Lfunc_end35-abort_gzip
	.cfi_endproc

	.globl	huft_build
	.p2align	4, 0x90
	.type	huft_build,@function
huft_build:                             # @huft_build
	.cfi_startproc
# BB#0:                                 # %entry
	pushq	%rbp
.Lcfi116:
	.cfi_def_cfa_offset 16
.Lcfi117:
	.cfi_offset %rbp, -16
	movq	%rsp, %rbp
.Lcfi118:
	.cfi_def_cfa_register %rbp
	subq	$1600, %rsp             # imm = 0x640
	movq	16(%rbp), %rax
	movq	%rdi, -136(%rbp)
	movl	%esi, -52(%rbp)
	movl	%edx, -76(%rbp)
	movq	%rcx, -152(%rbp)
	movq	%r8, -144(%rbp)
	movq	%r9, -128(%rbp)
	movq	%rax, -120(%rbp)
	xorps	%xmm0, %xmm0
	movaps	%xmm0, -192(%rbp)
	movaps	%xmm0, -208(%rbp)
	movaps	%xmm0, -224(%rbp)
	movaps	%xmm0, -240(%rbp)
	movl	$0, -176(%rbp)
	movq	-136(%rbp), %rax
	movq	%rax, -32(%rbp)
	movl	-52(%rbp), %eax
	movl	%eax, -8(%rbp)
	.p2align	4, 0x90
.LBB36_1:                               # %do.cond
                                        # =>This Inner Loop Header: Depth=1
	movq	-32(%rbp), %rax
	movl	(%rax), %eax
	incl	-240(%rbp,%rax,4)
	addq	$4, -32(%rbp)
	decl	-8(%rbp)
	jne	.LBB36_1
# BB#2:                                 # %do.end
	movl	-240(%rbp), %eax
	cmpl	-52(%rbp), %eax
	jne	.LBB36_4
# BB#3:                                 # %if.then
	movq	-128(%rbp), %rax
	movq	$0, (%rax)
	movq	-120(%rbp), %rax
	movl	$0, (%rax)
	movl	$0, -56(%rbp)
	jmp	.LBB36_68
.LBB36_4:                               # %if.end
	movq	-120(%rbp), %rax
	movl	(%rax), %eax
	movl	%eax, -12(%rbp)
	movl	$1, -4(%rbp)
	cmpl	$16, -4(%rbp)
	jbe	.LBB36_6
	jmp	.LBB36_8
	.p2align	4, 0x90
.LBB36_7:                               # %for.inc
                                        #   in Loop: Header=BB36_6 Depth=1
	incl	-4(%rbp)
	cmpl	$16, -4(%rbp)
	ja	.LBB36_8
.LBB36_6:                               # %for.body
                                        # =>This Inner Loop Header: Depth=1
	movl	-4(%rbp), %eax
	cmpl	$0, -240(%rbp,%rax,4)
	je	.LBB36_7
.LBB36_8:                               # %for.end
	movl	-4(%rbp), %eax
	movl	%eax, -24(%rbp)
	movl	-12(%rbp), %eax
	cmpl	-4(%rbp), %eax
	jae	.LBB36_10
# BB#9:                                 # %if.then10
	movl	-4(%rbp), %eax
	movl	%eax, -12(%rbp)
.LBB36_10:                              # %if.end11
	movl	$16, -8(%rbp)
	cmpl	$0, -8(%rbp)
	jne	.LBB36_12
	jmp	.LBB36_14
	.p2align	4, 0x90
.LBB36_13:                              # %for.inc20
                                        #   in Loop: Header=BB36_12 Depth=1
	decl	-8(%rbp)
	cmpl	$0, -8(%rbp)
	je	.LBB36_14
.LBB36_12:                              # %for.body14
                                        # =>This Inner Loop Header: Depth=1
	movl	-8(%rbp), %eax
	cmpl	$0, -240(%rbp,%rax,4)
	je	.LBB36_13
.LBB36_14:                              # %for.end22
	movl	-8(%rbp), %eax
	movl	%eax, -60(%rbp)
	movl	-12(%rbp), %eax
	cmpl	-8(%rbp), %eax
	jbe	.LBB36_16
# BB#15:                                # %if.then24
	movl	-8(%rbp), %eax
	movl	%eax, -12(%rbp)
.LBB36_16:                              # %if.end25
	movl	-12(%rbp), %eax
	movq	-120(%rbp), %rcx
	movl	%eax, (%rcx)
	movb	-4(%rbp), %cl
	movl	$1, %eax
	shll	%cl, %eax
	movl	%eax, -44(%rbp)
	jmp	.LBB36_17
	.p2align	4, 0x90
.LBB36_20:                              # %for.inc34
                                        #   in Loop: Header=BB36_17 Depth=1
	incl	-4(%rbp)
	shll	-44(%rbp)
.LBB36_17:                              # %for.cond26
                                        # =>This Inner Loop Header: Depth=1
	movl	-4(%rbp), %eax
	cmpl	-8(%rbp), %eax
	jae	.LBB36_21
# BB#18:                                # %for.body28
                                        #   in Loop: Header=BB36_17 Depth=1
	movl	-4(%rbp), %eax
	movl	-44(%rbp), %ecx
	subl	-240(%rbp,%rax,4), %ecx
	movl	%ecx, -44(%rbp)
	jns	.LBB36_20
# BB#19:                                # %if.then32
	movl	$2, -56(%rbp)
	jmp	.LBB36_68
.LBB36_21:                              # %for.end37
	movl	-8(%rbp), %eax
	movl	-44(%rbp), %ecx
	subl	-240(%rbp,%rax,4), %ecx
	movl	%ecx, -44(%rbp)
	js	.LBB36_22
# BB#23:                                # %if.end43
	movl	-44(%rbp), %eax
	movl	-8(%rbp), %ecx
	addl	%eax, -240(%rbp,%rcx,4)
	movl	$0, -4(%rbp)
	movl	$0, -316(%rbp)
	leaq	-236(%rbp), %rax
	movq	%rax, -32(%rbp)
	leaq	-312(%rbp), %rax
	movq	%rax, -88(%rbp)
	decl	-8(%rbp)
	je	.LBB36_26
	.p2align	4, 0x90
.LBB36_25:                              # %while.body
                                        # =>This Inner Loop Header: Depth=1
	movq	-32(%rbp), %rax
	leaq	4(%rax), %rcx
	movq	%rcx, -32(%rbp)
	movl	-4(%rbp), %ecx
	addl	(%rax), %ecx
	movl	%ecx, -4(%rbp)
	movq	-88(%rbp), %rax
	leaq	4(%rax), %rdx
	movq	%rdx, -88(%rbp)
	movl	%ecx, (%rax)
	decl	-8(%rbp)
	jne	.LBB36_25
.LBB36_26:                              # %while.end
	movq	-136(%rbp), %rax
	movq	%rax, -32(%rbp)
	movl	$0, -8(%rbp)
	.p2align	4, 0x90
.LBB36_27:                              # %do.body55
                                        # =>This Inner Loop Header: Depth=1
	movq	-32(%rbp), %rax
	leaq	4(%rax), %rcx
	movq	%rcx, -32(%rbp)
	movl	(%rax), %eax
	movl	%eax, -4(%rbp)
	testl	%eax, %eax
	je	.LBB36_29
# BB#28:                                # %if.then58
                                        #   in Loop: Header=BB36_27 Depth=1
	movl	-8(%rbp), %eax
	movl	-4(%rbp), %ecx
	movl	-320(%rbp,%rcx,4), %edx
	leal	1(%rdx), %esi
	movl	%esi, -320(%rbp,%rcx,4)
	movl	%eax, -1600(%rbp,%rdx,4)
.LBB36_29:                              # %do.cond65
                                        #   in Loop: Header=BB36_27 Depth=1
	movl	-8(%rbp), %eax
	incl	%eax
	movl	%eax, -8(%rbp)
	cmpl	-52(%rbp), %eax
	jb	.LBB36_27
# BB#30:                                # %do.end68
	movslq	-60(%rbp), %rax
	movl	-320(%rbp,%rax,4), %eax
	movl	%eax, -52(%rbp)
	movl	$0, -8(%rbp)
	movl	$0, -320(%rbp)
	leaq	-1600(%rbp), %rax
	movq	%rax, -32(%rbp)
	movl	$-1, -40(%rbp)
	xorl	%eax, %eax
	subl	-12(%rbp), %eax
	movl	%eax, -20(%rbp)
	movq	$0, -448(%rbp)
	movq	$0, -72(%rbp)
	movl	$0, -36(%rbp)
	jmp	.LBB36_31
.LBB36_22:                              # %if.then42
	movl	$2, -56(%rbp)
	jmp	.LBB36_68
.LBB36_63:                              # %for.inc224
                                        #   in Loop: Header=BB36_31 Depth=1
	incl	-24(%rbp)
.LBB36_31:                              # %for.cond75
                                        # =>This Loop Header: Depth=1
                                        #     Child Loop BB36_33 Depth 2
                                        #       Child Loop BB36_34 Depth 3
                                        #         Child Loop BB36_40 Depth 4
                                        #       Child Loop BB36_55 Depth 3
                                        #       Child Loop BB36_58 Depth 3
                                        #       Child Loop BB36_61 Depth 3
	movl	-24(%rbp), %eax
	cmpl	-60(%rbp), %eax
	jg	.LBB36_64
# BB#32:                                # %for.body77
                                        #   in Loop: Header=BB36_31 Depth=1
	movslq	-24(%rbp), %rax
	movl	-240(%rbp,%rax,4), %eax
	movl	%eax, -64(%rbp)
	jmp	.LBB36_33
	.p2align	4, 0x90
.LBB36_48:                              # %if.then136
                                        #   in Loop: Header=BB36_34 Depth=3
	movl	-8(%rbp), %eax
	movslq	-40(%rbp), %rcx
	movl	%eax, -320(%rbp,%rcx,4)
	movb	-12(%rbp), %al
	movb	%al, -111(%rbp)
	movl	-4(%rbp), %eax
	addl	$16, %eax
	movb	%al, -112(%rbp)
	movq	-72(%rbp), %rax
	movq	%rax, -104(%rbp)
	movl	-8(%rbp), %eax
	movl	-20(%rbp), %ecx
	subl	-12(%rbp), %ecx
                                        # kill: %CL<def> %CL<kill> %ECX<kill>
	shrl	%cl, %eax
	movl	%eax, -4(%rbp)
	movslq	-40(%rbp), %rax
	movq	-456(%rbp,%rax,8), %rax
	movl	-4(%rbp), %ecx
	shlq	$4, %rcx
	movups	-112(%rbp), %xmm0
	movups	%xmm0, (%rax,%rcx)
.LBB36_34:                              # %while.cond84
                                        #   Parent Loop BB36_31 Depth=1
                                        #     Parent Loop BB36_33 Depth=2
                                        # =>    This Loop Header: Depth=3
                                        #         Child Loop BB36_40 Depth 4
	movl	-20(%rbp), %eax
	addl	-12(%rbp), %eax
	cmpl	%eax, -24(%rbp)
	jle	.LBB36_49
# BB#35:                                # %while.body87
                                        #   in Loop: Header=BB36_34 Depth=3
	incl	-40(%rbp)
	movl	-20(%rbp), %eax
	addl	-12(%rbp), %eax
	movl	%eax, -20(%rbp)
	movl	-60(%rbp), %ecx
	subl	%eax, %ecx
	movl	%ecx, -36(%rbp)
	cmpl	-12(%rbp), %ecx
	jbe	.LBB36_37
# BB#36:                                # %cond.true
                                        #   in Loop: Header=BB36_34 Depth=3
	movl	-12(%rbp), %eax
	movl	%eax, -156(%rbp)
	jmp	.LBB36_38
	.p2align	4, 0x90
.LBB36_37:                              # %cond.false
                                        #   in Loop: Header=BB36_34 Depth=3
	movl	-36(%rbp), %eax
	movl	%eax, -160(%rbp)
.LBB36_38:                              # %cond.end
                                        #   in Loop: Header=BB36_34 Depth=3
	movl	%eax, -92(%rbp)
	movl	-92(%rbp), %eax
	movl	%eax, -36(%rbp)
	movl	-24(%rbp), %ecx
	subl	-20(%rbp), %ecx
	movl	%ecx, -4(%rbp)
	movl	$1, %eax
                                        # kill: %CL<def> %CL<kill> %ECX<kill>
	shll	%cl, %eax
	movl	%eax, -48(%rbp)
	movl	-64(%rbp), %ecx
	incl	%ecx
	cmpl	%ecx, %eax
	jbe	.LBB36_43
# BB#39:                                # %if.then96
                                        #   in Loop: Header=BB36_34 Depth=3
	movl	-64(%rbp), %eax
	incl	%eax
	subl	%eax, -48(%rbp)
	movslq	-24(%rbp), %rax
	leaq	-240(%rbp,%rax,4), %rax
	movq	%rax, -88(%rbp)
	movl	-4(%rbp), %eax
	cmpl	-36(%rbp), %eax
	jb	.LBB36_40
	jmp	.LBB36_43
	.p2align	4, 0x90
.LBB36_42:                              # %if.end111
                                        #   in Loop: Header=BB36_40 Depth=4
	movq	-88(%rbp), %rax
	movl	(%rax), %eax
	subl	%eax, -48(%rbp)
.LBB36_40:                              # %while.cond103
                                        #   Parent Loop BB36_31 Depth=1
                                        #     Parent Loop BB36_33 Depth=2
                                        #       Parent Loop BB36_34 Depth=3
                                        # =>      This Inner Loop Header: Depth=4
	movl	-4(%rbp), %eax
	incl	%eax
	movl	%eax, -4(%rbp)
	cmpl	-36(%rbp), %eax
	jae	.LBB36_43
# BB#41:                                # %while.body106
                                        #   in Loop: Header=BB36_40 Depth=4
	movl	-48(%rbp), %eax
	addl	%eax, %eax
	movl	%eax, -48(%rbp)
	movq	-88(%rbp), %rcx
	leaq	4(%rcx), %rdx
	movq	%rdx, -88(%rbp)
	cmpl	4(%rcx), %eax
	ja	.LBB36_42
	.p2align	4, 0x90
.LBB36_43:                              # %if.end115
                                        #   in Loop: Header=BB36_34 Depth=3
	movb	-4(%rbp), %cl
	movl	$1, %edi
	shll	%cl, %edi
	movl	%edi, -36(%rbp)
	incl	%edi
	shlq	$4, %rdi
	callq	malloc
	movq	%rax, -72(%rbp)
	testq	%rax, %rax
	je	.LBB36_44
# BB#47:                                # %if.end126
                                        #   in Loop: Header=BB36_34 Depth=3
	movl	-36(%rbp), %eax
	movl	hufts(%rip), %ecx
	leal	1(%rcx,%rax), %eax
	movl	%eax, hufts(%rip)
	movq	-72(%rbp), %rax
	addq	$16, %rax
	movq	-128(%rbp), %rcx
	movq	%rax, (%rcx)
	movq	-72(%rbp), %rax
	leaq	8(%rax), %rcx
	movq	%rcx, -128(%rbp)
	movq	$0, 8(%rax)
	movq	-72(%rbp), %rax
	addq	$16, %rax
	movq	%rax, -72(%rbp)
	movslq	-40(%rbp), %rcx
	movq	%rax, -448(%rbp,%rcx,8)
	cmpl	$0, -40(%rbp)
	je	.LBB36_34
	jmp	.LBB36_48
.LBB36_49:                              # %while.end153
                                        #   in Loop: Header=BB36_33 Depth=2
	movl	-24(%rbp), %eax
	subl	-20(%rbp), %eax
	movb	%al, -111(%rbp)
	movl	-52(%rbp), %eax
	leaq	-1600(%rbp,%rax,4), %rax
	cmpq	%rax, -32(%rbp)
	jb	.LBB36_51
# BB#50:                                # %if.then162
                                        #   in Loop: Header=BB36_33 Depth=2
	movb	$99, -112(%rbp)
	jmp	.LBB36_54
.LBB36_51:                              # %if.else
                                        #   in Loop: Header=BB36_33 Depth=2
	movq	-32(%rbp), %rax
	movl	(%rax), %eax
	cmpl	-76(%rbp), %eax
	jae	.LBB36_53
# BB#52:                                # %if.then166
                                        #   in Loop: Header=BB36_33 Depth=2
	movq	-32(%rbp), %rax
	cmpl	$256, (%rax)            # imm = 0x100
	movb	$15, %al
	adcb	$0, %al
	movb	%al, -112(%rbp)
	movq	-32(%rbp), %rax
	movzwl	(%rax), %eax
	movw	%ax, -104(%rbp)
	addq	$4, -32(%rbp)
	jmp	.LBB36_54
.LBB36_53:                              # %if.else176
                                        #   in Loop: Header=BB36_33 Depth=2
	movq	-144(%rbp), %rax
	movq	-32(%rbp), %rcx
	movl	(%rcx), %ecx
	subl	-76(%rbp), %ecx
	movb	(%rax,%rcx,2), %al
	movb	%al, -112(%rbp)
	movq	-152(%rbp), %rax
	movq	-32(%rbp), %rcx
	leaq	4(%rcx), %rdx
	movq	%rdx, -32(%rbp)
	movl	(%rcx), %ecx
	subl	-76(%rbp), %ecx
	movzwl	(%rax,%rcx,2), %eax
	movw	%ax, -104(%rbp)
.LBB36_54:                              # %if.end189
                                        #   in Loop: Header=BB36_33 Depth=2
	movl	-24(%rbp), %ecx
	subl	-20(%rbp), %ecx
	movl	$1, %eax
                                        # kill: %CL<def> %CL<kill> %ECX<kill>
	shll	%cl, %eax
	movl	%eax, -48(%rbp)
	movl	-8(%rbp), %eax
	movb	-20(%rbp), %cl
	shrl	%cl, %eax
	movl	%eax, -4(%rbp)
	jmp	.LBB36_55
	.p2align	4, 0x90
.LBB36_56:                              # %for.inc199
                                        #   in Loop: Header=BB36_55 Depth=3
	movq	-72(%rbp), %rax
	movl	-4(%rbp), %ecx
	shlq	$4, %rcx
	movups	-112(%rbp), %xmm0
	movups	%xmm0, (%rax,%rcx)
	movl	-48(%rbp), %eax
	addl	%eax, -4(%rbp)
.LBB36_55:                              # %for.cond193
                                        #   Parent Loop BB36_31 Depth=1
                                        #     Parent Loop BB36_33 Depth=2
                                        # =>    This Inner Loop Header: Depth=3
	movl	-4(%rbp), %eax
	cmpl	-36(%rbp), %eax
	jb	.LBB36_56
# BB#57:                                # %for.end201
                                        #   in Loop: Header=BB36_33 Depth=2
	movl	-24(%rbp), %ecx
	decl	%ecx
	movl	$1, %eax
                                        # kill: %CL<def> %CL<kill> %ECX<kill>
	shll	%cl, %eax
	movl	%eax, -4(%rbp)
	jmp	.LBB36_58
	.p2align	4, 0x90
.LBB36_59:                              # %for.inc207
                                        #   in Loop: Header=BB36_58 Depth=3
	movl	-4(%rbp), %eax
	xorl	%eax, -8(%rbp)
	shrl	-4(%rbp)
.LBB36_58:                              # %for.cond204
                                        #   Parent Loop BB36_31 Depth=1
                                        #     Parent Loop BB36_33 Depth=2
                                        # =>    This Inner Loop Header: Depth=3
	movl	-8(%rbp), %eax
	testl	-4(%rbp), %eax
	jne	.LBB36_59
# BB#60:                                # %for.end209
                                        #   in Loop: Header=BB36_33 Depth=2
	movl	-4(%rbp), %eax
	xorl	%eax, -8(%rbp)
	jmp	.LBB36_61
	.p2align	4, 0x90
.LBB36_62:                              # %while.body219
                                        #   in Loop: Header=BB36_61 Depth=3
	decl	-40(%rbp)
	movl	-12(%rbp), %eax
	subl	%eax, -20(%rbp)
.LBB36_61:                              # %while.cond211
                                        #   Parent Loop BB36_31 Depth=1
                                        #     Parent Loop BB36_33 Depth=2
                                        # =>    This Inner Loop Header: Depth=3
	movzbl	-20(%rbp), %ecx
	movl	$1, %eax
	shll	%cl, %eax
	decl	%eax
	andl	-8(%rbp), %eax
	movslq	-40(%rbp), %rcx
	cmpl	-320(%rbp,%rcx,4), %eax
	jne	.LBB36_62
.LBB36_33:                              # %while.cond80
                                        #   Parent Loop BB36_31 Depth=1
                                        # =>  This Loop Header: Depth=2
                                        #       Child Loop BB36_34 Depth 3
                                        #         Child Loop BB36_40 Depth 4
                                        #       Child Loop BB36_55 Depth 3
                                        #       Child Loop BB36_58 Depth 3
                                        #       Child Loop BB36_61 Depth 3
	movl	-64(%rbp), %eax
	leal	-1(%rax), %ecx
	movl	%ecx, -64(%rbp)
	testl	%eax, %eax
	jne	.LBB36_34
	jmp	.LBB36_63
.LBB36_44:                              # %if.then120
	cmpl	$0, -40(%rbp)
	je	.LBB36_46
# BB#45:                                # %if.then122
	movq	-448(%rbp), %rdi
	callq	huft_free
.LBB36_46:                              # %if.end125
	movl	$3, -56(%rbp)
.LBB36_68:                              # %return
	movl	-56(%rbp), %eax
	addq	$1600, %rsp             # imm = 0x640
	popq	%rbp
	retq
.LBB36_64:                              # %for.end226
	cmpl	$0, -44(%rbp)
	je	.LBB36_65
# BB#66:                                # %land.rhs
	cmpl	$1, -60(%rbp)
	setne	-77(%rbp)
	setne	-13(%rbp)
	jmp	.LBB36_67
.LBB36_65:                              # %for.end226.land.end_crit_edge
	movb	$0, -13(%rbp)
.LBB36_67:                              # %land.end
	movzbl	-13(%rbp), %eax
	movl	%eax, -56(%rbp)
	jmp	.LBB36_68
.Lfunc_end36:
	.size	huft_build, .Lfunc_end36-huft_build
	.cfi_endproc

	.globl	huft_free
	.p2align	4, 0x90
	.type	huft_free,@function
huft_free:                              # @huft_free
	.cfi_startproc
# BB#0:                                 # %entry
	pushq	%rbp
.Lcfi119:
	.cfi_def_cfa_offset 16
.Lcfi120:
	.cfi_offset %rbp, -16
	movq	%rsp, %rbp
.Lcfi121:
	.cfi_def_cfa_register %rbp
	subq	$32, %rsp
	movq	%rdi, -24(%rbp)
	movq	%rdi, -8(%rbp)
	cmpq	$0, -8(%rbp)
	je	.LBB37_3
	.p2align	4, 0x90
.LBB37_2:                               # %while.body
                                        # =>This Inner Loop Header: Depth=1
	movq	-8(%rbp), %rax
	leaq	-16(%rax), %rcx
	movq	%rcx, -8(%rbp)
	movq	-8(%rax), %rax
	movq	%rax, -16(%rbp)
	movq	-8(%rbp), %rdi
	callq	free
	movq	-16(%rbp), %rax
	movq	%rax, -8(%rbp)
	cmpq	$0, -8(%rbp)
	jne	.LBB37_2
.LBB37_3:                               # %while.end
	xorl	%eax, %eax
	addq	$32, %rsp
	popq	%rbp
	retq
.Lfunc_end37:
	.size	huft_free, .Lfunc_end37-huft_free
	.cfi_endproc

	.globl	inflate_codes
	.p2align	4, 0x90
	.type	inflate_codes,@function
inflate_codes:                          # @inflate_codes
	.cfi_startproc
# BB#0:                                 # %entry
	pushq	%rbp
.Lcfi122:
	.cfi_def_cfa_offset 16
.Lcfi123:
	.cfi_offset %rbp, -16
	movq	%rsp, %rbp
.Lcfi124:
	.cfi_def_cfa_register %rbp
	pushq	%rbx
	subq	$184, %rsp
.Lcfi125:
	.cfi_offset %rbx, -24
	movq	%rdi, -120(%rbp)
	movq	%rsi, -112(%rbp)
	movl	%edx, -96(%rbp)
	movl	%ecx, -92(%rbp)
	movq	bb(%rip), %rax
	movq	%rax, -32(%rbp)
	movl	bk(%rip), %eax
	movl	%eax, -16(%rbp)
	movl	outcnt(%rip), %eax
	movl	%eax, -20(%rbp)
	movslq	-96(%rbp), %rax
	movzwl	mask_bits(%rax,%rax), %eax
	movl	%eax, -104(%rbp)
	movslq	-92(%rbp), %rax
	movzwl	mask_bits(%rax,%rax), %eax
	movl	%eax, -100(%rbp)
	movl	$32767, %ebx            # imm = 0x7FFF
	jmp	.LBB38_2
	.p2align	4, 0x90
.LBB38_1:                               # %cond.end
                                        #   in Loop: Header=BB38_2 Depth=1
	movl	%eax, -60(%rbp)
	movzbl	-60(%rbp), %eax
	movb	-16(%rbp), %cl
	shlq	%cl, %rax
	orq	%rax, -32(%rbp)
	addl	$8, -16(%rbp)
.LBB38_2:                               # %while.cond
                                        # =>This Loop Header: Depth=1
                                        #     Child Loop BB38_7 Depth 2
                                        #       Child Loop BB38_10 Depth 3
                                        #     Child Loop BB38_20 Depth 2
                                        #     Child Loop BB38_26 Depth 2
                                        #     Child Loop BB38_31 Depth 2
                                        #       Child Loop BB38_34 Depth 3
                                        #     Child Loop BB38_41 Depth 2
                                        #     Child Loop BB38_46 Depth 2
                                        #       Child Loop BB38_54 Depth 3
	movl	-16(%rbp), %eax
	cmpl	-96(%rbp), %eax
	jae	.LBB38_6
# BB#3:                                 # %while.body
                                        #   in Loop: Header=BB38_2 Depth=1
	movl	inptr(%rip), %eax
	cmpl	insize(%rip), %eax
	jae	.LBB38_5
# BB#4:                                 # %cond.true
                                        #   in Loop: Header=BB38_2 Depth=1
	movl	inptr(%rip), %eax
	leal	1(%rax), %ecx
	movl	%ecx, inptr(%rip)
	movzbl	inbuf(%rax), %eax
	movl	%eax, -124(%rbp)
	jmp	.LBB38_1
	.p2align	4, 0x90
.LBB38_5:                               # %cond.false
                                        #   in Loop: Header=BB38_2 Depth=1
	movl	-20(%rbp), %eax
	movl	%eax, outcnt(%rip)
	xorl	%edi, %edi
	callq	fill_inbuf
	movl	%eax, -128(%rbp)
	jmp	.LBB38_1
.LBB38_6:                               # %while.end
                                        #   in Loop: Header=BB38_2 Depth=1
	movq	-120(%rbp), %rax
	movl	-32(%rbp), %ecx
	andl	-104(%rbp), %ecx
	shlq	$4, %rcx
	leaq	(%rax,%rcx), %rdx
	movq	%rdx, -48(%rbp)
	movzbl	(%rax,%rcx), %eax
	cmpl	$17, %eax
	movl	%eax, -12(%rbp)
	jb	.LBB38_15
	.p2align	4, 0x90
.LBB38_7:                               # %do.body
                                        #   Parent Loop BB38_2 Depth=1
                                        # =>  This Loop Header: Depth=2
                                        #       Child Loop BB38_10 Depth 3
	cmpl	$99, -12(%rbp)
	je	.LBB38_59
# BB#8:                                 # %if.end
                                        #   in Loop: Header=BB38_7 Depth=2
	movq	-48(%rbp), %rax
	movb	1(%rax), %cl
	shrq	%cl, -32(%rbp)
	movq	-48(%rbp), %rax
	movzbl	1(%rax), %eax
	subl	%eax, -16(%rbp)
	addl	$-16, -12(%rbp)
	jmp	.LBB38_10
	.p2align	4, 0x90
.LBB38_9:                               # %cond.end39
                                        #   in Loop: Header=BB38_10 Depth=3
	movl	%eax, -64(%rbp)
	movzbl	-64(%rbp), %eax
	movzbl	-16(%rbp), %ecx
	shlq	%cl, %rax
	orq	%rax, -32(%rbp)
	addl	$8, -16(%rbp)
.LBB38_10:                              # %while.cond26
                                        #   Parent Loop BB38_2 Depth=1
                                        #     Parent Loop BB38_7 Depth=2
                                        # =>    This Inner Loop Header: Depth=3
	movl	-16(%rbp), %eax
	cmpl	-12(%rbp), %eax
	jae	.LBB38_14
# BB#11:                                # %while.body29
                                        #   in Loop: Header=BB38_10 Depth=3
	movl	inptr(%rip), %eax
	cmpl	insize(%rip), %eax
	jae	.LBB38_13
# BB#12:                                # %cond.true32
                                        #   in Loop: Header=BB38_10 Depth=3
	movl	inptr(%rip), %eax
	leal	1(%rax), %ecx
	movl	%ecx, inptr(%rip)
	movzbl	inbuf(%rax), %eax
	movl	%eax, -132(%rbp)
	jmp	.LBB38_9
	.p2align	4, 0x90
.LBB38_13:                              # %cond.false37
                                        #   in Loop: Header=BB38_10 Depth=3
	movl	-20(%rbp), %eax
	movl	%eax, outcnt(%rip)
	xorl	%edi, %edi
	callq	fill_inbuf
	movl	%eax, -136(%rbp)
	jmp	.LBB38_9
	.p2align	4, 0x90
.LBB38_14:                              # %do.cond
                                        #   in Loop: Header=BB38_7 Depth=2
	movq	-48(%rbp), %rax
	movq	8(%rax), %rax
	movl	-12(%rbp), %ecx
	movzwl	mask_bits(%rcx,%rcx), %ecx
	andl	-32(%rbp), %ecx
	shlq	$4, %rcx
	leaq	(%rax,%rcx), %rdx
	movq	%rdx, -48(%rbp)
	movzbl	(%rax,%rcx), %eax
	cmpl	$16, %eax
	movl	%eax, -12(%rbp)
	ja	.LBB38_7
.LBB38_15:                              # %if.end60
                                        #   in Loop: Header=BB38_2 Depth=1
	movq	-48(%rbp), %rax
	movb	1(%rax), %cl
	shrq	%cl, -32(%rbp)
	movq	-48(%rbp), %rax
	movzbl	1(%rax), %eax
	subl	%eax, -16(%rbp)
	cmpl	$16, -12(%rbp)
	jne	.LBB38_18
# BB#16:                                # %if.then70
                                        #   in Loop: Header=BB38_2 Depth=1
	movq	-48(%rbp), %rax
	movb	8(%rax), %al
	movl	-20(%rbp), %ecx
	leal	1(%rcx), %edx
	movl	%edx, -20(%rbp)
	movb	%al, window(%rcx)
	cmpl	$32768, -20(%rbp)       # imm = 0x8000
	jne	.LBB38_2
# BB#17:                                # %if.then79
                                        #   in Loop: Header=BB38_2 Depth=1
	movl	-20(%rbp), %eax
	movl	%eax, outcnt(%rip)
	callq	flush_window
	movl	$0, -20(%rbp)
	jmp	.LBB38_2
.LBB38_18:                              # %if.else
                                        #   in Loop: Header=BB38_2 Depth=1
	cmpl	$15, -12(%rbp)
	jne	.LBB38_20
	jmp	.LBB38_61
	.p2align	4, 0x90
.LBB38_19:                              # %cond.end98
                                        #   in Loop: Header=BB38_20 Depth=2
	movl	%eax, -68(%rbp)
	movzbl	-68(%rbp), %eax
	movzbl	-16(%rbp), %ecx
	shlq	%cl, %rax
	orq	%rax, -32(%rbp)
	addl	$8, -16(%rbp)
.LBB38_20:                              # %while.cond85
                                        #   Parent Loop BB38_2 Depth=1
                                        # =>  This Inner Loop Header: Depth=2
	movl	-16(%rbp), %eax
	cmpl	-12(%rbp), %eax
	jae	.LBB38_24
# BB#21:                                # %while.body88
                                        #   in Loop: Header=BB38_20 Depth=2
	movl	inptr(%rip), %eax
	cmpl	insize(%rip), %eax
	jae	.LBB38_23
# BB#22:                                # %cond.true91
                                        #   in Loop: Header=BB38_20 Depth=2
	movl	inptr(%rip), %eax
	leal	1(%rax), %ecx
	movl	%ecx, inptr(%rip)
	movzbl	inbuf(%rax), %eax
	movl	%eax, -140(%rbp)
	jmp	.LBB38_19
	.p2align	4, 0x90
.LBB38_23:                              # %cond.false96
                                        #   in Loop: Header=BB38_20 Depth=2
	movl	-20(%rbp), %eax
	movl	%eax, outcnt(%rip)
	xorl	%edi, %edi
	callq	fill_inbuf
	movl	%eax, -144(%rbp)
	jmp	.LBB38_19
.LBB38_24:                              # %while.end106
                                        #   in Loop: Header=BB38_2 Depth=1
	movq	-48(%rbp), %rax
	movzwl	8(%rax), %eax
	movl	-12(%rbp), %ecx
	movzwl	mask_bits(%rcx,%rcx), %edx
	andl	-32(%rbp), %edx
	addl	%eax, %edx
	movb	-12(%rbp), %cl
	shrq	%cl, -32(%rbp)
	movl	%edx, -52(%rbp)
	movl	-12(%rbp), %eax
	subl	%eax, -16(%rbp)
	jmp	.LBB38_26
	.p2align	4, 0x90
.LBB38_25:                              # %cond.end132
                                        #   in Loop: Header=BB38_26 Depth=2
	movl	%eax, -72(%rbp)
	movzbl	-72(%rbp), %eax
	movzbl	-16(%rbp), %ecx
	shlq	%cl, %rax
	orq	%rax, -32(%rbp)
	addl	$8, -16(%rbp)
.LBB38_26:                              # %while.cond119
                                        #   Parent Loop BB38_2 Depth=1
                                        # =>  This Inner Loop Header: Depth=2
	movl	-16(%rbp), %eax
	cmpl	-92(%rbp), %eax
	jae	.LBB38_30
# BB#27:                                # %while.body122
                                        #   in Loop: Header=BB38_26 Depth=2
	movl	inptr(%rip), %eax
	cmpl	insize(%rip), %eax
	jae	.LBB38_29
# BB#28:                                # %cond.true125
                                        #   in Loop: Header=BB38_26 Depth=2
	movl	inptr(%rip), %eax
	leal	1(%rax), %ecx
	movl	%ecx, inptr(%rip)
	movzbl	inbuf(%rax), %eax
	movl	%eax, -148(%rbp)
	jmp	.LBB38_25
	.p2align	4, 0x90
.LBB38_29:                              # %cond.false130
                                        #   in Loop: Header=BB38_26 Depth=2
	movl	-20(%rbp), %eax
	movl	%eax, outcnt(%rip)
	xorl	%edi, %edi
	callq	fill_inbuf
	movl	%eax, -152(%rbp)
	jmp	.LBB38_25
.LBB38_30:                              # %while.end140
                                        #   in Loop: Header=BB38_2 Depth=1
	movq	-112(%rbp), %rax
	movl	-32(%rbp), %ecx
	andl	-100(%rbp), %ecx
	shlq	$4, %rcx
	leaq	(%rax,%rcx), %rdx
	movq	%rdx, -48(%rbp)
	movzbl	(%rax,%rcx), %eax
	cmpl	$17, %eax
	movl	%eax, -12(%rbp)
	jb	.LBB38_39
	.p2align	4, 0x90
.LBB38_31:                              # %do.body150
                                        #   Parent Loop BB38_2 Depth=1
                                        # =>  This Loop Header: Depth=2
                                        #       Child Loop BB38_34 Depth 3
	cmpl	$99, -12(%rbp)
	je	.LBB38_59
# BB#32:                                # %if.end154
                                        #   in Loop: Header=BB38_31 Depth=2
	movq	-48(%rbp), %rax
	movb	1(%rax), %cl
	shrq	%cl, -32(%rbp)
	movq	-48(%rbp), %rax
	movzbl	1(%rax), %eax
	subl	%eax, -16(%rbp)
	addl	$-16, -12(%rbp)
	jmp	.LBB38_34
	.p2align	4, 0x90
.LBB38_33:                              # %cond.end176
                                        #   in Loop: Header=BB38_34 Depth=3
	movl	%eax, -76(%rbp)
	movzbl	-76(%rbp), %eax
	movzbl	-16(%rbp), %ecx
	shlq	%cl, %rax
	orq	%rax, -32(%rbp)
	addl	$8, -16(%rbp)
.LBB38_34:                              # %while.cond163
                                        #   Parent Loop BB38_2 Depth=1
                                        #     Parent Loop BB38_31 Depth=2
                                        # =>    This Inner Loop Header: Depth=3
	movl	-16(%rbp), %eax
	cmpl	-12(%rbp), %eax
	jae	.LBB38_38
# BB#35:                                # %while.body166
                                        #   in Loop: Header=BB38_34 Depth=3
	movl	inptr(%rip), %eax
	cmpl	insize(%rip), %eax
	jae	.LBB38_37
# BB#36:                                # %cond.true169
                                        #   in Loop: Header=BB38_34 Depth=3
	movl	inptr(%rip), %eax
	leal	1(%rax), %ecx
	movl	%ecx, inptr(%rip)
	movzbl	inbuf(%rax), %eax
	movl	%eax, -156(%rbp)
	jmp	.LBB38_33
	.p2align	4, 0x90
.LBB38_37:                              # %cond.false174
                                        #   in Loop: Header=BB38_34 Depth=3
	movl	-20(%rbp), %eax
	movl	%eax, outcnt(%rip)
	xorl	%edi, %edi
	callq	fill_inbuf
	movl	%eax, -160(%rbp)
	jmp	.LBB38_33
	.p2align	4, 0x90
.LBB38_38:                              # %do.cond185
                                        #   in Loop: Header=BB38_31 Depth=2
	movq	-48(%rbp), %rax
	movq	8(%rax), %rax
	movl	-12(%rbp), %ecx
	movzwl	mask_bits(%rcx,%rcx), %ecx
	andl	-32(%rbp), %ecx
	shlq	$4, %rcx
	leaq	(%rax,%rcx), %rdx
	movq	%rdx, -48(%rbp)
	movzbl	(%rax,%rcx), %eax
	cmpl	$16, %eax
	movl	%eax, -12(%rbp)
	ja	.LBB38_31
.LBB38_39:                              # %if.end200
                                        #   in Loop: Header=BB38_2 Depth=1
	movq	-48(%rbp), %rax
	movb	1(%rax), %cl
	shrq	%cl, -32(%rbp)
	movq	-48(%rbp), %rax
	movzbl	1(%rax), %eax
	subl	%eax, -16(%rbp)
	jmp	.LBB38_41
	.p2align	4, 0x90
.LBB38_40:                              # %cond.end221
                                        #   in Loop: Header=BB38_41 Depth=2
	movl	%eax, -80(%rbp)
	movzbl	-80(%rbp), %eax
	movzbl	-16(%rbp), %ecx
	shlq	%cl, %rax
	orq	%rax, -32(%rbp)
	addl	$8, -16(%rbp)
.LBB38_41:                              # %while.cond208
                                        #   Parent Loop BB38_2 Depth=1
                                        # =>  This Inner Loop Header: Depth=2
	movl	-16(%rbp), %eax
	cmpl	-12(%rbp), %eax
	jae	.LBB38_45
# BB#42:                                # %while.body211
                                        #   in Loop: Header=BB38_41 Depth=2
	movl	inptr(%rip), %eax
	cmpl	insize(%rip), %eax
	jae	.LBB38_44
# BB#43:                                # %cond.true214
                                        #   in Loop: Header=BB38_41 Depth=2
	movl	inptr(%rip), %eax
	leal	1(%rax), %ecx
	movl	%ecx, inptr(%rip)
	movzbl	inbuf(%rax), %eax
	movl	%eax, -164(%rbp)
	jmp	.LBB38_40
	.p2align	4, 0x90
.LBB38_44:                              # %cond.false219
                                        #   in Loop: Header=BB38_41 Depth=2
	movl	-20(%rbp), %eax
	movl	%eax, outcnt(%rip)
	xorl	%edi, %edi
	callq	fill_inbuf
	movl	%eax, -168(%rbp)
	jmp	.LBB38_40
.LBB38_45:                              # %while.end229
                                        #   in Loop: Header=BB38_2 Depth=1
	movl	-20(%rbp), %eax
	movq	-48(%rbp), %rcx
	movzwl	8(%rcx), %ecx
	subl	%ecx, %eax
	movl	-12(%rbp), %ecx
	movzwl	mask_bits(%rcx,%rcx), %ecx
	andl	-32(%rbp), %ecx
	subl	%ecx, %eax
	movb	-12(%rbp), %cl
	shrq	%cl, -32(%rbp)
	movl	%eax, -36(%rbp)
	movl	-12(%rbp), %eax
	subl	%eax, -16(%rbp)
	.p2align	4, 0x90
.LBB38_46:                              # %do.body243
                                        #   Parent Loop BB38_2 Depth=1
                                        # =>  This Loop Header: Depth=2
                                        #       Child Loop BB38_54 Depth 3
	movl	-36(%rbp), %eax
	andl	%ebx, %eax
	movl	%eax, -36(%rbp)
	cmpl	-20(%rbp), %eax
	jbe	.LBB38_48
# BB#47:                                # %cond.true247
                                        #   in Loop: Header=BB38_46 Depth=2
	movl	-36(%rbp), %eax
	movl	%eax, -172(%rbp)
	jmp	.LBB38_49
	.p2align	4, 0x90
.LBB38_48:                              # %cond.false248
                                        #   in Loop: Header=BB38_46 Depth=2
	movl	-20(%rbp), %eax
	movl	%eax, -176(%rbp)
.LBB38_49:                              # %cond.end249
                                        #   in Loop: Header=BB38_46 Depth=2
	movl	%eax, -84(%rbp)
	movl	$32768, %eax            # imm = 0x8000
	subl	-84(%rbp), %eax
	movl	%eax, -12(%rbp)
	cmpl	-52(%rbp), %eax
	jbe	.LBB38_51
# BB#50:                                # %cond.true254
                                        #   in Loop: Header=BB38_46 Depth=2
	movl	-52(%rbp), %eax
	movl	%eax, -180(%rbp)
	jmp	.LBB38_52
	.p2align	4, 0x90
.LBB38_51:                              # %cond.false255
                                        #   in Loop: Header=BB38_46 Depth=2
	movl	-12(%rbp), %eax
	movl	%eax, -184(%rbp)
.LBB38_52:                              # %cond.end256
                                        #   in Loop: Header=BB38_46 Depth=2
	movl	%eax, -88(%rbp)
	movl	-88(%rbp), %eax
	subl	%eax, -52(%rbp)
	movl	%eax, -12(%rbp)
	movl	-20(%rbp), %eax
	subl	-36(%rbp), %eax
	cmpl	-12(%rbp), %eax
	jb	.LBB38_54
# BB#53:                                # %if.then262
                                        #   in Loop: Header=BB38_46 Depth=2
	movl	-20(%rbp), %eax
	leaq	window(%rax), %rdi
	movl	-36(%rbp), %eax
	leaq	window(%rax), %rsi
	movl	-12(%rbp), %edx
	callq	memcpy
	movl	-12(%rbp), %eax
	addl	%eax, -20(%rbp)
	movl	-12(%rbp), %eax
	addl	%eax, -36(%rbp)
	cmpl	$32768, -20(%rbp)       # imm = 0x8000
	je	.LBB38_56
	jmp	.LBB38_57
	.p2align	4, 0x90
.LBB38_54:                              # %do.cond278
                                        #   Parent Loop BB38_2 Depth=1
                                        #     Parent Loop BB38_46 Depth=2
                                        # =>    This Inner Loop Header: Depth=3
	movl	-36(%rbp), %eax
	leal	1(%rax), %ecx
	movl	%ecx, -36(%rbp)
	movzbl	window(%rax), %eax
	movl	-20(%rbp), %ecx
	leal	1(%rcx), %edx
	movl	%edx, -20(%rbp)
	movb	%al, window(%rcx)
	decl	-12(%rbp)
	jne	.LBB38_54
# BB#55:                                # %if.end280
                                        #   in Loop: Header=BB38_46 Depth=2
	cmpl	$32768, -20(%rbp)       # imm = 0x8000
	jne	.LBB38_57
.LBB38_56:                              # %if.then283
                                        #   in Loop: Header=BB38_46 Depth=2
	movl	-20(%rbp), %eax
	movl	%eax, outcnt(%rip)
	callq	flush_window
	movl	$0, -20(%rbp)
.LBB38_57:                              # %do.cond285
                                        #   in Loop: Header=BB38_46 Depth=2
	cmpl	$0, -52(%rbp)
	jne	.LBB38_46
	jmp	.LBB38_2
.LBB38_59:                              # %if.then153
	movl	$1, -56(%rbp)
.LBB38_60:                              # %return
	movl	-56(%rbp), %eax
	addq	$184, %rsp
	popq	%rbx
	popq	%rbp
	retq
.LBB38_61:                              # %for.end
	movl	-20(%rbp), %eax
	movl	%eax, outcnt(%rip)
	movq	-32(%rbp), %rax
	movq	%rax, bb(%rip)
	movl	-16(%rbp), %eax
	movl	%eax, bk(%rip)
	movl	$0, -56(%rbp)
	jmp	.LBB38_60
.Lfunc_end38:
	.size	inflate_codes, .Lfunc_end38-inflate_codes
	.cfi_endproc

	.globl	fill_inbuf
	.p2align	4, 0x90
	.type	fill_inbuf,@function
fill_inbuf:                             # @fill_inbuf
	.cfi_startproc
# BB#0:                                 # %entry
	pushq	%rbp
.Lcfi126:
	.cfi_def_cfa_offset 16
.Lcfi127:
	.cfi_offset %rbp, -16
	movq	%rsp, %rbp
.Lcfi128:
	.cfi_def_cfa_register %rbp
	subq	$16, %rsp
	movl	%edi, -12(%rbp)
	movl	$0, insize(%rip)
	.p2align	4, 0x90
.LBB39_1:                               # %do.body
                                        # =>This Inner Loop Header: Depth=1
	movl	ifd(%rip), %edi
	movl	insize(%rip), %eax
	leaq	inbuf(%rax), %rsi
	movl	$32768, %edx            # imm = 0x8000
	subl	%eax, %edx
	callq	read
	movl	%eax, -4(%rbp)
	testl	%eax, %eax
	je	.LBB39_5
# BB#2:                                 # %if.end
                                        #   in Loop: Header=BB39_1 Depth=1
	cmpl	$-1, -4(%rbp)
	je	.LBB39_3
# BB#4:                                 # %do.cond
                                        #   in Loop: Header=BB39_1 Depth=1
	movl	insize(%rip), %eax
	addl	-4(%rbp), %eax
	movl	%eax, insize(%rip)
	cmpl	$32768, %eax            # imm = 0x8000
	jb	.LBB39_1
	jmp	.LBB39_5
.LBB39_3:                               # %if.then5
	callq	read_error
.LBB39_5:                               # %do.end
	cmpl	$0, insize(%rip)
	je	.LBB39_6
.LBB39_9:                               # %if.end15
	movl	insize(%rip), %eax
	addq	%rax, bytes_in(%rip)
	movl	$1, inptr(%rip)
	movzbl	inbuf(%rip), %eax
	movl	%eax, -8(%rbp)
	jmp	.LBB39_10
.LBB39_6:                               # %if.then11
	cmpl	$0, -12(%rbp)
	je	.LBB39_8
# BB#7:                                 # %if.then12
	movl	$-1, -8(%rbp)
.LBB39_10:                              # %return
	movl	-8(%rbp), %eax
	addq	$16, %rsp
	popq	%rbp
	retq
.LBB39_8:                               # %if.end13
	callq	flush_window
	callq	__errno_location
	movl	$0, (%rax)
	callq	read_error
	jmp	.LBB39_9
.Lfunc_end39:
	.size	fill_inbuf, .Lfunc_end39-fill_inbuf
	.cfi_endproc

	.globl	flush_window
	.p2align	4, 0x90
	.type	flush_window,@function
flush_window:                           # @flush_window
	.cfi_startproc
# BB#0:                                 # %entry
	cmpl	$0, outcnt(%rip)
	je	.LBB40_4
# BB#1:                                 # %if.end
	pushq	%rbp
.Lcfi129:
	.cfi_def_cfa_offset 16
.Lcfi130:
	.cfi_offset %rbp, -16
	movq	%rsp, %rbp
.Lcfi131:
	.cfi_def_cfa_register %rbp
	movl	outcnt(%rip), %esi
	movl	$window, %edi
	callq	updcrc
	cmpl	$0, test(%rip)
	jne	.LBB40_3
# BB#2:                                 # %if.then1
	movl	ofd(%rip), %edi
	movl	outcnt(%rip), %edx
	movl	$window, %esi
	callq	write_buf
.LBB40_3:                               # %if.end2
	movl	outcnt(%rip), %eax
	addq	%rax, bytes_out(%rip)
	movl	$0, outcnt(%rip)
	popq	%rbp
.LBB40_4:                               # %return
	retq
.Lfunc_end40:
	.size	flush_window, .Lfunc_end40-flush_window
	.cfi_endproc

	.globl	inflate_stored
	.p2align	4, 0x90
	.type	inflate_stored,@function
inflate_stored:                         # @inflate_stored
	.cfi_startproc
# BB#0:                                 # %entry
	pushq	%rbp
.Lcfi132:
	.cfi_def_cfa_offset 16
.Lcfi133:
	.cfi_offset %rbp, -16
	movq	%rsp, %rbp
.Lcfi134:
	.cfi_def_cfa_register %rbp
	subq	$64, %rsp
	movq	bb(%rip), %rax
	movq	%rax, -16(%rbp)
	movl	bk(%rip), %eax
	movl	%eax, -4(%rbp)
	movl	outcnt(%rip), %eax
	movl	%eax, -8(%rbp)
	movl	-4(%rbp), %ecx
	andl	$7, %ecx
	shrq	%cl, -16(%rbp)
	movl	%ecx, -20(%rbp)
	movl	-20(%rbp), %eax
	subl	%eax, -4(%rbp)
	cmpl	$15, -4(%rbp)
	jbe	.LBB41_2
	jmp	.LBB41_6
	.p2align	4, 0x90
.LBB41_5:                               # %cond.end
                                        #   in Loop: Header=BB41_2 Depth=1
	movl	%eax, -24(%rbp)
	movzbl	-24(%rbp), %eax
	movzbl	-4(%rbp), %ecx
	shlq	%cl, %rax
	orq	%rax, -16(%rbp)
	addl	$8, -4(%rbp)
	cmpl	$15, -4(%rbp)
	ja	.LBB41_6
.LBB41_2:                               # %while.body
                                        # =>This Inner Loop Header: Depth=1
	movl	inptr(%rip), %eax
	cmpl	insize(%rip), %eax
	jae	.LBB41_4
# BB#3:                                 # %cond.true
                                        #   in Loop: Header=BB41_2 Depth=1
	movl	inptr(%rip), %eax
	leal	1(%rax), %ecx
	movl	%ecx, inptr(%rip)
	movzbl	inbuf(%rax), %eax
	movl	%eax, -40(%rbp)
	jmp	.LBB41_5
	.p2align	4, 0x90
.LBB41_4:                               # %cond.false
                                        #   in Loop: Header=BB41_2 Depth=1
	movl	-8(%rbp), %eax
	movl	%eax, outcnt(%rip)
	xorl	%edi, %edi
	callq	fill_inbuf
	movl	%eax, -44(%rbp)
	jmp	.LBB41_5
.LBB41_6:                               # %while.end
	movzwl	-16(%rbp), %eax
	movl	%eax, -20(%rbp)
	shrq	$16, -16(%rbp)
	addl	$-16, -4(%rbp)
	cmpl	$15, -4(%rbp)
	jbe	.LBB41_8
	jmp	.LBB41_12
	.p2align	4, 0x90
.LBB41_11:                              # %cond.end22
                                        #   in Loop: Header=BB41_8 Depth=1
	movl	%eax, -28(%rbp)
	movzbl	-28(%rbp), %eax
	movzbl	-4(%rbp), %ecx
	shlq	%cl, %rax
	orq	%rax, -16(%rbp)
	addl	$8, -4(%rbp)
	cmpl	$15, -4(%rbp)
	ja	.LBB41_12
.LBB41_8:                               # %while.body12
                                        # =>This Inner Loop Header: Depth=1
	movl	inptr(%rip), %eax
	cmpl	insize(%rip), %eax
	jae	.LBB41_10
# BB#9:                                 # %cond.true15
                                        #   in Loop: Header=BB41_8 Depth=1
	movl	inptr(%rip), %eax
	leal	1(%rax), %ecx
	movl	%ecx, inptr(%rip)
	movzbl	inbuf(%rax), %eax
	movl	%eax, -48(%rbp)
	jmp	.LBB41_11
	.p2align	4, 0x90
.LBB41_10:                              # %cond.false20
                                        #   in Loop: Header=BB41_8 Depth=1
	movl	-8(%rbp), %eax
	movl	%eax, outcnt(%rip)
	xorl	%edi, %edi
	callq	fill_inbuf
	movl	%eax, -52(%rbp)
	jmp	.LBB41_11
.LBB41_12:                              # %while.end30
	movl	-16(%rbp), %eax
	notl	%eax
	movzwl	%ax, %eax
	cmpl	%eax, -20(%rbp)
	je	.LBB41_14
# BB#13:                                # %if.then
	movl	$1, -36(%rbp)
	jmp	.LBB41_25
.LBB41_14:                              # %if.end
	shrq	$16, -16(%rbp)
	addl	$-16, -4(%rbp)
	jmp	.LBB41_15
	.p2align	4, 0x90
.LBB41_23:                              # %if.end68
                                        #   in Loop: Header=BB41_15 Depth=1
	shrq	$8, -16(%rbp)
	addl	$-8, -4(%rbp)
.LBB41_15:                              # %while.cond37
                                        # =>This Loop Header: Depth=1
                                        #     Child Loop BB41_16 Depth 2
	movl	-20(%rbp), %eax
	leal	-1(%rax), %ecx
	movl	%ecx, -20(%rbp)
	testl	%eax, %eax
	jne	.LBB41_16
	jmp	.LBB41_24
	.p2align	4, 0x90
.LBB41_20:                              # %cond.end52
                                        #   in Loop: Header=BB41_16 Depth=2
	movl	%eax, -32(%rbp)
	movzbl	-32(%rbp), %eax
	movzbl	-4(%rbp), %ecx
	shlq	%cl, %rax
	orq	%rax, -16(%rbp)
	addl	$8, -4(%rbp)
.LBB41_16:                              # %while.cond39
                                        #   Parent Loop BB41_15 Depth=1
                                        # =>  This Inner Loop Header: Depth=2
	cmpl	$7, -4(%rbp)
	ja	.LBB41_21
# BB#17:                                # %while.body42
                                        #   in Loop: Header=BB41_16 Depth=2
	movl	inptr(%rip), %eax
	cmpl	insize(%rip), %eax
	jae	.LBB41_19
# BB#18:                                # %cond.true45
                                        #   in Loop: Header=BB41_16 Depth=2
	movl	inptr(%rip), %eax
	leal	1(%rax), %ecx
	movl	%ecx, inptr(%rip)
	movzbl	inbuf(%rax), %eax
	movl	%eax, -56(%rbp)
	jmp	.LBB41_20
	.p2align	4, 0x90
.LBB41_19:                              # %cond.false50
                                        #   in Loop: Header=BB41_16 Depth=2
	movl	-8(%rbp), %eax
	movl	%eax, outcnt(%rip)
	xorl	%edi, %edi
	callq	fill_inbuf
	movl	%eax, -60(%rbp)
	jmp	.LBB41_20
	.p2align	4, 0x90
.LBB41_21:                              # %while.end60
                                        #   in Loop: Header=BB41_15 Depth=1
	movb	-16(%rbp), %al
	movl	-8(%rbp), %ecx
	leal	1(%rcx), %edx
	movl	%edx, -8(%rbp)
	movb	%al, window(%rcx)
	cmpl	$32768, -8(%rbp)        # imm = 0x8000
	jne	.LBB41_23
# BB#22:                                # %if.then67
                                        #   in Loop: Header=BB41_15 Depth=1
	movl	-8(%rbp), %eax
	movl	%eax, outcnt(%rip)
	callq	flush_window
	movl	$0, -8(%rbp)
	jmp	.LBB41_23
.LBB41_24:                              # %while.end71
	movl	-8(%rbp), %eax
	movl	%eax, outcnt(%rip)
	movq	-16(%rbp), %rax
	movq	%rax, bb(%rip)
	movl	-4(%rbp), %eax
	movl	%eax, bk(%rip)
	movl	$0, -36(%rbp)
.LBB41_25:                              # %return
	movl	-36(%rbp), %eax
	addq	$64, %rsp
	popq	%rbp
	retq
.Lfunc_end41:
	.size	inflate_stored, .Lfunc_end41-inflate_stored
	.cfi_endproc

	.globl	inflate_fixed
	.p2align	4, 0x90
	.type	inflate_fixed,@function
inflate_fixed:                          # @inflate_fixed
	.cfi_startproc
# BB#0:                                 # %entry
	pushq	%rbp
.Lcfi135:
	.cfi_def_cfa_offset 16
.Lcfi136:
	.cfi_offset %rbp, -16
	movq	%rsp, %rbp
.Lcfi137:
	.cfi_def_cfa_register %rbp
	subq	$1200, %rsp             # imm = 0x4B0
	movl	$0, -4(%rbp)
	cmpl	$143, -4(%rbp)
	jg	.LBB42_3
	.p2align	4, 0x90
.LBB42_2:                               # %for.inc
                                        # =>This Inner Loop Header: Depth=1
	movslq	-4(%rbp), %rax
	movl	$8, -1184(%rbp,%rax,4)
	incl	-4(%rbp)
	cmpl	$143, -4(%rbp)
	jle	.LBB42_2
	jmp	.LBB42_3
	.p2align	4, 0x90
.LBB42_4:                               # %for.inc6
                                        #   in Loop: Header=BB42_3 Depth=1
	movslq	-4(%rbp), %rax
	movl	$9, -1184(%rbp,%rax,4)
	incl	-4(%rbp)
.LBB42_3:                               # %for.cond1
                                        # =>This Inner Loop Header: Depth=1
	cmpl	$255, -4(%rbp)
	jle	.LBB42_4
	jmp	.LBB42_5
	.p2align	4, 0x90
.LBB42_6:                               # %for.inc14
                                        #   in Loop: Header=BB42_5 Depth=1
	movslq	-4(%rbp), %rax
	movl	$7, -1184(%rbp,%rax,4)
	incl	-4(%rbp)
.LBB42_5:                               # %for.cond9
                                        # =>This Inner Loop Header: Depth=1
	cmpl	$279, -4(%rbp)          # imm = 0x117
	jle	.LBB42_6
	jmp	.LBB42_7
	.p2align	4, 0x90
.LBB42_8:                               # %for.inc22
                                        #   in Loop: Header=BB42_7 Depth=1
	movslq	-4(%rbp), %rax
	movl	$8, -1184(%rbp,%rax,4)
	incl	-4(%rbp)
.LBB42_7:                               # %for.cond17
                                        # =>This Inner Loop Header: Depth=1
	cmpl	$287, -4(%rbp)          # imm = 0x11F
	jle	.LBB42_8
# BB#9:                                 # %for.end24
	movl	$7, -16(%rbp)
	leaq	-16(%rbp), %rax
	movq	%rax, (%rsp)
	leaq	-1184(%rbp), %rdi
	leaq	-24(%rbp), %r9
	movl	$288, %esi              # imm = 0x120
	movl	$257, %edx              # imm = 0x101
	movl	$cplens, %ecx
	movl	$cplext, %r8d
	callq	huft_build
	movl	%eax, -4(%rbp)
	testl	%eax, %eax
	jne	.LBB42_10
# BB#11:                                # %if.end
	movl	$0, -4(%rbp)
	cmpl	$29, -4(%rbp)
	jg	.LBB42_14
	.p2align	4, 0x90
.LBB42_13:                              # %for.inc31
                                        # =>This Inner Loop Header: Depth=1
	movslq	-4(%rbp), %rax
	movl	$5, -1184(%rbp,%rax,4)
	incl	-4(%rbp)
	cmpl	$29, -4(%rbp)
	jle	.LBB42_13
.LBB42_14:                              # %for.end33
	movl	$5, -12(%rbp)
	leaq	-12(%rbp), %rax
	movq	%rax, (%rsp)
	leaq	-1184(%rbp), %rdi
	leaq	-32(%rbp), %r9
	movl	$30, %esi
	xorl	%edx, %edx
	movl	$cpdist, %ecx
	movl	$cpdext, %r8d
	callq	huft_build
	movl	%eax, -4(%rbp)
	cmpl	$2, %eax
	jl	.LBB42_16
# BB#15:                                # %if.then37
	movq	-24(%rbp), %rdi
	callq	huft_free
.LBB42_10:                              # %if.then
	movl	-4(%rbp), %eax
	movl	%eax, -8(%rbp)
.LBB42_19:                              # %return
	movl	-8(%rbp), %eax
	addq	$1200, %rsp             # imm = 0x4B0
	popq	%rbp
	retq
.LBB42_16:                              # %if.end39
	movq	-24(%rbp), %rdi
	movq	-32(%rbp), %rsi
	movl	-16(%rbp), %edx
	movl	-12(%rbp), %ecx
	callq	inflate_codes
	testl	%eax, %eax
	je	.LBB42_18
# BB#17:                                # %if.then41
	movl	$1, -8(%rbp)
	jmp	.LBB42_19
.LBB42_18:                              # %if.end42
	movq	-24(%rbp), %rdi
	callq	huft_free
	movq	-32(%rbp), %rdi
	callq	huft_free
	movl	$0, -8(%rbp)
	jmp	.LBB42_19
.Lfunc_end42:
	.size	inflate_fixed, .Lfunc_end42-inflate_fixed
	.cfi_endproc

	.globl	inflate_dynamic
	.p2align	4, 0x90
	.type	inflate_dynamic,@function
inflate_dynamic:                        # @inflate_dynamic
	.cfi_startproc
# BB#0:                                 # %entry
	pushq	%rbp
.Lcfi138:
	.cfi_def_cfa_offset 16
.Lcfi139:
	.cfi_offset %rbp, -16
	movq	%rsp, %rbp
.Lcfi140:
	.cfi_def_cfa_register %rbp
	pushq	%rbx
	subq	$1464, %rsp             # imm = 0x5B8
.Lcfi141:
	.cfi_offset %rbx, -24
	movq	bb(%rip), %rax
	movq	%rax, -32(%rbp)
	movl	bk(%rip), %eax
	movl	%eax, -12(%rbp)
	movl	outcnt(%rip), %eax
	movl	%eax, -40(%rbp)
	cmpl	$4, -12(%rbp)
	ja	.LBB43_5
	.p2align	4, 0x90
.LBB43_2:                               # %while.body
                                        # =>This Inner Loop Header: Depth=1
	movl	inptr(%rip), %eax
	cmpl	insize(%rip), %eax
	jae	.LBB43_4
# BB#3:                                 # %cond.true
                                        #   in Loop: Header=BB43_2 Depth=1
	movl	inptr(%rip), %eax
	leal	1(%rax), %ecx
	movl	%ecx, inptr(%rip)
	movzbl	inbuf(%rax), %eax
	movl	%eax, -128(%rbp)
	jmp	.LBB43_1
	.p2align	4, 0x90
.LBB43_4:                               # %cond.false
                                        #   in Loop: Header=BB43_2 Depth=1
	movl	-40(%rbp), %eax
	movl	%eax, outcnt(%rip)
	xorl	%edi, %edi
	callq	fill_inbuf
	movl	%eax, -132(%rbp)
.LBB43_1:                               # %cond.end
                                        #   in Loop: Header=BB43_2 Depth=1
	movl	%eax, -84(%rbp)
	movzbl	-84(%rbp), %eax
	movzbl	-12(%rbp), %ecx
	shlq	%cl, %rax
	orq	%rax, -32(%rbp)
	addl	$8, -12(%rbp)
	cmpl	$4, -12(%rbp)
	jbe	.LBB43_2
.LBB43_5:                               # %while.end
	movl	-32(%rbp), %eax
	andl	$31, %eax
	addl	$257, %eax              # imm = 0x101
	movl	%eax, -60(%rbp)
	shrq	$5, -32(%rbp)
	addl	$-5, -12(%rbp)
	cmpl	$4, -12(%rbp)
	ja	.LBB43_10
	.p2align	4, 0x90
.LBB43_7:                               # %while.body9
                                        # =>This Inner Loop Header: Depth=1
	movl	inptr(%rip), %eax
	cmpl	insize(%rip), %eax
	jae	.LBB43_9
# BB#8:                                 # %cond.true12
                                        #   in Loop: Header=BB43_7 Depth=1
	movl	inptr(%rip), %eax
	leal	1(%rax), %ecx
	movl	%ecx, inptr(%rip)
	movzbl	inbuf(%rax), %eax
	movl	%eax, -136(%rbp)
	jmp	.LBB43_6
	.p2align	4, 0x90
.LBB43_9:                               # %cond.false17
                                        #   in Loop: Header=BB43_7 Depth=1
	movl	-40(%rbp), %eax
	movl	%eax, outcnt(%rip)
	xorl	%edi, %edi
	callq	fill_inbuf
	movl	%eax, -140(%rbp)
.LBB43_6:                               # %cond.end19
                                        #   in Loop: Header=BB43_7 Depth=1
	movl	%eax, -88(%rbp)
	movzbl	-88(%rbp), %eax
	movzbl	-12(%rbp), %ecx
	shlq	%cl, %rax
	orq	%rax, -32(%rbp)
	addl	$8, -12(%rbp)
	cmpl	$4, -12(%rbp)
	jbe	.LBB43_7
.LBB43_10:                              # %while.end27
	movl	-32(%rbp), %eax
	andl	$31, %eax
	incl	%eax
	movl	%eax, -72(%rbp)
	shrq	$5, -32(%rbp)
	addl	$-5, -12(%rbp)
	cmpl	$3, -12(%rbp)
	ja	.LBB43_15
	.p2align	4, 0x90
.LBB43_12:                              # %while.body36
                                        # =>This Inner Loop Header: Depth=1
	movl	inptr(%rip), %eax
	cmpl	insize(%rip), %eax
	jae	.LBB43_14
# BB#13:                                # %cond.true39
                                        #   in Loop: Header=BB43_12 Depth=1
	movl	inptr(%rip), %eax
	leal	1(%rax), %ecx
	movl	%ecx, inptr(%rip)
	movzbl	inbuf(%rax), %eax
	movl	%eax, -144(%rbp)
	jmp	.LBB43_11
	.p2align	4, 0x90
.LBB43_14:                              # %cond.false44
                                        #   in Loop: Header=BB43_12 Depth=1
	movl	-40(%rbp), %eax
	movl	%eax, outcnt(%rip)
	xorl	%edi, %edi
	callq	fill_inbuf
	movl	%eax, -148(%rbp)
.LBB43_11:                              # %cond.end46
                                        #   in Loop: Header=BB43_12 Depth=1
	movl	%eax, -92(%rbp)
	movzbl	-92(%rbp), %eax
	movzbl	-12(%rbp), %ecx
	shlq	%cl, %rax
	orq	%rax, -32(%rbp)
	addl	$8, -12(%rbp)
	cmpl	$3, -12(%rbp)
	jbe	.LBB43_12
.LBB43_15:                              # %while.end54
	movl	-32(%rbp), %eax
	andl	$15, %eax
	addl	$4, %eax
	movl	%eax, -120(%rbp)
	shrq	$4, -32(%rbp)
	addl	$-4, -12(%rbp)
	cmpl	$286, -60(%rbp)         # imm = 0x11E
	ja	.LBB43_17
# BB#16:                                # %lor.lhs.false
	cmpl	$31, -72(%rbp)
	jb	.LBB43_18
.LBB43_17:                              # %if.then
	movl	$1, -36(%rbp)
	jmp	.LBB43_32
.LBB43_18:                              # %if.end
	movl	$0, -16(%rbp)
	jmp	.LBB43_20
	.p2align	4, 0x90
.LBB43_19:                              # %for.inc
                                        #   in Loop: Header=BB43_20 Depth=1
	movl	-32(%rbp), %eax
	andl	$7, %eax
	movl	-16(%rbp), %ecx
	movl	border(,%rcx,4), %ecx
	movl	%eax, -1456(%rbp,%rcx,4)
	shrq	$3, -32(%rbp)
	addl	$-3, -12(%rbp)
	incl	-16(%rbp)
.LBB43_20:                              # %for.cond
                                        # =>This Loop Header: Depth=1
                                        #     Child Loop BB43_22 Depth 2
	movl	-16(%rbp), %eax
	cmpl	-120(%rbp), %eax
	jb	.LBB43_22
	jmp	.LBB43_27
	.p2align	4, 0x90
.LBB43_21:                              # %cond.end79
                                        #   in Loop: Header=BB43_22 Depth=2
	movl	%eax, -96(%rbp)
	movzbl	-96(%rbp), %eax
	movzbl	-12(%rbp), %ecx
	shlq	%cl, %rax
	orq	%rax, -32(%rbp)
	addl	$8, -12(%rbp)
.LBB43_22:                              # %while.cond66
                                        #   Parent Loop BB43_20 Depth=1
                                        # =>  This Inner Loop Header: Depth=2
	cmpl	$2, -12(%rbp)
	ja	.LBB43_19
# BB#23:                                # %while.body69
                                        #   in Loop: Header=BB43_22 Depth=2
	movl	inptr(%rip), %eax
	cmpl	insize(%rip), %eax
	jae	.LBB43_25
# BB#24:                                # %cond.true72
                                        #   in Loop: Header=BB43_22 Depth=2
	movl	inptr(%rip), %eax
	leal	1(%rax), %ecx
	movl	%ecx, inptr(%rip)
	movzbl	inbuf(%rax), %eax
	movl	%eax, -152(%rbp)
	jmp	.LBB43_21
	.p2align	4, 0x90
.LBB43_25:                              # %cond.false77
                                        #   in Loop: Header=BB43_22 Depth=2
	movl	-40(%rbp), %eax
	movl	%eax, outcnt(%rip)
	xorl	%edi, %edi
	callq	fill_inbuf
	movl	%eax, -156(%rbp)
	jmp	.LBB43_21
	.p2align	4, 0x90
.LBB43_26:                              # %for.inc105
                                        #   in Loop: Header=BB43_27 Depth=1
	movl	-16(%rbp), %eax
	movl	border(,%rax,4), %eax
	movl	$0, -1456(%rbp,%rax,4)
	incl	-16(%rbp)
.LBB43_27:                              # %for.cond97
                                        # =>This Inner Loop Header: Depth=1
	cmpl	$18, -16(%rbp)
	jbe	.LBB43_26
# BB#28:                                # %for.end107
	movl	$7, -44(%rbp)
	leaq	-44(%rbp), %rbx
	movq	%rbx, (%rsp)
	leaq	-1456(%rbp), %rdi
	leaq	-56(%rbp), %r9
	movl	$19, %esi
	movl	$19, %edx
	xorl	%ecx, %ecx
	xorl	%r8d, %r8d
	callq	huft_build
	movl	%eax, -20(%rbp)
	testl	%eax, %eax
	je	.LBB43_33
# BB#29:                                # %if.then111
	cmpl	$1, -20(%rbp)
	jne	.LBB43_31
.LBB43_30:                              # %if.then114
	movq	-56(%rbp), %rdi
	callq	huft_free
.LBB43_31:                              # %if.end116
	movl	-20(%rbp), %eax
	movl	%eax, -36(%rbp)
.LBB43_32:                              # %return
	movl	-36(%rbp), %eax
	addq	$1464, %rsp             # imm = 0x5B8
	popq	%rbx
	popq	%rbp
	retq
.LBB43_33:                              # %if.end117
	cmpq	$0, -56(%rbp)
	je	.LBB43_74
# BB#34:                                # %if.end121
	movl	-60(%rbp), %eax
	addl	-72(%rbp), %eax
	movl	%eax, -64(%rbp)
	movslq	-44(%rbp), %rax
	movzwl	mask_bits(%rax,%rax), %eax
	movl	%eax, -124(%rbp)
	movl	$0, -68(%rbp)
	movl	$0, -20(%rbp)
	jmp	.LBB43_36
	.p2align	4, 0x90
.LBB43_35:                              # %if.then163
                                        #   in Loop: Header=BB43_36 Depth=1
	movl	-16(%rbp), %eax
	movl	%eax, -68(%rbp)
	movslq	-20(%rbp), %rcx
	leal	1(%rcx), %edx
	movl	%edx, -20(%rbp)
	movl	%eax, -1456(%rbp,%rcx,4)
.LBB43_36:                              # %while.cond126
                                        # =>This Loop Header: Depth=1
                                        #     Child Loop BB43_38 Depth 2
                                        #     Child Loop BB43_56 Depth 2
                                        #     Child Loop BB43_69 Depth 2
                                        #     Child Loop BB43_51 Depth 2
                                        #     Child Loop BB43_65 Depth 2
                                        #     Child Loop BB43_46 Depth 2
                                        #     Child Loop BB43_62 Depth 2
	movl	-20(%rbp), %eax
	cmpl	-64(%rbp), %eax
	jb	.LBB43_38
	jmp	.LBB43_71
	.p2align	4, 0x90
.LBB43_37:                              # %cond.end143
                                        #   in Loop: Header=BB43_38 Depth=2
	movl	%eax, -100(%rbp)
	movzbl	-100(%rbp), %eax
	movzbl	-12(%rbp), %ecx
	shlq	%cl, %rax
	orq	%rax, -32(%rbp)
	addl	$8, -12(%rbp)
.LBB43_38:                              # %while.cond130
                                        #   Parent Loop BB43_36 Depth=1
                                        # =>  This Inner Loop Header: Depth=2
	movl	-12(%rbp), %eax
	cmpl	-44(%rbp), %eax
	jae	.LBB43_42
# BB#39:                                # %while.body133
                                        #   in Loop: Header=BB43_38 Depth=2
	movl	inptr(%rip), %eax
	cmpl	insize(%rip), %eax
	jae	.LBB43_41
# BB#40:                                # %cond.true136
                                        #   in Loop: Header=BB43_38 Depth=2
	movl	inptr(%rip), %eax
	leal	1(%rax), %ecx
	movl	%ecx, inptr(%rip)
	movzbl	inbuf(%rax), %eax
	movl	%eax, -160(%rbp)
	jmp	.LBB43_37
	.p2align	4, 0x90
.LBB43_41:                              # %cond.false141
                                        #   in Loop: Header=BB43_38 Depth=2
	movl	-40(%rbp), %eax
	movl	%eax, outcnt(%rip)
	xorl	%edi, %edi
	callq	fill_inbuf
	movl	%eax, -164(%rbp)
	jmp	.LBB43_37
	.p2align	4, 0x90
.LBB43_42:                              # %while.end151
                                        #   in Loop: Header=BB43_36 Depth=1
	movq	-56(%rbp), %rax
	movl	-32(%rbp), %ecx
	andl	-124(%rbp), %ecx
	shlq	$4, %rcx
	leaq	(%rax,%rcx), %rdx
	movq	%rdx, -80(%rbp)
	movzbl	1(%rax,%rcx), %ecx
	shrq	%cl, -32(%rbp)
	movl	%ecx, -16(%rbp)
	movl	-16(%rbp), %eax
	subl	%eax, -12(%rbp)
	movq	-80(%rbp), %rax
	movzwl	8(%rax), %eax
	cmpl	$15, %eax
	movl	%eax, -16(%rbp)
	jbe	.LBB43_35
# BB#43:                                # %if.else
                                        #   in Loop: Header=BB43_36 Depth=1
	cmpl	$16, -16(%rbp)
	je	.LBB43_46
# BB#44:                                # %if.else208
                                        #   in Loop: Header=BB43_36 Depth=1
	cmpl	$17, -16(%rbp)
	jne	.LBB43_56
	jmp	.LBB43_51
	.p2align	4, 0x90
.LBB43_45:                              # %cond.end183
                                        #   in Loop: Header=BB43_46 Depth=2
	movl	%eax, -104(%rbp)
	movzbl	-104(%rbp), %eax
	movzbl	-12(%rbp), %ecx
	shlq	%cl, %rax
	orq	%rax, -32(%rbp)
	addl	$8, -12(%rbp)
.LBB43_46:                              # %while.cond170
                                        #   Parent Loop BB43_36 Depth=1
                                        # =>  This Inner Loop Header: Depth=2
	cmpl	$1, -12(%rbp)
	ja	.LBB43_60
# BB#47:                                # %while.body173
                                        #   in Loop: Header=BB43_46 Depth=2
	movl	inptr(%rip), %eax
	cmpl	insize(%rip), %eax
	jae	.LBB43_49
# BB#48:                                # %cond.true176
                                        #   in Loop: Header=BB43_46 Depth=2
	movl	inptr(%rip), %eax
	leal	1(%rax), %ecx
	movl	%ecx, inptr(%rip)
	movzbl	inbuf(%rax), %eax
	movl	%eax, -168(%rbp)
	jmp	.LBB43_45
	.p2align	4, 0x90
.LBB43_49:                              # %cond.false181
                                        #   in Loop: Header=BB43_46 Depth=2
	movl	-40(%rbp), %eax
	movl	%eax, outcnt(%rip)
	xorl	%edi, %edi
	callq	fill_inbuf
	movl	%eax, -172(%rbp)
	jmp	.LBB43_45
	.p2align	4, 0x90
.LBB43_50:                              # %cond.end225
                                        #   in Loop: Header=BB43_51 Depth=2
	movl	%eax, -108(%rbp)
	movzbl	-108(%rbp), %eax
	movzbl	-12(%rbp), %ecx
	shlq	%cl, %rax
	orq	%rax, -32(%rbp)
	addl	$8, -12(%rbp)
.LBB43_51:                              # %while.cond212
                                        #   Parent Loop BB43_36 Depth=1
                                        # =>  This Inner Loop Header: Depth=2
	cmpl	$2, -12(%rbp)
	ja	.LBB43_63
# BB#52:                                # %while.body215
                                        #   in Loop: Header=BB43_51 Depth=2
	movl	inptr(%rip), %eax
	cmpl	insize(%rip), %eax
	jae	.LBB43_54
# BB#53:                                # %cond.true218
                                        #   in Loop: Header=BB43_51 Depth=2
	movl	inptr(%rip), %eax
	leal	1(%rax), %ecx
	movl	%ecx, inptr(%rip)
	movzbl	inbuf(%rax), %eax
	movl	%eax, -176(%rbp)
	jmp	.LBB43_50
	.p2align	4, 0x90
.LBB43_54:                              # %cond.false223
                                        #   in Loop: Header=BB43_51 Depth=2
	movl	-40(%rbp), %eax
	movl	%eax, outcnt(%rip)
	xorl	%edi, %edi
	callq	fill_inbuf
	movl	%eax, -180(%rbp)
	jmp	.LBB43_50
	.p2align	4, 0x90
.LBB43_55:                              # %cond.end266
                                        #   in Loop: Header=BB43_56 Depth=2
	movl	%eax, -112(%rbp)
	movzbl	-112(%rbp), %eax
	movzbl	-12(%rbp), %ecx
	shlq	%cl, %rax
	orq	%rax, -32(%rbp)
	addl	$8, -12(%rbp)
.LBB43_56:                              # %while.cond253
                                        #   Parent Loop BB43_36 Depth=1
                                        # =>  This Inner Loop Header: Depth=2
	cmpl	$6, -12(%rbp)
	ja	.LBB43_67
# BB#57:                                # %while.body256
                                        #   in Loop: Header=BB43_56 Depth=2
	movl	inptr(%rip), %eax
	cmpl	insize(%rip), %eax
	jae	.LBB43_59
# BB#58:                                # %cond.true259
                                        #   in Loop: Header=BB43_56 Depth=2
	movl	inptr(%rip), %eax
	leal	1(%rax), %ecx
	movl	%ecx, inptr(%rip)
	movzbl	inbuf(%rax), %eax
	movl	%eax, -184(%rbp)
	jmp	.LBB43_55
	.p2align	4, 0x90
.LBB43_59:                              # %cond.false264
                                        #   in Loop: Header=BB43_56 Depth=2
	movl	-40(%rbp), %eax
	movl	%eax, outcnt(%rip)
	xorl	%edi, %edi
	callq	fill_inbuf
	movl	%eax, -188(%rbp)
	jmp	.LBB43_55
	.p2align	4, 0x90
.LBB43_60:                              # %while.end191
                                        #   in Loop: Header=BB43_36 Depth=1
	movl	-32(%rbp), %eax
	andl	$3, %eax
	addl	$3, %eax
	shrq	$2, -32(%rbp)
	addl	$-2, -12(%rbp)
	movl	%eax, -16(%rbp)
	movl	-20(%rbp), %eax
	addl	-16(%rbp), %eax
	cmpl	-64(%rbp), %eax
	jbe	.LBB43_62
	jmp	.LBB43_78
	.p2align	4, 0x90
.LBB43_61:                              # %while.body203
                                        #   in Loop: Header=BB43_62 Depth=2
	movl	-68(%rbp), %eax
	movslq	-20(%rbp), %rcx
	leal	1(%rcx), %edx
	movl	%edx, -20(%rbp)
	movl	%eax, -1456(%rbp,%rcx,4)
.LBB43_62:                              # %while.cond202
                                        #   Parent Loop BB43_36 Depth=1
                                        # =>  This Inner Loop Header: Depth=2
	movl	-16(%rbp), %eax
	leal	-1(%rax), %ecx
	movl	%ecx, -16(%rbp)
	testl	%eax, %eax
	jne	.LBB43_61
	jmp	.LBB43_36
.LBB43_63:                              # %while.end233
                                        #   in Loop: Header=BB43_36 Depth=1
	movl	-32(%rbp), %eax
	andl	$7, %eax
	addl	$3, %eax
	shrq	$3, -32(%rbp)
	addl	$-3, -12(%rbp)
	movl	%eax, -16(%rbp)
	movl	-20(%rbp), %eax
	addl	-16(%rbp), %eax
	cmpl	-64(%rbp), %eax
	jbe	.LBB43_65
	jmp	.LBB43_82
	.p2align	4, 0x90
.LBB43_64:                              # %while.body247
                                        #   in Loop: Header=BB43_65 Depth=2
	movslq	-20(%rbp), %rax
	leal	1(%rax), %ecx
	movl	%ecx, -20(%rbp)
	movl	$0, -1456(%rbp,%rax,4)
.LBB43_65:                              # %while.cond244
                                        #   Parent Loop BB43_36 Depth=1
                                        # =>  This Inner Loop Header: Depth=2
	movl	-16(%rbp), %eax
	leal	-1(%rax), %ecx
	movl	%ecx, -16(%rbp)
	testl	%eax, %eax
	jne	.LBB43_64
# BB#66:                                # %while.end251
                                        #   in Loop: Header=BB43_36 Depth=1
	movl	$0, -68(%rbp)
	jmp	.LBB43_36
.LBB43_67:                              # %while.end274
                                        #   in Loop: Header=BB43_36 Depth=1
	movl	-32(%rbp), %eax
	andl	$127, %eax
	addl	$11, %eax
	shrq	$7, -32(%rbp)
	addl	$-7, -12(%rbp)
	movl	%eax, -16(%rbp)
	movl	-20(%rbp), %eax
	addl	-16(%rbp), %eax
	cmpl	-64(%rbp), %eax
	jbe	.LBB43_69
	jmp	.LBB43_82
	.p2align	4, 0x90
.LBB43_68:                              # %while.body288
                                        #   in Loop: Header=BB43_69 Depth=2
	movslq	-20(%rbp), %rax
	leal	1(%rax), %ecx
	movl	%ecx, -20(%rbp)
	movl	$0, -1456(%rbp,%rax,4)
.LBB43_69:                              # %while.cond285
                                        #   Parent Loop BB43_36 Depth=1
                                        # =>  This Inner Loop Header: Depth=2
	movl	-16(%rbp), %eax
	leal	-1(%rax), %ecx
	movl	%ecx, -16(%rbp)
	testl	%eax, %eax
	jne	.LBB43_68
# BB#70:                                # %while.end292
                                        #   in Loop: Header=BB43_36 Depth=1
	movl	$0, -68(%rbp)
	jmp	.LBB43_36
.LBB43_71:                              # %while.end296
	movq	-56(%rbp), %rdi
	callq	huft_free
	movq	-32(%rbp), %rax
	movq	%rax, bb(%rip)
	movl	-12(%rbp), %eax
	movl	%eax, bk(%rip)
	movl	lbits(%rip), %eax
	movl	%eax, -44(%rbp)
	movl	-60(%rbp), %esi
	movq	%rbx, (%rsp)
	leaq	-1456(%rbp), %rdi
	leaq	-56(%rbp), %r9
	movl	$257, %edx              # imm = 0x101
	movl	$cplens, %ecx
	movl	$cplext, %r8d
	callq	huft_build
	movl	%eax, -20(%rbp)
	testl	%eax, %eax
	je	.LBB43_75
# BB#72:                                # %if.then302
	cmpl	$1, -20(%rbp)
	jne	.LBB43_31
# BB#73:                                # %if.then305
	movq	stderr(%rip), %rdi
	movl	$.L.str.50, %esi
	xorl	%eax, %eax
	callq	fprintf
	jmp	.LBB43_30
.LBB43_74:                              # %if.then120
	movl	$2, -36(%rbp)
	jmp	.LBB43_32
.LBB43_75:                              # %if.end309
	movl	dbits(%rip), %eax
	movl	%eax, -116(%rbp)
	movl	-60(%rbp), %eax
	leaq	-1456(%rbp,%rax,4), %rdi
	movl	-72(%rbp), %esi
	leaq	-116(%rbp), %rax
	movq	%rax, (%rsp)
	leaq	-80(%rbp), %r9
	xorl	%edx, %edx
	movl	$cpdist, %ecx
	movl	$cpdext, %r8d
	callq	huft_build
	movl	%eax, -20(%rbp)
	testl	%eax, %eax
	je	.LBB43_79
# BB#76:                                # %if.then316
	cmpl	$1, -20(%rbp)
	jne	.LBB43_30
# BB#77:                                # %if.then319
	movq	stderr(%rip), %rdi
	movl	$.L.str.51, %esi
	xorl	%eax, %eax
	callq	fprintf
	movq	-80(%rbp), %rdi
	callq	huft_free
	jmp	.LBB43_30
.LBB43_78:                              # %if.then200
	movl	$1, -36(%rbp)
	jmp	.LBB43_32
.LBB43_79:                              # %if.end324
	movq	-56(%rbp), %rdi
	movq	-80(%rbp), %rsi
	movl	-44(%rbp), %edx
	movl	-116(%rbp), %ecx
	callq	inflate_codes
	testl	%eax, %eax
	je	.LBB43_83
.LBB43_82:                              # %if.then283
	movl	$1, -36(%rbp)
	jmp	.LBB43_32
.LBB43_83:                              # %if.end328
	movq	-56(%rbp), %rdi
	callq	huft_free
	movq	-80(%rbp), %rdi
	callq	huft_free
	movl	$0, -36(%rbp)
	jmp	.LBB43_32
.Lfunc_end43:
	.size	inflate_dynamic, .Lfunc_end43-inflate_dynamic
	.cfi_endproc

	.globl	inflate_block
	.p2align	4, 0x90
	.type	inflate_block,@function
inflate_block:                          # @inflate_block
	.cfi_startproc
# BB#0:                                 # %entry
	pushq	%rbp
.Lcfi142:
	.cfi_def_cfa_offset 16
.Lcfi143:
	.cfi_offset %rbp, -16
	movq	%rsp, %rbp
.Lcfi144:
	.cfi_def_cfa_register %rbp
	subq	$64, %rsp
	movq	%rdi, -40(%rbp)
	movq	bb(%rip), %rax
	movq	%rax, -16(%rbp)
	movl	bk(%rip), %eax
	movl	%eax, -4(%rbp)
	movl	outcnt(%rip), %eax
	movl	%eax, -32(%rbp)
	cmpl	$0, -4(%rbp)
	je	.LBB44_2
	jmp	.LBB44_6
	.p2align	4, 0x90
.LBB44_5:                               # %cond.end
                                        #   in Loop: Header=BB44_2 Depth=1
	movl	%eax, -24(%rbp)
	movzbl	-24(%rbp), %eax
	movzbl	-4(%rbp), %ecx
	shlq	%cl, %rax
	orq	%rax, -16(%rbp)
	addl	$8, -4(%rbp)
	cmpl	$0, -4(%rbp)
	jne	.LBB44_6
.LBB44_2:                               # %while.body
                                        # =>This Inner Loop Header: Depth=1
	movl	inptr(%rip), %eax
	cmpl	insize(%rip), %eax
	jae	.LBB44_4
# BB#3:                                 # %cond.true
                                        #   in Loop: Header=BB44_2 Depth=1
	movl	inptr(%rip), %eax
	leal	1(%rax), %ecx
	movl	%ecx, inptr(%rip)
	movzbl	inbuf(%rax), %eax
	movl	%eax, -44(%rbp)
	jmp	.LBB44_5
	.p2align	4, 0x90
.LBB44_4:                               # %cond.false
                                        #   in Loop: Header=BB44_2 Depth=1
	movl	-32(%rbp), %eax
	movl	%eax, outcnt(%rip)
	xorl	%edi, %edi
	callq	fill_inbuf
	movl	%eax, -48(%rbp)
	jmp	.LBB44_5
.LBB44_6:                               # %while.end
	movl	-16(%rbp), %eax
	andl	$1, %eax
	movq	-40(%rbp), %rcx
	movl	%eax, (%rcx)
	shrq	-16(%rbp)
	decl	-4(%rbp)
	cmpl	$1, -4(%rbp)
	jbe	.LBB44_8
	jmp	.LBB44_12
	.p2align	4, 0x90
.LBB44_11:                              # %cond.end18
                                        #   in Loop: Header=BB44_8 Depth=1
	movl	%eax, -28(%rbp)
	movzbl	-28(%rbp), %eax
	movzbl	-4(%rbp), %ecx
	shlq	%cl, %rax
	orq	%rax, -16(%rbp)
	addl	$8, -4(%rbp)
	cmpl	$1, -4(%rbp)
	ja	.LBB44_12
.LBB44_8:                               # %while.body8
                                        # =>This Inner Loop Header: Depth=1
	movl	inptr(%rip), %eax
	cmpl	insize(%rip), %eax
	jae	.LBB44_10
# BB#9:                                 # %cond.true11
                                        #   in Loop: Header=BB44_8 Depth=1
	movl	inptr(%rip), %eax
	leal	1(%rax), %ecx
	movl	%ecx, inptr(%rip)
	movzbl	inbuf(%rax), %eax
	movl	%eax, -52(%rbp)
	jmp	.LBB44_11
	.p2align	4, 0x90
.LBB44_10:                              # %cond.false16
                                        #   in Loop: Header=BB44_8 Depth=1
	movl	-32(%rbp), %eax
	movl	%eax, outcnt(%rip)
	xorl	%edi, %edi
	callq	fill_inbuf
	movl	%eax, -56(%rbp)
	jmp	.LBB44_11
.LBB44_12:                              # %while.end26
	movl	-16(%rbp), %eax
	andl	$3, %eax
	movl	%eax, -20(%rbp)
	shrq	$2, -16(%rbp)
	addl	$-2, -4(%rbp)
	movq	-16(%rbp), %rax
	movq	%rax, bb(%rip)
	movl	-4(%rbp), %eax
	movl	%eax, bk(%rip)
	cmpl	$2, -20(%rbp)
	jne	.LBB44_14
# BB#13:                                # %if.then
	callq	inflate_dynamic
	movl	%eax, -8(%rbp)
	jmp	.LBB44_19
.LBB44_14:                              # %if.end
	cmpl	$0, -20(%rbp)
	je	.LBB44_15
# BB#16:                                # %if.end38
	cmpl	$1, -20(%rbp)
	jne	.LBB44_18
# BB#17:                                # %if.then41
	callq	inflate_fixed
	movl	%eax, -8(%rbp)
	jmp	.LBB44_19
.LBB44_15:                              # %if.then36
	callq	inflate_stored
	movl	%eax, -8(%rbp)
	jmp	.LBB44_19
.LBB44_18:                              # %if.end43
	movl	$2, -8(%rbp)
.LBB44_19:                              # %return
	movl	-8(%rbp), %eax
	addq	$64, %rsp
	popq	%rbp
	retq
.Lfunc_end44:
	.size	inflate_block, .Lfunc_end44-inflate_block
	.cfi_endproc

	.globl	inflate
	.p2align	4, 0x90
	.type	inflate,@function
inflate:                                # @inflate
	.cfi_startproc
# BB#0:                                 # %entry
	pushq	%rbp
.Lcfi145:
	.cfi_def_cfa_offset 16
.Lcfi146:
	.cfi_offset %rbp, -16
	movq	%rsp, %rbp
.Lcfi147:
	.cfi_def_cfa_register %rbp
	pushq	%rbx
	subq	$24, %rsp
.Lcfi148:
	.cfi_offset %rbx, -24
	movl	$0, outcnt(%rip)
	movl	$0, bk(%rip)
	movq	$0, bb(%rip)
	movl	$0, -12(%rbp)
	leaq	-24(%rbp), %rbx
	.p2align	4, 0x90
.LBB45_1:                               # %do.body
                                        # =>This Inner Loop Header: Depth=1
	movl	$0, hufts(%rip)
	movq	%rbx, %rdi
	callq	inflate_block
	movl	%eax, -20(%rbp)
	testl	%eax, %eax
	jne	.LBB45_2
# BB#3:                                 # %if.end
                                        #   in Loop: Header=BB45_1 Depth=1
	movl	hufts(%rip), %eax
	cmpl	-12(%rbp), %eax
	jbe	.LBB45_5
# BB#4:                                 # %if.then2
                                        #   in Loop: Header=BB45_1 Depth=1
	movl	hufts(%rip), %eax
	movl	%eax, -12(%rbp)
.LBB45_5:                               # %do.cond
                                        #   in Loop: Header=BB45_1 Depth=1
	cmpl	$0, -24(%rbp)
	je	.LBB45_1
	jmp	.LBB45_6
	.p2align	4, 0x90
.LBB45_7:                               # %while.body
                                        #   in Loop: Header=BB45_6 Depth=1
	addl	$-8, bk(%rip)
	decl	inptr(%rip)
.LBB45_6:                               # %while.cond
                                        # =>This Inner Loop Header: Depth=1
	cmpl	$8, bk(%rip)
	jae	.LBB45_7
# BB#8:                                 # %while.end
	callq	flush_window
	movl	$0, -16(%rbp)
	jmp	.LBB45_9
.LBB45_2:                               # %if.then
	movl	-20(%rbp), %eax
	movl	%eax, -16(%rbp)
.LBB45_9:                               # %return
	movl	-16(%rbp), %eax
	addq	$24, %rsp
	popq	%rbx
	popq	%rbp
	retq
.Lfunc_end45:
	.size	inflate, .Lfunc_end45-inflate
	.cfi_endproc

	.globl	ct_init
	.p2align	4, 0x90
	.type	ct_init,@function
ct_init:                                # @ct_init
	.cfi_startproc
# BB#0:                                 # %entry
	pushq	%rbp
.Lcfi149:
	.cfi_def_cfa_offset 16
.Lcfi150:
	.cfi_offset %rbp, -16
	movq	%rsp, %rbp
.Lcfi151:
	.cfi_def_cfa_register %rbp
	subq	$48, %rsp
	movq	%rdi, -40(%rbp)
	movq	%rsi, -32(%rbp)
	movq	-40(%rbp), %rax
	movq	%rax, file_type(%rip)
	movq	-32(%rbp), %rax
	movq	%rax, file_method(%rip)
	movq	$0, input_len(%rip)
	movq	$0, compressed_len(%rip)
	cmpw	$0, static_dtree+2(%rip)
	jne	.LBB46_35
# BB#1:                                 # %if.end
	movl	$0, -16(%rbp)
	movl	$0, -8(%rbp)
	cmpl	$27, -8(%rbp)
	jle	.LBB46_3
	jmp	.LBB46_7
	.p2align	4, 0x90
.LBB46_6:                               # %for.inc14
                                        #   in Loop: Header=BB46_3 Depth=1
	incl	-8(%rbp)
	cmpl	$27, -8(%rbp)
	jg	.LBB46_7
.LBB46_3:                               # %for.body
                                        # =>This Loop Header: Depth=1
                                        #     Child Loop BB46_4 Depth 2
	movl	-16(%rbp), %eax
	movslq	-8(%rbp), %rcx
	movl	%eax, base_length(,%rcx,4)
	movl	$0, -4(%rbp)
	jmp	.LBB46_4
	.p2align	4, 0x90
.LBB46_5:                               # %for.inc
                                        #   in Loop: Header=BB46_4 Depth=2
	movzbl	-8(%rbp), %eax
	movslq	-16(%rbp), %rcx
	leal	1(%rcx), %edx
	movl	%edx, -16(%rbp)
	movb	%al, length_code(%rcx)
	incl	-4(%rbp)
.LBB46_4:                               # %for.cond4
                                        #   Parent Loop BB46_3 Depth=1
                                        # =>  This Inner Loop Header: Depth=2
	movslq	-8(%rbp), %rax
	movzbl	extra_lbits(,%rax,4), %ecx
	movl	$1, %eax
	shll	%cl, %eax
	cmpl	%eax, -4(%rbp)
	jl	.LBB46_5
	jmp	.LBB46_6
.LBB46_7:                               # %for.end16
	movb	-8(%rbp), %al
	movslq	-16(%rbp), %rcx
	movb	%al, length_code-1(%rcx)
	movl	$0, -12(%rbp)
	movl	$0, -8(%rbp)
	cmpl	$15, -8(%rbp)
	jle	.LBB46_9
	jmp	.LBB46_13
	.p2align	4, 0x90
.LBB46_12:                              # %for.inc40
                                        #   in Loop: Header=BB46_9 Depth=1
	incl	-8(%rbp)
	cmpl	$15, -8(%rbp)
	jg	.LBB46_13
.LBB46_9:                               # %for.body23
                                        # =>This Loop Header: Depth=1
                                        #     Child Loop BB46_10 Depth 2
	movl	-12(%rbp), %eax
	movslq	-8(%rbp), %rcx
	movl	%eax, base_dist(,%rcx,4)
	movl	$0, -4(%rbp)
	jmp	.LBB46_10
	.p2align	4, 0x90
.LBB46_11:                              # %for.inc37
                                        #   in Loop: Header=BB46_10 Depth=2
	movzbl	-8(%rbp), %eax
	movslq	-12(%rbp), %rcx
	leal	1(%rcx), %edx
	movl	%edx, -12(%rbp)
	movb	%al, dist_code(%rcx)
	incl	-4(%rbp)
.LBB46_10:                              # %for.cond26
                                        #   Parent Loop BB46_9 Depth=1
                                        # =>  This Inner Loop Header: Depth=2
	movslq	-8(%rbp), %rax
	movzbl	extra_dbits(,%rax,4), %ecx
	movl	$1, %eax
	shll	%cl, %eax
	cmpl	%eax, -4(%rbp)
	jl	.LBB46_11
	jmp	.LBB46_12
.LBB46_13:                              # %for.end42
	sarl	$7, -12(%rbp)
	cmpl	$29, -8(%rbp)
	jle	.LBB46_15
	jmp	.LBB46_19
	.p2align	4, 0x90
.LBB46_18:                              # %for.inc65
                                        #   in Loop: Header=BB46_15 Depth=1
	incl	-8(%rbp)
	cmpl	$29, -8(%rbp)
	jg	.LBB46_19
.LBB46_15:                              # %for.body46
                                        # =>This Loop Header: Depth=1
                                        #     Child Loop BB46_16 Depth 2
	movl	-12(%rbp), %eax
	shll	$7, %eax
	movslq	-8(%rbp), %rcx
	movl	%eax, base_dist(,%rcx,4)
	movl	$0, -4(%rbp)
	jmp	.LBB46_16
	.p2align	4, 0x90
.LBB46_17:                              # %for.inc62
                                        #   in Loop: Header=BB46_16 Depth=2
	movzbl	-8(%rbp), %eax
	movslq	-12(%rbp), %rcx
	leal	1(%rcx), %edx
	movl	%edx, -12(%rbp)
	movb	%al, dist_code+256(%rcx)
	incl	-4(%rbp)
.LBB46_16:                              # %for.cond50
                                        #   Parent Loop BB46_15 Depth=1
                                        # =>  This Inner Loop Header: Depth=2
	movslq	-8(%rbp), %rax
	movl	extra_dbits(,%rax,4), %ecx
	addl	$-7, %ecx
	movl	$1, %eax
                                        # kill: %CL<def> %CL<kill> %ECX<kill>
	shll	%cl, %eax
	cmpl	%eax, -4(%rbp)
	jl	.LBB46_17
	jmp	.LBB46_18
.LBB46_19:                              # %for.end67
	movl	$0, -20(%rbp)
	cmpl	$15, -20(%rbp)
	jg	.LBB46_22
	.p2align	4, 0x90
.LBB46_21:                              # %for.inc74
                                        # =>This Inner Loop Header: Depth=1
	movslq	-20(%rbp), %rax
	movw	$0, bl_count(%rax,%rax)
	incl	-20(%rbp)
	cmpl	$15, -20(%rbp)
	jle	.LBB46_21
.LBB46_22:                              # %for.end76
	movl	$0, -4(%rbp)
	cmpl	$143, -4(%rbp)
	jg	.LBB46_25
	.p2align	4, 0x90
.LBB46_24:                              # %while.body
                                        # =>This Inner Loop Header: Depth=1
	movslq	-4(%rbp), %rax
	leal	1(%rax), %ecx
	movl	%ecx, -4(%rbp)
	movw	$8, static_ltree+2(,%rax,4)
	incw	bl_count+16(%rip)
	cmpl	$143, -4(%rbp)
	jle	.LBB46_24
	jmp	.LBB46_25
	.p2align	4, 0x90
.LBB46_26:                              # %while.body86
                                        #   in Loop: Header=BB46_25 Depth=1
	movslq	-4(%rbp), %rax
	leal	1(%rax), %ecx
	movl	%ecx, -4(%rbp)
	movw	$9, static_ltree+2(,%rax,4)
	incw	bl_count+18(%rip)
.LBB46_25:                              # %while.cond83
                                        # =>This Inner Loop Header: Depth=1
	cmpl	$255, -4(%rbp)
	jle	.LBB46_26
	jmp	.LBB46_27
	.p2align	4, 0x90
.LBB46_28:                              # %while.body97
                                        #   in Loop: Header=BB46_27 Depth=1
	movslq	-4(%rbp), %rax
	leal	1(%rax), %ecx
	movl	%ecx, -4(%rbp)
	movw	$7, static_ltree+2(,%rax,4)
	incw	bl_count+14(%rip)
.LBB46_27:                              # %while.cond94
                                        # =>This Inner Loop Header: Depth=1
	cmpl	$279, -4(%rbp)          # imm = 0x117
	jle	.LBB46_28
	jmp	.LBB46_29
	.p2align	4, 0x90
.LBB46_30:                              # %while.body108
                                        #   in Loop: Header=BB46_29 Depth=1
	movslq	-4(%rbp), %rax
	leal	1(%rax), %ecx
	movl	%ecx, -4(%rbp)
	movw	$8, static_ltree+2(,%rax,4)
	incw	bl_count+16(%rip)
.LBB46_29:                              # %while.cond105
                                        # =>This Inner Loop Header: Depth=1
	cmpl	$287, -4(%rbp)          # imm = 0x11F
	jle	.LBB46_30
# BB#31:                                # %while.end115
	movl	$static_ltree, %edi
	movl	$287, %esi              # imm = 0x11F
	callq	gen_codes
	movl	$0, -4(%rbp)
	cmpl	$29, -4(%rbp)
	jg	.LBB46_34
	.p2align	4, 0x90
.LBB46_33:                              # %for.inc128
                                        # =>This Inner Loop Header: Depth=1
	movslq	-4(%rbp), %rax
	movw	$5, static_dtree+2(,%rax,4)
	movl	-4(%rbp), %edi
	movl	$5, %esi
	callq	bi_reverse
	movslq	-4(%rbp), %rcx
	movw	%ax, static_dtree(,%rcx,4)
	incl	-4(%rbp)
	cmpl	$29, -4(%rbp)
	jle	.LBB46_33
.LBB46_34:                              # %for.end130
	callq	init_block
.LBB46_35:                              # %return
	addq	$48, %rsp
	popq	%rbp
	retq
.Lfunc_end46:
	.size	ct_init, .Lfunc_end46-ct_init
	.cfi_endproc

	.p2align	4, 0x90
	.type	gen_codes,@function
gen_codes:                              # @gen_codes
	.cfi_startproc
# BB#0:                                 # %entry
	pushq	%rbp
.Lcfi152:
	.cfi_def_cfa_offset 16
.Lcfi153:
	.cfi_offset %rbp, -16
	movq	%rsp, %rbp
.Lcfi154:
	.cfi_def_cfa_register %rbp
	subq	$64, %rsp
	movq	%rdi, -32(%rbp)
	movl	%esi, -20(%rbp)
	movw	$0, -2(%rbp)
	movl	$1, -12(%rbp)
	cmpl	$15, -12(%rbp)
	jg	.LBB47_3
	.p2align	4, 0x90
.LBB47_2:                               # %for.inc
                                        # =>This Inner Loop Header: Depth=1
	movzwl	-2(%rbp), %eax
	movslq	-12(%rbp), %rcx
	movzwl	bl_count-2(%rcx,%rcx), %ecx
	addl	%eax, %ecx
	addl	%ecx, %ecx
	movw	%cx, -2(%rbp)
	movslq	-12(%rbp), %rax
	movw	%cx, -64(%rbp,%rax,2)
	incl	-12(%rbp)
	cmpl	$15, -12(%rbp)
	jle	.LBB47_2
.LBB47_3:                               # %for.end
	movl	$0, -8(%rbp)
	jmp	.LBB47_4
	.p2align	4, 0x90
.LBB47_7:                               # %for.inc23
                                        #   in Loop: Header=BB47_4 Depth=1
	incl	-8(%rbp)
.LBB47_4:                               # %for.cond5
                                        # =>This Inner Loop Header: Depth=1
	movl	-8(%rbp), %eax
	cmpl	-20(%rbp), %eax
	jg	.LBB47_8
# BB#5:                                 # %for.body8
                                        #   in Loop: Header=BB47_4 Depth=1
	movq	-32(%rbp), %rax
	movslq	-8(%rbp), %rcx
	movzwl	2(%rax,%rcx,4), %eax
	testl	%eax, %eax
	movl	%eax, -16(%rbp)
	je	.LBB47_7
# BB#6:                                 # %if.end
                                        #   in Loop: Header=BB47_4 Depth=1
	movslq	-16(%rbp), %rax
	movzwl	-64(%rbp,%rax,2), %edi
	leal	1(%rdi), %ecx
	movw	%cx, -64(%rbp,%rax,2)
	movl	-16(%rbp), %esi
                                        # kill: %EDI<def> %EDI<kill> %RDI<kill>
	callq	bi_reverse
	movq	-32(%rbp), %rcx
	movslq	-8(%rbp), %rdx
	movw	%ax, (%rcx,%rdx,4)
	jmp	.LBB47_7
.LBB47_8:                               # %for.end25
	addq	$64, %rsp
	popq	%rbp
	retq
.Lfunc_end47:
	.size	gen_codes, .Lfunc_end47-gen_codes
	.cfi_endproc

	.p2align	4, 0x90
	.type	init_block,@function
init_block:                             # @init_block
	.cfi_startproc
# BB#0:                                 # %entry
	pushq	%rbp
.Lcfi155:
	.cfi_def_cfa_offset 16
.Lcfi156:
	.cfi_offset %rbp, -16
	movq	%rsp, %rbp
.Lcfi157:
	.cfi_def_cfa_register %rbp
	movl	$0, -4(%rbp)
	cmpl	$285, -4(%rbp)          # imm = 0x11D
	jg	.LBB48_3
	.p2align	4, 0x90
.LBB48_2:                               # %for.inc
                                        # =>This Inner Loop Header: Depth=1
	movslq	-4(%rbp), %rax
	movw	$0, dyn_ltree(,%rax,4)
	incl	-4(%rbp)
	cmpl	$285, -4(%rbp)          # imm = 0x11D
	jle	.LBB48_2
.LBB48_3:                               # %for.end
	movl	$0, -4(%rbp)
	cmpl	$29, -4(%rbp)
	jg	.LBB48_6
	.p2align	4, 0x90
.LBB48_5:                               # %for.inc8
                                        # =>This Inner Loop Header: Depth=1
	movslq	-4(%rbp), %rax
	movw	$0, dyn_dtree(,%rax,4)
	incl	-4(%rbp)
	cmpl	$29, -4(%rbp)
	jle	.LBB48_5
.LBB48_6:                               # %for.end10
	movl	$0, -4(%rbp)
	cmpl	$18, -4(%rbp)
	jg	.LBB48_9
	.p2align	4, 0x90
.LBB48_8:                               # %for.inc18
                                        # =>This Inner Loop Header: Depth=1
	movslq	-4(%rbp), %rax
	movw	$0, bl_tree(,%rax,4)
	incl	-4(%rbp)
	cmpl	$18, -4(%rbp)
	jle	.LBB48_8
.LBB48_9:                               # %for.end20
	movw	$1, dyn_ltree+1024(%rip)
	movq	$0, static_len(%rip)
	movq	$0, opt_len(%rip)
	movl	$0, last_flags(%rip)
	movl	$0, last_dist(%rip)
	movl	$0, last_lit(%rip)
	movb	$0, flags(%rip)
	movb	$1, flag_bit(%rip)
	popq	%rbp
	retq
.Lfunc_end48:
	.size	init_block, .Lfunc_end48-init_block
	.cfi_endproc

	.p2align	4, 0x90
	.type	set_file_type,@function
set_file_type:                          # @set_file_type
	.cfi_startproc
# BB#0:                                 # %entry
	pushq	%rbp
.Lcfi158:
	.cfi_def_cfa_offset 16
.Lcfi159:
	.cfi_offset %rbp, -16
	movq	%rsp, %rbp
.Lcfi160:
	.cfi_def_cfa_register %rbp
	movl	$0, -4(%rbp)
	movl	$0, -12(%rbp)
	movl	$0, -8(%rbp)
	cmpl	$6, -4(%rbp)
	jg	.LBB49_3
	.p2align	4, 0x90
.LBB49_2:                               # %while.body
                                        # =>This Inner Loop Header: Depth=1
	movslq	-4(%rbp), %rax
	leal	1(%rax), %ecx
	movl	%ecx, -4(%rbp)
	movzwl	dyn_ltree(,%rax,4), %eax
	addl	%eax, -8(%rbp)
	cmpl	$6, -4(%rbp)
	jle	.LBB49_2
	jmp	.LBB49_3
	.p2align	4, 0x90
.LBB49_4:                               # %while.body4
                                        #   in Loop: Header=BB49_3 Depth=1
	movslq	-4(%rbp), %rax
	leal	1(%rax), %ecx
	movl	%ecx, -4(%rbp)
	movzwl	dyn_ltree(,%rax,4), %eax
	addl	%eax, -12(%rbp)
.LBB49_3:                               # %while.cond1
                                        # =>This Inner Loop Header: Depth=1
	cmpl	$127, -4(%rbp)
	jle	.LBB49_4
	jmp	.LBB49_5
	.p2align	4, 0x90
.LBB49_6:                               # %while.body16
                                        #   in Loop: Header=BB49_5 Depth=1
	movslq	-4(%rbp), %rax
	leal	1(%rax), %ecx
	movl	%ecx, -4(%rbp)
	movzwl	dyn_ltree(,%rax,4), %eax
	addl	%eax, -8(%rbp)
.LBB49_5:                               # %while.cond13
                                        # =>This Inner Loop Header: Depth=1
	cmpl	$255, -4(%rbp)
	jle	.LBB49_6
# BB#7:                                 # %while.end24
	movl	-12(%rbp), %eax
	shrl	$2, %eax
	xorl	%ecx, %ecx
	cmpl	%eax, -8(%rbp)
	setbe	%cl
	movq	file_type(%rip), %rax
	movw	%cx, (%rax)
	movq	file_type(%rip), %rax
	cmpw	$0, (%rax)
	popq	%rbp
	retq
.Lfunc_end49:
	.size	set_file_type, .Lfunc_end49-set_file_type
	.cfi_endproc

	.p2align	4, 0x90
	.type	build_tree_1,@function
build_tree_1:                           # @build_tree_1
	.cfi_startproc
# BB#0:                                 # %entry
	pushq	%rbp
.Lcfi161:
	.cfi_def_cfa_offset 16
.Lcfi162:
	.cfi_offset %rbp, -16
	movq	%rsp, %rbp
.Lcfi163:
	.cfi_def_cfa_register %rbp
	subq	$80, %rsp
	movq	%rdi, -48(%rbp)
	movq	(%rdi), %rax
	movq	%rax, -24(%rbp)
	movq	-48(%rbp), %rax
	movq	8(%rax), %rax
	movq	%rax, -64(%rbp)
	movq	-48(%rbp), %rax
	movl	28(%rax), %eax
	movl	%eax, -40(%rbp)
	movl	$-1, -8(%rbp)
	movl	-40(%rbp), %eax
	movl	%eax, -12(%rbp)
	movl	$0, heap_len(%rip)
	movl	$573, heap_max(%rip)    # imm = 0x23D
	movl	$0, -4(%rbp)
	jmp	.LBB50_1
	.p2align	4, 0x90
.LBB50_3:                               # %if.then
                                        #   in Loop: Header=BB50_1 Depth=1
	movl	-4(%rbp), %eax
	movl	%eax, -8(%rbp)
	movslq	heap_len(%rip), %rcx
	leaq	1(%rcx), %rdx
	movl	%edx, heap_len(%rip)
	movl	%eax, heap+4(,%rcx,4)
	movslq	-4(%rbp), %rax
	movb	$0, depth(%rax)
	incl	-4(%rbp)
.LBB50_1:                               # %for.cond
                                        # =>This Inner Loop Header: Depth=1
	movl	-4(%rbp), %eax
	cmpl	-40(%rbp), %eax
	jge	.LBB50_5
# BB#2:                                 # %for.body
                                        #   in Loop: Header=BB50_1 Depth=1
	movq	-24(%rbp), %rax
	movslq	-4(%rbp), %rcx
	cmpw	$0, (%rax,%rcx,4)
	jne	.LBB50_3
# BB#4:                                 # %if.else
                                        #   in Loop: Header=BB50_1 Depth=1
	movq	-24(%rbp), %rax
	movslq	-4(%rbp), %rcx
	movw	$0, 2(%rax,%rcx,4)
	incl	-4(%rbp)
	jmp	.LBB50_1
	.p2align	4, 0x90
.LBB50_10:                              # %if.then25
                                        #   in Loop: Header=BB50_5 Depth=1
	movq	-64(%rbp), %rax
	movslq	-28(%rbp), %rcx
	movzwl	2(%rax,%rcx,4), %eax
	subq	%rax, static_len(%rip)
.LBB50_5:                               # %while.cond
                                        # =>This Inner Loop Header: Depth=1
	cmpl	$1, heap_len(%rip)
	jg	.LBB50_11
# BB#6:                                 # %while.body
                                        #   in Loop: Header=BB50_5 Depth=1
	cmpl	$1, -8(%rbp)
	jg	.LBB50_8
# BB#7:                                 # %cond.true
                                        #   in Loop: Header=BB50_5 Depth=1
	movl	-8(%rbp), %eax
	incl	%eax
	movl	%eax, -52(%rbp)
	movl	%eax, -8(%rbp)
	movl	-52(%rbp), %eax
	movl	%eax, -32(%rbp)
	jmp	.LBB50_9
	.p2align	4, 0x90
.LBB50_8:                               # %cond.false
                                        #   in Loop: Header=BB50_5 Depth=1
	movl	$0, -32(%rbp)
.LBB50_9:                               # %cond.end
                                        #   in Loop: Header=BB50_5 Depth=1
	movl	-32(%rbp), %eax
	movslq	heap_len(%rip), %rcx
	leaq	1(%rcx), %rdx
	movl	%edx, heap_len(%rip)
	movl	%eax, heap+4(,%rcx,4)
	movl	%eax, -28(%rbp)
	movq	-24(%rbp), %rax
	movslq	-28(%rbp), %rcx
	movw	$1, (%rax,%rcx,4)
	movslq	-28(%rbp), %rax
	movb	$0, depth(%rax)
	decq	opt_len(%rip)
	cmpq	$0, -64(%rbp)
	je	.LBB50_5
	jmp	.LBB50_10
.LBB50_11:                              # %while.end
	movl	-8(%rbp), %eax
	movq	-48(%rbp), %rcx
	movl	%eax, 36(%rcx)
	movl	heap_len(%rip), %eax
	movl	%eax, %ecx
	shrl	$31, %ecx
	addl	%eax, %ecx
	sarl	%ecx
	movl	%ecx, -4(%rbp)
	cmpl	$0, -4(%rbp)
	jle	.LBB50_14
	.p2align	4, 0x90
.LBB50_13:                              # %for.inc37
                                        # =>This Inner Loop Header: Depth=1
	movq	-24(%rbp), %rdi
	movl	-4(%rbp), %esi
	callq	pqdownheap
	decl	-4(%rbp)
	cmpl	$0, -4(%rbp)
	jg	.LBB50_13
	.p2align	4, 0x90
.LBB50_14:                              # %do.body
                                        # =>This Inner Loop Header: Depth=1
	movl	heap+4(%rip), %eax
	movl	%eax, -4(%rbp)
	movslq	heap_len(%rip), %rax
	leal	-1(%rax), %ecx
	movl	%ecx, heap_len(%rip)
	movl	heap(,%rax,4), %eax
	movl	%eax, heap+4(%rip)
	movq	-24(%rbp), %rdi
	movl	$1, %esi
	callq	pqdownheap
	movl	heap+4(%rip), %eax
	movl	%eax, -16(%rbp)
	movl	-4(%rbp), %eax
	movslq	heap_max(%rip), %rcx
	leaq	-1(%rcx), %rdx
	movl	%edx, heap_max(%rip)
	movl	%eax, heap-4(,%rcx,4)
	movl	-16(%rbp), %eax
	movslq	heap_max(%rip), %rcx
	leaq	-1(%rcx), %rdx
	movl	%edx, heap_max(%rip)
	movl	%eax, heap-4(,%rcx,4)
	movq	-24(%rbp), %rax
	movslq	-4(%rbp), %rcx
	movzwl	(%rax,%rcx,4), %ecx
	movslq	-16(%rbp), %rdx
	movzwl	(%rax,%rdx,4), %edx
	addl	%ecx, %edx
	movslq	-12(%rbp), %rcx
	movw	%dx, (%rax,%rcx,4)
	movslq	-4(%rbp), %rax
	movzbl	depth(%rax), %eax
	movslq	-16(%rbp), %rcx
	movzbl	depth(%rcx), %ecx
	cmpl	%ecx, %eax
	jl	.LBB50_16
# BB#15:                                # %cond.true72
                                        #   in Loop: Header=BB50_14 Depth=1
	movslq	-4(%rbp), %rax
	movzbl	depth(%rax), %eax
	movl	%eax, -68(%rbp)
	jmp	.LBB50_17
	.p2align	4, 0x90
.LBB50_16:                              # %cond.false76
                                        #   in Loop: Header=BB50_14 Depth=1
	movslq	-16(%rbp), %rax
	movzbl	depth(%rax), %eax
	movl	%eax, -72(%rbp)
.LBB50_17:                              # %do.cond
                                        #   in Loop: Header=BB50_14 Depth=1
	movl	%eax, -36(%rbp)
	movl	-36(%rbp), %eax
	incl	%eax
	movslq	-12(%rbp), %rcx
	movb	%al, depth(%rcx)
	movzwl	-12(%rbp), %eax
	movq	-24(%rbp), %rcx
	movslq	-16(%rbp), %rdx
	movw	%ax, 2(%rcx,%rdx,4)
	movq	-24(%rbp), %rcx
	movslq	-4(%rbp), %rdx
	movw	%ax, 2(%rcx,%rdx,4)
	movl	-12(%rbp), %eax
	leal	1(%rax), %ecx
	movl	%ecx, -12(%rbp)
	movl	%eax, heap+4(%rip)
	movq	-24(%rbp), %rdi
	movl	$1, %esi
	callq	pqdownheap
	cmpl	$1, heap_len(%rip)
	jg	.LBB50_14
# BB#18:                                # %do.end
	movl	heap+4(%rip), %eax
	movslq	heap_max(%rip), %rcx
	leaq	-1(%rcx), %rdx
	movl	%edx, heap_max(%rip)
	movl	%eax, heap-4(,%rcx,4)
	movq	-48(%rbp), %rdi
	callq	gen_bitlen
	movq	-24(%rbp), %rdi
	movl	-8(%rbp), %esi
	callq	gen_codes
	addq	$80, %rsp
	popq	%rbp
	retq
.Lfunc_end50:
	.size	build_tree_1, .Lfunc_end50-build_tree_1
	.cfi_endproc

	.p2align	4, 0x90
	.type	build_bl_tree,@function
build_bl_tree:                          # @build_bl_tree
	.cfi_startproc
# BB#0:                                 # %entry
	pushq	%rbp
.Lcfi164:
	.cfi_def_cfa_offset 16
.Lcfi165:
	.cfi_offset %rbp, -16
	movq	%rsp, %rbp
.Lcfi166:
	.cfi_def_cfa_register %rbp
	subq	$16, %rsp
	movl	l_desc+36(%rip), %esi
	movl	$dyn_ltree, %edi
	callq	scan_tree
	movl	d_desc+36(%rip), %esi
	movl	$dyn_dtree, %edi
	callq	scan_tree
	movl	$bl_desc, %edi
	callq	build_tree_1
	movl	$18, -4(%rbp)
	cmpl	$3, -4(%rbp)
	jge	.LBB51_2
	jmp	.LBB51_4
	.p2align	4, 0x90
.LBB51_3:                               # %for.inc
                                        #   in Loop: Header=BB51_2 Depth=1
	decl	-4(%rbp)
	cmpl	$3, -4(%rbp)
	jl	.LBB51_4
.LBB51_2:                               # %for.body
                                        # =>This Inner Loop Header: Depth=1
	movslq	-4(%rbp), %rax
	movzbl	bl_order(%rax), %eax
	cmpw	$0, bl_tree+2(,%rax,4)
	je	.LBB51_3
.LBB51_4:                               # %for.end
	movslq	-4(%rbp), %rax
	leaq	(%rax,%rax,2), %rax
	movq	opt_len(%rip), %rcx
	leaq	17(%rcx,%rax), %rax
	movq	%rax, opt_len(%rip)
	movl	-4(%rbp), %eax
	addq	$16, %rsp
	popq	%rbp
	retq
.Lfunc_end51:
	.size	build_bl_tree, .Lfunc_end51-build_bl_tree
	.cfi_endproc

	.p2align	4, 0x90
	.type	compress_block,@function
compress_block:                         # @compress_block
	.cfi_startproc
# BB#0:                                 # %entry
	pushq	%rbp
.Lcfi167:
	.cfi_def_cfa_offset 16
.Lcfi168:
	.cfi_offset %rbp, -16
	movq	%rsp, %rbp
.Lcfi169:
	.cfi_def_cfa_register %rbp
	subq	$64, %rsp
	movq	%rdi, -48(%rbp)
	movq	%rsi, -56(%rbp)
	movl	$0, -12(%rbp)
	movl	$0, -36(%rbp)
	movl	$0, -32(%rbp)
	movb	$0, -1(%rbp)
	cmpl	$0, last_lit(%rip)
	je	.LBB52_14
	.p2align	4, 0x90
.LBB52_1:                               # %do.body
                                        # =>This Inner Loop Header: Depth=1
	testb	$7, -12(%rbp)
	jne	.LBB52_3
# BB#2:                                 # %if.then2
                                        #   in Loop: Header=BB52_1 Depth=1
	movl	-32(%rbp), %eax
	leal	1(%rax), %ecx
	movl	%ecx, -32(%rbp)
	movzbl	flag_buf(%rax), %eax
	movb	%al, -1(%rbp)
.LBB52_3:                               # %if.end
                                        #   in Loop: Header=BB52_1 Depth=1
	movl	-12(%rbp), %eax
	leal	1(%rax), %ecx
	movl	%ecx, -12(%rbp)
	movzbl	inbuf(%rax), %eax
	movl	%eax, -16(%rbp)
	movzbl	-1(%rbp), %eax
	testb	$1, %al
	jne	.LBB52_5
# BB#4:                                 # %if.then10
                                        #   in Loop: Header=BB52_1 Depth=1
	movq	-48(%rbp), %rax
